Archive member included to satisfy reference by file (symbol)

c:/intelfpga_lite/19.1/nios2eds/bin/gnu/h-x86_64-mingw32/bin/../lib/gcc/nios2-elf/8.3.1/../../../../../H-x86_64-mingw32/nios2-elf/lib\libc.a(lib_a-ctype_.o)
                              obj/default/src/network_utilities.o (_ctype_)
c:/intelfpga_lite/19.1/nios2eds/bin/gnu/h-x86_64-mingw32/bin/../lib/gcc/nios2-elf/8.3.1/../../../../../H-x86_64-mingw32/nios2-elf/lib\libc.a(lib_a-getchar.o)
                              obj/default/src/network_utilities.o (getchar)
c:/intelfpga_lite/19.1/nios2eds/bin/gnu/h-x86_64-mingw32/bin/../lib/gcc/nios2-elf/8.3.1/../../../../../H-x86_64-mingw32/nios2-elf/lib\libc.a(lib_a-impure.o)
                              c:/intelfpga_lite/19.1/nios2eds/bin/gnu/h-x86_64-mingw32/bin/../lib/gcc/nios2-elf/8.3.1/../../../../../H-x86_64-mingw32/nios2-elf/lib\libc.a(lib_a-getchar.o) (_impure_ptr)
c:/intelfpga_lite/19.1/nios2eds/bin/gnu/h-x86_64-mingw32/bin/../lib/gcc/nios2-elf/8.3.1/../../../../../H-x86_64-mingw32/nios2-elf/lib\libc.a(lib_a-printf.o)
                              obj/default/src/control.o (printf)
c:/intelfpga_lite/19.1/nios2eds/bin/gnu/h-x86_64-mingw32/bin/../lib/gcc/nios2-elf/8.3.1/../../../../../H-x86_64-mingw32/nios2-elf/lib\libc.a(lib_a-putchar.o)
                              obj/default/src/network_utilities.o (putchar)
c:/intelfpga_lite/19.1/nios2eds/bin/gnu/h-x86_64-mingw32/bin/../lib/gcc/nios2-elf/8.3.1/../../../../../H-x86_64-mingw32/nios2-elf/lib\libc.a(lib_a-puts.o)
                              obj/default/src/control.o (puts)
c:/intelfpga_lite/19.1/nios2eds/bin/gnu/h-x86_64-mingw32/bin/../lib/gcc/nios2-elf/8.3.1/../../../../../H-x86_64-mingw32/nios2-elf/lib\libc.a(lib_a-strlen.o)
                              c:/intelfpga_lite/19.1/nios2eds/bin/gnu/h-x86_64-mingw32/bin/../lib/gcc/nios2-elf/8.3.1/../../../../../H-x86_64-mingw32/nios2-elf/lib\libc.a(lib_a-puts.o) (strlen)
c:/intelfpga_lite/19.1/nios2eds/bin/gnu/h-x86_64-mingw32/bin/../lib/gcc/nios2-elf/8.3.1/../../../../../H-x86_64-mingw32/nios2-elf/lib\libc.a(lib_a-vfprintf.o)
                              c:/intelfpga_lite/19.1/nios2eds/bin/gnu/h-x86_64-mingw32/bin/../lib/gcc/nios2-elf/8.3.1/../../../../../H-x86_64-mingw32/nios2-elf/lib\libc.a(lib_a-printf.o) (___vfprintf_internal_r)
c:/intelfpga_lite/19.1/nios2eds/bin/gnu/h-x86_64-mingw32/bin/../lib/gcc/nios2-elf/8.3.1/../../../../../H-x86_64-mingw32/nios2-elf/lib\libc.a(lib_a-wsetup.o)
                              c:/intelfpga_lite/19.1/nios2eds/bin/gnu/h-x86_64-mingw32/bin/../lib/gcc/nios2-elf/8.3.1/../../../../../H-x86_64-mingw32/nios2-elf/lib\libc.a(lib_a-vfprintf.o) (__swsetup_r)
c:/intelfpga_lite/19.1/nios2eds/bin/gnu/h-x86_64-mingw32/bin/../lib/gcc/nios2-elf/8.3.1/../../../../../H-x86_64-mingw32/nios2-elf/lib\libc.a(lib_a-dtoa.o)
                              c:/intelfpga_lite/19.1/nios2eds/bin/gnu/h-x86_64-mingw32/bin/../lib/gcc/nios2-elf/8.3.1/../../../../../H-x86_64-mingw32/nios2-elf/lib\libc.a(lib_a-vfprintf.o) (_dtoa_r)
c:/intelfpga_lite/19.1/nios2eds/bin/gnu/h-x86_64-mingw32/bin/../lib/gcc/nios2-elf/8.3.1/../../../../../H-x86_64-mingw32/nios2-elf/lib\libc.a(lib_a-fflush.o)
                              c:/intelfpga_lite/19.1/nios2eds/bin/gnu/h-x86_64-mingw32/bin/../lib/gcc/nios2-elf/8.3.1/../../../../../H-x86_64-mingw32/nios2-elf/lib\libc.a(lib_a-vfprintf.o) (_fflush_r)
c:/intelfpga_lite/19.1/nios2eds/bin/gnu/h-x86_64-mingw32/bin/../lib/gcc/nios2-elf/8.3.1/../../../../../H-x86_64-mingw32/nios2-elf/lib\libc.a(lib_a-findfp.o)
                              c:/intelfpga_lite/19.1/nios2eds/bin/gnu/h-x86_64-mingw32/bin/../lib/gcc/nios2-elf/8.3.1/../../../../../H-x86_64-mingw32/nios2-elf/lib\libc.a(lib_a-puts.o) (__sinit)
c:/intelfpga_lite/19.1/nios2eds/bin/gnu/h-x86_64-mingw32/bin/../lib/gcc/nios2-elf/8.3.1/../../../../../H-x86_64-mingw32/nios2-elf/lib\libc.a(lib_a-freer.o)
                              c:/intelfpga_lite/19.1/nios2eds/bin/gnu/h-x86_64-mingw32/bin/../lib/gcc/nios2-elf/8.3.1/../../../../../H-x86_64-mingw32/nios2-elf/lib\libc.a(lib_a-wsetup.o) (_free_r)
c:/intelfpga_lite/19.1/nios2eds/bin/gnu/h-x86_64-mingw32/bin/../lib/gcc/nios2-elf/8.3.1/../../../../../H-x86_64-mingw32/nios2-elf/lib\libc.a(lib_a-fvwrite.o)
                              c:/intelfpga_lite/19.1/nios2eds/bin/gnu/h-x86_64-mingw32/bin/../lib/gcc/nios2-elf/8.3.1/../../../../../H-x86_64-mingw32/nios2-elf/lib\libc.a(lib_a-puts.o) (__sfvwrite_r)
c:/intelfpga_lite/19.1/nios2eds/bin/gnu/h-x86_64-mingw32/bin/../lib/gcc/nios2-elf/8.3.1/../../../../../H-x86_64-mingw32/nios2-elf/lib\libc.a(lib_a-fwalk.o)
                              c:/intelfpga_lite/19.1/nios2eds/bin/gnu/h-x86_64-mingw32/bin/../lib/gcc/nios2-elf/8.3.1/../../../../../H-x86_64-mingw32/nios2-elf/lib\libc.a(lib_a-findfp.o) (_fwalk)
c:/intelfpga_lite/19.1/nios2eds/bin/gnu/h-x86_64-mingw32/bin/../lib/gcc/nios2-elf/8.3.1/../../../../../H-x86_64-mingw32/nios2-elf/lib\libc.a(lib_a-getc.o)
                              c:/intelfpga_lite/19.1/nios2eds/bin/gnu/h-x86_64-mingw32/bin/../lib/gcc/nios2-elf/8.3.1/../../../../../H-x86_64-mingw32/nios2-elf/lib\libc.a(lib_a-getchar.o) (_getc_r)
c:/intelfpga_lite/19.1/nios2eds/bin/gnu/h-x86_64-mingw32/bin/../lib/gcc/nios2-elf/8.3.1/../../../../../H-x86_64-mingw32/nios2-elf/lib\libc.a(lib_a-localeconv.o)
                              c:/intelfpga_lite/19.1/nios2eds/bin/gnu/h-x86_64-mingw32/bin/../lib/gcc/nios2-elf/8.3.1/../../../../../H-x86_64-mingw32/nios2-elf/lib\libc.a(lib_a-vfprintf.o) (_localeconv_r)
c:/intelfpga_lite/19.1/nios2eds/bin/gnu/h-x86_64-mingw32/bin/../lib/gcc/nios2-elf/8.3.1/../../../../../H-x86_64-mingw32/nios2-elf/lib\libc.a(lib_a-makebuf.o)
                              c:/intelfpga_lite/19.1/nios2eds/bin/gnu/h-x86_64-mingw32/bin/../lib/gcc/nios2-elf/8.3.1/../../../../../H-x86_64-mingw32/nios2-elf/lib\libc.a(lib_a-wsetup.o) (__smakebuf_r)
c:/intelfpga_lite/19.1/nios2eds/bin/gnu/h-x86_64-mingw32/bin/../lib/gcc/nios2-elf/8.3.1/../../../../../H-x86_64-mingw32/nios2-elf/lib\libc.a(lib_a-mallocr.o)
                              c:/intelfpga_lite/19.1/nios2eds/bin/gnu/h-x86_64-mingw32/bin/../lib/gcc/nios2-elf/8.3.1/../../../../../H-x86_64-mingw32/nios2-elf/lib\libc.a(lib_a-findfp.o) (_malloc_r)
c:/intelfpga_lite/19.1/nios2eds/bin/gnu/h-x86_64-mingw32/bin/../lib/gcc/nios2-elf/8.3.1/../../../../../H-x86_64-mingw32/nios2-elf/lib\libc.a(lib_a-memchr.o)
                              c:/intelfpga_lite/19.1/nios2eds/bin/gnu/h-x86_64-mingw32/bin/../lib/gcc/nios2-elf/8.3.1/../../../../../H-x86_64-mingw32/nios2-elf/lib\libc.a(lib_a-vfprintf.o) (memchr)
c:/intelfpga_lite/19.1/nios2eds/bin/gnu/h-x86_64-mingw32/bin/../lib/gcc/nios2-elf/8.3.1/../../../../../H-x86_64-mingw32/nios2-elf/lib\libc.a(lib_a-memcpy.o)
                              c:/intelfpga_lite/19.1/nios2eds/bin/gnu/h-x86_64-mingw32/bin/../lib/gcc/nios2-elf/8.3.1/../../../../../H-x86_64-mingw32/nios2-elf/lib\libc.a(lib_a-dtoa.o) (memcpy)
c:/intelfpga_lite/19.1/nios2eds/bin/gnu/h-x86_64-mingw32/bin/../lib/gcc/nios2-elf/8.3.1/../../../../../H-x86_64-mingw32/nios2-elf/lib\libc.a(lib_a-memmove.o)
                              c:/intelfpga_lite/19.1/nios2eds/bin/gnu/h-x86_64-mingw32/bin/../lib/gcc/nios2-elf/8.3.1/../../../../../H-x86_64-mingw32/nios2-elf/lib\libc.a(lib_a-fvwrite.o) (memmove)
c:/intelfpga_lite/19.1/nios2eds/bin/gnu/h-x86_64-mingw32/bin/../lib/gcc/nios2-elf/8.3.1/../../../../../H-x86_64-mingw32/nios2-elf/lib\libc.a(lib_a-memset.o)
                              c:/intelfpga_lite/19.1/nios2eds/bin/gnu/h-x86_64-mingw32/bin/../lib/gcc/nios2-elf/8.3.1/../../../../../H-x86_64-mingw32/nios2-elf/lib\libc.a(lib_a-findfp.o) (memset)
c:/intelfpga_lite/19.1/nios2eds/bin/gnu/h-x86_64-mingw32/bin/../lib/gcc/nios2-elf/8.3.1/../../../../../H-x86_64-mingw32/nios2-elf/lib\libc.a(lib_a-mprec.o)
                              c:/intelfpga_lite/19.1/nios2eds/bin/gnu/h-x86_64-mingw32/bin/../lib/gcc/nios2-elf/8.3.1/../../../../../H-x86_64-mingw32/nios2-elf/lib\libc.a(lib_a-dtoa.o) (_Balloc)
c:/intelfpga_lite/19.1/nios2eds/bin/gnu/h-x86_64-mingw32/bin/../lib/gcc/nios2-elf/8.3.1/../../../../../H-x86_64-mingw32/nios2-elf/lib\libc.a(lib_a-putc.o)
                              c:/intelfpga_lite/19.1/nios2eds/bin/gnu/h-x86_64-mingw32/bin/../lib/gcc/nios2-elf/8.3.1/../../../../../H-x86_64-mingw32/nios2-elf/lib\libc.a(lib_a-putchar.o) (_putc_r)
c:/intelfpga_lite/19.1/nios2eds/bin/gnu/h-x86_64-mingw32/bin/../lib/gcc/nios2-elf/8.3.1/../../../../../H-x86_64-mingw32/nios2-elf/lib\libc.a(lib_a-reallocr.o)
                              c:/intelfpga_lite/19.1/nios2eds/bin/gnu/h-x86_64-mingw32/bin/../lib/gcc/nios2-elf/8.3.1/../../../../../H-x86_64-mingw32/nios2-elf/lib\libc.a(lib_a-fvwrite.o) (_realloc_r)
c:/intelfpga_lite/19.1/nios2eds/bin/gnu/h-x86_64-mingw32/bin/../lib/gcc/nios2-elf/8.3.1/../../../../../H-x86_64-mingw32/nios2-elf/lib\libc.a(lib_a-rget.o)
                              c:/intelfpga_lite/19.1/nios2eds/bin/gnu/h-x86_64-mingw32/bin/../lib/gcc/nios2-elf/8.3.1/../../../../../H-x86_64-mingw32/nios2-elf/lib\libc.a(lib_a-getc.o) (__srget_r)
c:/intelfpga_lite/19.1/nios2eds/bin/gnu/h-x86_64-mingw32/bin/../lib/gcc/nios2-elf/8.3.1/../../../../../H-x86_64-mingw32/nios2-elf/lib\libc.a(lib_a-sbrkr.o)
                              c:/intelfpga_lite/19.1/nios2eds/bin/gnu/h-x86_64-mingw32/bin/../lib/gcc/nios2-elf/8.3.1/../../../../../H-x86_64-mingw32/nios2-elf/lib\libc.a(lib_a-freer.o) (_sbrk_r)
c:/intelfpga_lite/19.1/nios2eds/bin/gnu/h-x86_64-mingw32/bin/../lib/gcc/nios2-elf/8.3.1/../../../../../H-x86_64-mingw32/nios2-elf/lib\libc.a(lib_a-stdio.o)
                              c:/intelfpga_lite/19.1/nios2eds/bin/gnu/h-x86_64-mingw32/bin/../lib/gcc/nios2-elf/8.3.1/../../../../../H-x86_64-mingw32/nios2-elf/lib\libc.a(lib_a-findfp.o) (__sread)
c:/intelfpga_lite/19.1/nios2eds/bin/gnu/h-x86_64-mingw32/bin/../lib/gcc/nios2-elf/8.3.1/../../../../../H-x86_64-mingw32/nios2-elf/lib\libc.a(lib_a-vfiprintf.o)
                              c:/intelfpga_lite/19.1/nios2eds/bin/gnu/h-x86_64-mingw32/bin/../lib/gcc/nios2-elf/8.3.1/../../../../../H-x86_64-mingw32/nios2-elf/lib\libc.a(lib_a-vfprintf.o) (__sprint_r)
c:/intelfpga_lite/19.1/nios2eds/bin/gnu/h-x86_64-mingw32/bin/../lib/gcc/nios2-elf/8.3.1/../../../../../H-x86_64-mingw32/nios2-elf/lib\libc.a(lib_a-wbuf.o)
                              c:/intelfpga_lite/19.1/nios2eds/bin/gnu/h-x86_64-mingw32/bin/../lib/gcc/nios2-elf/8.3.1/../../../../../H-x86_64-mingw32/nios2-elf/lib\libc.a(lib_a-putc.o) (__swbuf_r)
c:/intelfpga_lite/19.1/nios2eds/bin/gnu/h-x86_64-mingw32/bin/../lib/gcc/nios2-elf/8.3.1/../../../../../H-x86_64-mingw32/nios2-elf/lib\libc.a(lib_a-writer.o)
                              c:/intelfpga_lite/19.1/nios2eds/bin/gnu/h-x86_64-mingw32/bin/../lib/gcc/nios2-elf/8.3.1/../../../../../H-x86_64-mingw32/nios2-elf/lib\libc.a(lib_a-stdio.o) (_write_r)
c:/intelfpga_lite/19.1/nios2eds/bin/gnu/h-x86_64-mingw32/bin/../lib/gcc/nios2-elf/8.3.1/../../../../../H-x86_64-mingw32/nios2-elf/lib\libc.a(closer.o)
                              c:/intelfpga_lite/19.1/nios2eds/bin/gnu/h-x86_64-mingw32/bin/../lib/gcc/nios2-elf/8.3.1/../../../../../H-x86_64-mingw32/nios2-elf/lib\libc.a(lib_a-stdio.o) (_close_r)
c:/intelfpga_lite/19.1/nios2eds/bin/gnu/h-x86_64-mingw32/bin/../lib/gcc/nios2-elf/8.3.1/../../../../../H-x86_64-mingw32/nios2-elf/lib\libc.a(lib_a-callocr.o)
                              c:/intelfpga_lite/19.1/nios2eds/bin/gnu/h-x86_64-mingw32/bin/../lib/gcc/nios2-elf/8.3.1/../../../../../H-x86_64-mingw32/nios2-elf/lib\libc.a(lib_a-mprec.o) (_calloc_r)
c:/intelfpga_lite/19.1/nios2eds/bin/gnu/h-x86_64-mingw32/bin/../lib/gcc/nios2-elf/8.3.1/../../../../../H-x86_64-mingw32/nios2-elf/lib\libc.a(lib_a-fclose.o)
                              c:/intelfpga_lite/19.1/nios2eds/bin/gnu/h-x86_64-mingw32/bin/../lib/gcc/nios2-elf/8.3.1/../../../../../H-x86_64-mingw32/nios2-elf/lib\libc.a(lib_a-findfp.o) (_fclose_r)
c:/intelfpga_lite/19.1/nios2eds/bin/gnu/h-x86_64-mingw32/bin/../lib/gcc/nios2-elf/8.3.1/../../../../../H-x86_64-mingw32/nios2-elf/lib\libc.a(lib_a-fputwc.o)
                              c:/intelfpga_lite/19.1/nios2eds/bin/gnu/h-x86_64-mingw32/bin/../lib/gcc/nios2-elf/8.3.1/../../../../../H-x86_64-mingw32/nios2-elf/lib\libc.a(lib_a-vfiprintf.o) (_fputwc_r)
c:/intelfpga_lite/19.1/nios2eds/bin/gnu/h-x86_64-mingw32/bin/../lib/gcc/nios2-elf/8.3.1/../../../../../H-x86_64-mingw32/nios2-elf/lib\libc.a(lib_a-fstatr.o)
                              c:/intelfpga_lite/19.1/nios2eds/bin/gnu/h-x86_64-mingw32/bin/../lib/gcc/nios2-elf/8.3.1/../../../../../H-x86_64-mingw32/nios2-elf/lib\libc.a(lib_a-makebuf.o) (_fstat_r)
c:/intelfpga_lite/19.1/nios2eds/bin/gnu/h-x86_64-mingw32/bin/../lib/gcc/nios2-elf/8.3.1/../../../../../H-x86_64-mingw32/nios2-elf/lib\libc.a(lib_a-int_errno.o)
                              c:/intelfpga_lite/19.1/nios2eds/bin/gnu/h-x86_64-mingw32/bin/../lib/gcc/nios2-elf/8.3.1/../../../../../H-x86_64-mingw32/nios2-elf/lib\libc.a(lib_a-sbrkr.o) (errno)
c:/intelfpga_lite/19.1/nios2eds/bin/gnu/h-x86_64-mingw32/bin/../lib/gcc/nios2-elf/8.3.1/../../../../../H-x86_64-mingw32/nios2-elf/lib\libc.a(lib_a-isattyr.o)
                              c:/intelfpga_lite/19.1/nios2eds/bin/gnu/h-x86_64-mingw32/bin/../lib/gcc/nios2-elf/8.3.1/../../../../../H-x86_64-mingw32/nios2-elf/lib\libc.a(lib_a-makebuf.o) (_isatty_r)
c:/intelfpga_lite/19.1/nios2eds/bin/gnu/h-x86_64-mingw32/bin/../lib/gcc/nios2-elf/8.3.1/../../../../../H-x86_64-mingw32/nios2-elf/lib\libc.a(lib_a-locale.o)
                              c:/intelfpga_lite/19.1/nios2eds/bin/gnu/h-x86_64-mingw32/bin/../lib/gcc/nios2-elf/8.3.1/../../../../../H-x86_64-mingw32/nios2-elf/lib\libc.a(lib_a-fputwc.o) (__locale_mb_cur_max)
c:/intelfpga_lite/19.1/nios2eds/bin/gnu/h-x86_64-mingw32/bin/../lib/gcc/nios2-elf/8.3.1/../../../../../H-x86_64-mingw32/nios2-elf/lib\libc.a(lib_a-lseekr.o)
                              c:/intelfpga_lite/19.1/nios2eds/bin/gnu/h-x86_64-mingw32/bin/../lib/gcc/nios2-elf/8.3.1/../../../../../H-x86_64-mingw32/nios2-elf/lib\libc.a(lib_a-stdio.o) (_lseek_r)
c:/intelfpga_lite/19.1/nios2eds/bin/gnu/h-x86_64-mingw32/bin/../lib/gcc/nios2-elf/8.3.1/../../../../../H-x86_64-mingw32/nios2-elf/lib\libc.a(lib_a-mbtowc_r.o)
                              c:/intelfpga_lite/19.1/nios2eds/bin/gnu/h-x86_64-mingw32/bin/../lib/gcc/nios2-elf/8.3.1/../../../../../H-x86_64-mingw32/nios2-elf/lib\libc.a(lib_a-locale.o) (__ascii_mbtowc)
c:/intelfpga_lite/19.1/nios2eds/bin/gnu/h-x86_64-mingw32/bin/../lib/gcc/nios2-elf/8.3.1/../../../../../H-x86_64-mingw32/nios2-elf/lib\libc.a(lib_a-readr.o)
                              c:/intelfpga_lite/19.1/nios2eds/bin/gnu/h-x86_64-mingw32/bin/../lib/gcc/nios2-elf/8.3.1/../../../../../H-x86_64-mingw32/nios2-elf/lib\libc.a(lib_a-stdio.o) (_read_r)
c:/intelfpga_lite/19.1/nios2eds/bin/gnu/h-x86_64-mingw32/bin/../lib/gcc/nios2-elf/8.3.1/../../../../../H-x86_64-mingw32/nios2-elf/lib\libc.a(lib_a-refill.o)
                              c:/intelfpga_lite/19.1/nios2eds/bin/gnu/h-x86_64-mingw32/bin/../lib/gcc/nios2-elf/8.3.1/../../../../../H-x86_64-mingw32/nios2-elf/lib\libc.a(lib_a-rget.o) (__srefill_r)
c:/intelfpga_lite/19.1/nios2eds/bin/gnu/h-x86_64-mingw32/bin/../lib/gcc/nios2-elf/8.3.1/../../../../../H-x86_64-mingw32/nios2-elf/lib\libc.a(lib_a-strcmp.o)
                              c:/intelfpga_lite/19.1/nios2eds/bin/gnu/h-x86_64-mingw32/bin/../lib/gcc/nios2-elf/8.3.1/../../../../../H-x86_64-mingw32/nios2-elf/lib\libc.a(lib_a-locale.o) (strcmp)
c:/intelfpga_lite/19.1/nios2eds/bin/gnu/h-x86_64-mingw32/bin/../lib/gcc/nios2-elf/8.3.1/../../../../../H-x86_64-mingw32/nios2-elf/lib\libc.a(lib_a-wcrtomb.o)
                              c:/intelfpga_lite/19.1/nios2eds/bin/gnu/h-x86_64-mingw32/bin/../lib/gcc/nios2-elf/8.3.1/../../../../../H-x86_64-mingw32/nios2-elf/lib\libc.a(lib_a-fputwc.o) (_wcrtomb_r)
c:/intelfpga_lite/19.1/nios2eds/bin/gnu/h-x86_64-mingw32/bin/../lib/gcc/nios2-elf/8.3.1/../../../../../H-x86_64-mingw32/nios2-elf/lib\libc.a(lib_a-wctomb_r.o)
                              c:/intelfpga_lite/19.1/nios2eds/bin/gnu/h-x86_64-mingw32/bin/../lib/gcc/nios2-elf/8.3.1/../../../../../H-x86_64-mingw32/nios2-elf/lib\libc.a(lib_a-locale.o) (__ascii_wctomb)
c:/intelfpga_lite/19.1/nios2eds/bin/gnu/h-x86_64-mingw32/bin/../lib/gcc/nios2-elf/8.3.1\libgcc.a(_udivdi3.o)
                              c:/intelfpga_lite/19.1/nios2eds/bin/gnu/h-x86_64-mingw32/bin/../lib/gcc/nios2-elf/8.3.1/../../../../../H-x86_64-mingw32/nios2-elf/lib\libc.a(lib_a-vfprintf.o) (__udivdi3)
c:/intelfpga_lite/19.1/nios2eds/bin/gnu/h-x86_64-mingw32/bin/../lib/gcc/nios2-elf/8.3.1\libgcc.a(_umoddi3.o)
                              c:/intelfpga_lite/19.1/nios2eds/bin/gnu/h-x86_64-mingw32/bin/../lib/gcc/nios2-elf/8.3.1/../../../../../H-x86_64-mingw32/nios2-elf/lib\libc.a(lib_a-vfprintf.o) (__umoddi3)
c:/intelfpga_lite/19.1/nios2eds/bin/gnu/h-x86_64-mingw32/bin/../lib/gcc/nios2-elf/8.3.1\libgcc.a(lib2-divmod.o)
                              c:/intelfpga_lite/19.1/nios2eds/bin/gnu/h-x86_64-mingw32/bin/../lib/gcc/nios2-elf/8.3.1/../../../../../H-x86_64-mingw32/nios2-elf/lib\libc.a(lib_a-vfprintf.o) (__divsi3)
c:/intelfpga_lite/19.1/nios2eds/bin/gnu/h-x86_64-mingw32/bin/../lib/gcc/nios2-elf/8.3.1\libgcc.a(adddf3.o)
                              c:/intelfpga_lite/19.1/nios2eds/bin/gnu/h-x86_64-mingw32/bin/../lib/gcc/nios2-elf/8.3.1/../../../../../H-x86_64-mingw32/nios2-elf/lib\libc.a(lib_a-dtoa.o) (__adddf3)
c:/intelfpga_lite/19.1/nios2eds/bin/gnu/h-x86_64-mingw32/bin/../lib/gcc/nios2-elf/8.3.1\libgcc.a(divdf3.o)
                              c:/intelfpga_lite/19.1/nios2eds/bin/gnu/h-x86_64-mingw32/bin/../lib/gcc/nios2-elf/8.3.1/../../../../../H-x86_64-mingw32/nios2-elf/lib\libc.a(lib_a-dtoa.o) (__divdf3)
c:/intelfpga_lite/19.1/nios2eds/bin/gnu/h-x86_64-mingw32/bin/../lib/gcc/nios2-elf/8.3.1\libgcc.a(eqdf2.o)
                              c:/intelfpga_lite/19.1/nios2eds/bin/gnu/h-x86_64-mingw32/bin/../lib/gcc/nios2-elf/8.3.1/../../../../../H-x86_64-mingw32/nios2-elf/lib\libc.a(lib_a-vfprintf.o) (__eqdf2)
c:/intelfpga_lite/19.1/nios2eds/bin/gnu/h-x86_64-mingw32/bin/../lib/gcc/nios2-elf/8.3.1\libgcc.a(gedf2.o)
                              c:/intelfpga_lite/19.1/nios2eds/bin/gnu/h-x86_64-mingw32/bin/../lib/gcc/nios2-elf/8.3.1/../../../../../H-x86_64-mingw32/nios2-elf/lib\libc.a(lib_a-dtoa.o) (__gedf2)
c:/intelfpga_lite/19.1/nios2eds/bin/gnu/h-x86_64-mingw32/bin/../lib/gcc/nios2-elf/8.3.1\libgcc.a(ledf2.o)
                              c:/intelfpga_lite/19.1/nios2eds/bin/gnu/h-x86_64-mingw32/bin/../lib/gcc/nios2-elf/8.3.1/../../../../../H-x86_64-mingw32/nios2-elf/lib\libc.a(lib_a-vfprintf.o) (__ledf2)
c:/intelfpga_lite/19.1/nios2eds/bin/gnu/h-x86_64-mingw32/bin/../lib/gcc/nios2-elf/8.3.1\libgcc.a(muldf3.o)
                              c:/intelfpga_lite/19.1/nios2eds/bin/gnu/h-x86_64-mingw32/bin/../lib/gcc/nios2-elf/8.3.1/../../../../../H-x86_64-mingw32/nios2-elf/lib\libc.a(lib_a-dtoa.o) (__muldf3)
c:/intelfpga_lite/19.1/nios2eds/bin/gnu/h-x86_64-mingw32/bin/../lib/gcc/nios2-elf/8.3.1\libgcc.a(subdf3.o)
                              c:/intelfpga_lite/19.1/nios2eds/bin/gnu/h-x86_64-mingw32/bin/../lib/gcc/nios2-elf/8.3.1/../../../../../H-x86_64-mingw32/nios2-elf/lib\libc.a(lib_a-dtoa.o) (__subdf3)
c:/intelfpga_lite/19.1/nios2eds/bin/gnu/h-x86_64-mingw32/bin/../lib/gcc/nios2-elf/8.3.1\libgcc.a(unorddf2.o)
                              c:/intelfpga_lite/19.1/nios2eds/bin/gnu/h-x86_64-mingw32/bin/../lib/gcc/nios2-elf/8.3.1/../../../../../H-x86_64-mingw32/nios2-elf/lib\libc.a(lib_a-vfprintf.o) (__unorddf2)
c:/intelfpga_lite/19.1/nios2eds/bin/gnu/h-x86_64-mingw32/bin/../lib/gcc/nios2-elf/8.3.1\libgcc.a(fixdfsi.o)
                              c:/intelfpga_lite/19.1/nios2eds/bin/gnu/h-x86_64-mingw32/bin/../lib/gcc/nios2-elf/8.3.1/../../../../../H-x86_64-mingw32/nios2-elf/lib\libc.a(lib_a-dtoa.o) (__fixdfsi)
c:/intelfpga_lite/19.1/nios2eds/bin/gnu/h-x86_64-mingw32/bin/../lib/gcc/nios2-elf/8.3.1\libgcc.a(floatsidf.o)
                              c:/intelfpga_lite/19.1/nios2eds/bin/gnu/h-x86_64-mingw32/bin/../lib/gcc/nios2-elf/8.3.1/../../../../../H-x86_64-mingw32/nios2-elf/lib\libc.a(lib_a-dtoa.o) (__floatsidf)
c:/intelfpga_lite/19.1/nios2eds/bin/gnu/h-x86_64-mingw32/bin/../lib/gcc/nios2-elf/8.3.1\libgcc.a(floatunsidf.o)
                              c:/intelfpga_lite/19.1/nios2eds/bin/gnu/h-x86_64-mingw32/bin/../lib/gcc/nios2-elf/8.3.1/../../../../../H-x86_64-mingw32/nios2-elf/lib\libc.a(lib_a-dtoa.o) (__floatunsidf)
c:/intelfpga_lite/19.1/nios2eds/bin/gnu/h-x86_64-mingw32/bin/../lib/gcc/nios2-elf/8.3.1\libgcc.a(_clz.o)
                              c:/intelfpga_lite/19.1/nios2eds/bin/gnu/h-x86_64-mingw32/bin/../lib/gcc/nios2-elf/8.3.1\libgcc.a(_udivdi3.o) (__clz_tab)
c:/intelfpga_lite/19.1/nios2eds/bin/gnu/h-x86_64-mingw32/bin/../lib/gcc/nios2-elf/8.3.1\libgcc.a(_clzsi2.o)
                              c:/intelfpga_lite/19.1/nios2eds/bin/gnu/h-x86_64-mingw32/bin/../lib/gcc/nios2-elf/8.3.1\libgcc.a(adddf3.o) (__clzsi2)
../hit_pat_bsp\libucosii_bsp.a(alt_flash_dev.o)
                              obj/default/src/network_utilities.o (alt_flash_open_dev)
../hit_pat_bsp\libucosii_bsp.a(alt_fstat.o)
                              c:/intelfpga_lite/19.1/nios2eds/bin/gnu/h-x86_64-mingw32/bin/../lib/gcc/nios2-elf/8.3.1/../../../../../H-x86_64-mingw32/nios2-elf/lib\libc.a(lib_a-fstatr.o) (fstat)
../hit_pat_bsp\libucosii_bsp.a(alt_isatty.o)
                              c:/intelfpga_lite/19.1/nios2eds/bin/gnu/h-x86_64-mingw32/bin/../lib/gcc/nios2-elf/8.3.1/../../../../../H-x86_64-mingw32/nios2-elf/lib\libc.a(lib_a-isattyr.o) (isatty)
../hit_pat_bsp\libucosii_bsp.a(alt_lseek.o)
                              c:/intelfpga_lite/19.1/nios2eds/bin/gnu/h-x86_64-mingw32/bin/../lib/gcc/nios2-elf/8.3.1/../../../../../H-x86_64-mingw32/nios2-elf/lib\libc.a(lib_a-lseekr.o) (lseek)
../hit_pat_bsp\libucosii_bsp.a(alt_main.o)
                              d:/hit20v3/software/hit_pat/software/hit_pat_bsp//obj/HAL/src/crt0.o (alt_main)
../hit_pat_bsp\libucosii_bsp.a(alt_sbrk.o)
                              c:/intelfpga_lite/19.1/nios2eds/bin/gnu/h-x86_64-mingw32/bin/../lib/gcc/nios2-elf/8.3.1/../../../../../H-x86_64-mingw32/nios2-elf/lib\libc.a(lib_a-sbrkr.o) (sbrk)
../hit_pat_bsp\libucosii_bsp.a(alt_env_lock.o)
                              ../hit_pat_bsp\libucosii_bsp.a(alt_main.o) (alt_envsem)
../hit_pat_bsp\libucosii_bsp.a(alt_malloc_lock.o)
                              ../hit_pat_bsp\libucosii_bsp.a(alt_main.o) (alt_heapsem)
../hit_pat_bsp\libucosii_bsp.a(os_core.o)
                              ../hit_pat_bsp\libucosii_bsp.a(alt_malloc_lock.o) (OSRunning)
../hit_pat_bsp\libucosii_bsp.a(os_flag.o)
                              ../hit_pat_bsp\libucosii_bsp.a(os_core.o) (OS_FlagInit)
../hit_pat_bsp\libucosii_bsp.a(os_mem.o)
                              ../hit_pat_bsp\libucosii_bsp.a(os_core.o) (OS_MemInit)
../hit_pat_bsp\libucosii_bsp.a(os_mutex.o)
                              obj/default/src/socket_server.o (OSMutexCreate)
../hit_pat_bsp\libucosii_bsp.a(os_q.o)
                              ../hit_pat_bsp\libucosii_bsp.a(os_core.o) (OS_QInit)
../hit_pat_bsp\libucosii_bsp.a(os_sem.o)
                              ../hit_pat_bsp\libucosii_bsp.a(alt_main.o) (OSSemCreate)
../hit_pat_bsp\libucosii_bsp.a(os_task.o)
                              obj/default/src/main.o (OSTaskCreateExt)
../hit_pat_bsp\libucosii_bsp.a(os_time.o)
                              obj/default/src/control.o (OSTimeDly)
../hit_pat_bsp\libucosii_bsp.a(alt_sys_init.o)
                              ../hit_pat_bsp\libucosii_bsp.a(alt_main.o) (alt_irq_init)
../hit_pat_bsp\libucosii_bsp.a(altera_avalon_timer_sc.o)
                              ../hit_pat_bsp\libucosii_bsp.a(alt_sys_init.o) (alt_avalon_timer_sc_init)
../hit_pat_bsp\libucosii_bsp.a(altera_avalon_tse.o)
                              obj/default/src/tse_my_system.o (marvell_cfg_rgmii)
../hit_pat_bsp\libucosii_bsp.a(altera_avalon_uart_fd.o)
                              ../hit_pat_bsp\libucosii_bsp.a(alt_sys_init.o) (altera_avalon_uart_read_fd)
../hit_pat_bsp\libucosii_bsp.a(altera_avalon_uart_init.o)
                              ../hit_pat_bsp\libucosii_bsp.a(alt_sys_init.o) (altera_avalon_uart_init)
../hit_pat_bsp\libucosii_bsp.a(altera_avalon_uart_read.o)
                              ../hit_pat_bsp\libucosii_bsp.a(altera_avalon_uart_fd.o) (altera_avalon_uart_read)
../hit_pat_bsp\libucosii_bsp.a(altera_avalon_uart_write.o)
                              ../hit_pat_bsp\libucosii_bsp.a(altera_avalon_uart_fd.o) (altera_avalon_uart_write)
../hit_pat_bsp\libucosii_bsp.a(altera_generic_quad_spi_controller.o)
                              ../hit_pat_bsp\libucosii_bsp.a(alt_sys_init.o) (alt_qspi_controller_lock)
../hit_pat_bsp\libucosii_bsp.a(altera_msgdma.o)
                              ../hit_pat_bsp\libucosii_bsp.a(altera_avalon_tse.o) (alt_msgdma_start_prefetcher_with_std_desc_list)
../hit_pat_bsp\libucosii_bsp.a(altera_onchip_flash.o)
                              ../hit_pat_bsp\libucosii_bsp.a(alt_sys_init.o) (alt_onchip_flash_read)
../hit_pat_bsp\libucosii_bsp.a(ins_tse_mac.o)
                              ../hit_pat_bsp\libucosii_bsp.a(alt_sys_init.o) (number_of_tse_mac)
../hit_pat_bsp\libucosii_bsp.a(alt_iniche_close.o)
                              obj/default/src/socket_server.o (close)
../hit_pat_bsp\libucosii_bsp.a(alt_iniche_dev.o)
                              ../hit_pat_bsp\libucosii_bsp.a(alt_sys_init.o) (alt_iniche_dev_list)
../hit_pat_bsp\libucosii_bsp.a(alt_iniche_read.o)
                              c:/intelfpga_lite/19.1/nios2eds/bin/gnu/h-x86_64-mingw32/bin/../lib/gcc/nios2-elf/8.3.1/../../../../../H-x86_64-mingw32/nios2-elf/lib\libc.a(lib_a-readr.o) (read)
../hit_pat_bsp\libucosii_bsp.a(alt_iniche_write.o)
                              c:/intelfpga_lite/19.1/nios2eds/bin/gnu/h-x86_64-mingw32/bin/../lib/gcc/nios2-elf/8.3.1/../../../../../H-x86_64-mingw32/nios2-elf/lib\libc.a(lib_a-writer.o) (write)
../hit_pat_bsp\libucosii_bsp.a(et_arp.o)
                              obj/default/src/control.o (find_oldest_arp)
../hit_pat_bsp\libucosii_bsp.a(iface.o)
                              ../hit_pat_bsp\libucosii_bsp.a(et_arp.o) (reg_type)
../hit_pat_bsp\libucosii_bsp.a(ipnet.o)
                              ../hit_pat_bsp\libucosii_bsp.a(ins_tse_mac.o) (rcvdq)
../hit_pat_bsp\libucosii_bsp.a(ipstart.o)
                              obj/default/src/control.o (nets)
../hit_pat_bsp\libucosii_bsp.a(igmp_cmn.o)
                              ../hit_pat_bsp\libucosii_bsp.a(ipstart.o) (igmp_all_hosts_group)
../hit_pat_bsp\libucosii_bsp.a(bsdsock.o)
                              obj/default/src/socket_server.o (bsd_accept)
../hit_pat_bsp\libucosii_bsp.a(cksum.o)
                              ../hit_pat_bsp\libucosii_bsp.a(igmp_cmn.o) (cksum)
../hit_pat_bsp\libucosii_bsp.a(in_utils.o)
                              ../hit_pat_bsp\libucosii_bsp.a(ins_tse_mac.o) (ns_printf)
../hit_pat_bsp\libucosii_bsp.a(netmain.o)
                              obj/default/src/main.o (iniche_net_ready)
../hit_pat_bsp\libucosii_bsp.a(tk_crnos.o)
                              ../hit_pat_bsp\libucosii_bsp.a(ipnet.o) (tk_yield)
../hit_pat_bsp\libucosii_bsp.a(ping.o)
                              obj/default/src/control.o (icmpEcho)
../hit_pat_bsp\libucosii_bsp.a(pktalloc.o)
                              ../hit_pat_bsp\libucosii_bsp.a(ipnet.o) (bigfreeq)
../hit_pat_bsp\libucosii_bsp.a(q.o)
                              ../hit_pat_bsp\libucosii_bsp.a(ipnet.o) (getq)
../hit_pat_bsp\libucosii_bsp.a(asm_cksum.o)
                              ../hit_pat_bsp\libucosii_bsp.a(cksum.o) (asm_cksum)
../hit_pat_bsp\libucosii_bsp.a(brdutils.o)
                              ../hit_pat_bsp\libucosii_bsp.a(et_arp.o) (dtrap)
../hit_pat_bsp\libucosii_bsp.a(osportco.o)
                              ../hit_pat_bsp\libucosii_bsp.a(ins_tse_mac.o) (cticks)
../hit_pat_bsp\libucosii_bsp.a(targnios.o)
                              ../hit_pat_bsp\libucosii_bsp.a(ins_tse_mac.o) (rcvdq_sem_ptr)
../hit_pat_bsp\libucosii_bsp.a(nptcp.o)
                              ../hit_pat_bsp\libucosii_bsp.a(iface.o) (soq)
../hit_pat_bsp\libucosii_bsp.a(rawsock.o)
                              ../hit_pat_bsp\libucosii_bsp.a(nptcp.o) (rawip_usrreq)
../hit_pat_bsp\libucosii_bsp.a(sockcall.o)
                              obj/default/src/socket_server.o (t_socket)
../hit_pat_bsp\libucosii_bsp.a(socket.o)
                              ../hit_pat_bsp\libucosii_bsp.a(sockcall.o) (socreate)
../hit_pat_bsp\libucosii_bsp.a(socket2.o)
                              ../hit_pat_bsp\libucosii_bsp.a(sockcall.o) (soqremque)
../hit_pat_bsp\libucosii_bsp.a(soselect.o)
                              ../hit_pat_bsp\libucosii_bsp.a(bsdsock.o) (t_select)
../hit_pat_bsp\libucosii_bsp.a(tcp_in.o)
                              ../hit_pat_bsp\libucosii_bsp.a(nptcp.o) (tcp_input)
../hit_pat_bsp\libucosii_bsp.a(tcp_out.o)
                              ../hit_pat_bsp\libucosii_bsp.a(tcp_in.o) (tcp_output)
../hit_pat_bsp\libucosii_bsp.a(tcp_subr.o)
                              ../hit_pat_bsp\libucosii_bsp.a(nptcp.o) (tcpstat)
../hit_pat_bsp\libucosii_bsp.a(tcp_timr.o)
                              ../hit_pat_bsp\libucosii_bsp.a(tcp_in.o) (tcp_keepidle)
../hit_pat_bsp\libucosii_bsp.a(tcp_usr.o)
                              ../hit_pat_bsp\libucosii_bsp.a(nptcp.o) (tcp_usrreq)
../hit_pat_bsp\libucosii_bsp.a(tcpport.o)
                              ../hit_pat_bsp\libucosii_bsp.a(ipstart.o) (tcpinit)
../hit_pat_bsp\libucosii_bsp.a(udpsock.o)
                              ../hit_pat_bsp\libucosii_bsp.a(nptcp.o) (udp_usrreq)
../hit_pat_bsp\libucosii_bsp.a(alt_busy_sleep.o)
                              ../hit_pat_bsp\libucosii_bsp.a(altera_generic_quad_spi_controller.o) (alt_busy_sleep)
../hit_pat_bsp\libucosii_bsp.a(alt_close.o)
                              ../hit_pat_bsp\libucosii_bsp.a(alt_iniche_close.o) (alt_close)
../hit_pat_bsp\libucosii_bsp.a(alt_dcache_flush.o)
                              ../hit_pat_bsp\libucosii_bsp.a(altera_avalon_tse.o) (alt_dcache_flush)
../hit_pat_bsp\libucosii_bsp.a(alt_dev.o)
                              ../hit_pat_bsp\libucosii_bsp.a(alt_sys_init.o) (alt_dev_list)
../hit_pat_bsp\libucosii_bsp.a(alt_dev_llist_insert.o)
                              ../hit_pat_bsp\libucosii_bsp.a(alt_sys_init.o) (alt_dev_llist_insert)
../hit_pat_bsp\libucosii_bsp.a(alt_do_ctors.o)
                              ../hit_pat_bsp\libucosii_bsp.a(alt_main.o) (_do_ctors)
../hit_pat_bsp\libucosii_bsp.a(alt_do_dtors.o)
                              ../hit_pat_bsp\libucosii_bsp.a(alt_main.o) (_do_dtors)
../hit_pat_bsp\libucosii_bsp.a(alt_errno.o)
                              ../hit_pat_bsp\libucosii_bsp.a(alt_fstat.o) (alt_errno)
../hit_pat_bsp\libucosii_bsp.a(alt_find_dev.o)
                              ../hit_pat_bsp\libucosii_bsp.a(alt_flash_dev.o) (alt_find_dev)
../hit_pat_bsp\libucosii_bsp.a(alt_iic.o)
                              ../hit_pat_bsp\libucosii_bsp.a(altera_avalon_timer_sc.o) (alt_ic_isr_register)
../hit_pat_bsp\libucosii_bsp.a(alt_iic_isr_register.o)
                              ../hit_pat_bsp\libucosii_bsp.a(alt_iic.o) (alt_iic_isr_register)
../hit_pat_bsp\libucosii_bsp.a(alt_io_redirect.o)
                              ../hit_pat_bsp\libucosii_bsp.a(alt_main.o) (alt_io_redirect)
../hit_pat_bsp\libucosii_bsp.a(alt_irq_entry.o)
                              ../hit_pat_bsp\libucosii_bsp.a(alt_iic_isr_register.o) (alt_irq_entry)
../hit_pat_bsp\libucosii_bsp.a(alt_irq_handler.o)
                              ../hit_pat_bsp\libucosii_bsp.a(alt_iic_isr_register.o) (alt_irq)
../hit_pat_bsp\libucosii_bsp.a(alt_irq_vars.o)
                              ../hit_pat_bsp\libucosii_bsp.a(alt_iic.o) (alt_irq_active)
../hit_pat_bsp\libucosii_bsp.a(alt_open.o)
                              ../hit_pat_bsp\libucosii_bsp.a(alt_io_redirect.o) (open)
../hit_pat_bsp\libucosii_bsp.a(alt_printf.o)
                              ../hit_pat_bsp\libucosii_bsp.a(altera_msgdma.o) (alt_printf)
../hit_pat_bsp\libucosii_bsp.a(alt_putchar.o)
                              ../hit_pat_bsp\libucosii_bsp.a(alt_printf.o) (alt_putchar)
../hit_pat_bsp\libucosii_bsp.a(alt_read.o)
                              ../hit_pat_bsp\libucosii_bsp.a(alt_iniche_read.o) (alt_read)
../hit_pat_bsp\libucosii_bsp.a(alt_release_fd.o)
                              ../hit_pat_bsp\libucosii_bsp.a(alt_close.o) (alt_release_fd)
../hit_pat_bsp\libucosii_bsp.a(alt_remap_cached.o)
                              ../hit_pat_bsp\libucosii_bsp.a(ins_tse_mac.o) (alt_remap_cached)
../hit_pat_bsp\libucosii_bsp.a(alt_tick.o)
                              ../hit_pat_bsp\libucosii_bsp.a(altera_avalon_timer_sc.o) (_alt_tick_rate)
../hit_pat_bsp\libucosii_bsp.a(alt_uncached_free.o)
                              ../hit_pat_bsp\libucosii_bsp.a(targnios.o) (alt_uncached_free)
../hit_pat_bsp\libucosii_bsp.a(alt_uncached_malloc.o)
                              ../hit_pat_bsp\libucosii_bsp.a(ins_tse_mac.o) (alt_uncached_malloc)
../hit_pat_bsp\libucosii_bsp.a(alt_usleep.o)
                              ../hit_pat_bsp\libucosii_bsp.a(altera_avalon_tse.o) (usleep)
../hit_pat_bsp\libucosii_bsp.a(alt_write.o)
                              ../hit_pat_bsp\libucosii_bsp.a(alt_iniche_write.o) (alt_write)
../hit_pat_bsp\libucosii_bsp.a(altera_nios2_gen2_irq.o)
                              ../hit_pat_bsp\libucosii_bsp.a(alt_sys_init.o) (altera_nios2_gen2_irq_init)
../hit_pat_bsp\libucosii_bsp.a(os_cpu_a.o)
                              ../hit_pat_bsp\libucosii_bsp.a(os_core.o) (OSIntCtxSw)
../hit_pat_bsp\libucosii_bsp.a(os_cpu_c.o)
                              ../hit_pat_bsp\libucosii_bsp.a(os_task.o) (OSTaskStkInit)
../hit_pat_bsp\libucosii_bsp.a(allports.o)
                              ../hit_pat_bsp\libucosii_bsp.a(netmain.o) (netmain_init)
../hit_pat_bsp\libucosii_bsp.a(timeouts.o)
                              ../hit_pat_bsp\libucosii_bsp.a(netmain.o) (inet_timer)
../hit_pat_bsp\libucosii_bsp.a(tk_misc.o)
                              ../hit_pat_bsp\libucosii_bsp.a(netmain.o) (create_apptasks)
../hit_pat_bsp\libucosii_bsp.a(alt_iniche_fcntl.o)
                              ../hit_pat_bsp\libucosii_bsp.a(brdutils.o) (fcntl)
../hit_pat_bsp\libucosii_bsp.a(icmp.o)
                              ../hit_pat_bsp\libucosii_bsp.a(ping.o) (icmp_mib)
../hit_pat_bsp\libucosii_bsp.a(ip.o)
                              ../hit_pat_bsp\libucosii_bsp.a(igmp_cmn.o) (ip_mib)
../hit_pat_bsp\libucosii_bsp.a(ipdemux.o)
                              ../hit_pat_bsp\libucosii_bsp.a(ipnet.o) (ip_rcv)
../hit_pat_bsp\libucosii_bsp.a(ipmc.o)
                              ../hit_pat_bsp\libucosii_bsp.a(ipstart.o) (in_addmulti)
../hit_pat_bsp\libucosii_bsp.a(ipport.o)
                              ../hit_pat_bsp\libucosii_bsp.a(targnios.o) (port_prep)
../hit_pat_bsp\libucosii_bsp.a(ipraw.o)
                              ../hit_pat_bsp\libucosii_bsp.a(rawsock.o) (ipraw_eps)
../hit_pat_bsp\libucosii_bsp.a(iproute.o)
                              ../hit_pat_bsp\libucosii_bsp.a(ip.o) (cachedRoute)
../hit_pat_bsp\libucosii_bsp.a(udp.o)
                              ../hit_pat_bsp\libucosii_bsp.a(ipdemux.o) (udpdemux)
../hit_pat_bsp\libucosii_bsp.a(igmp.o)
                              ../hit_pat_bsp\libucosii_bsp.a(igmp_cmn.o) (igmpv1_input)
../hit_pat_bsp\libucosii_bsp.a(igmp2.o)
                              ../hit_pat_bsp\libucosii_bsp.a(igmp_cmn.o) (igmpv2_input)
../hit_pat_bsp\libucosii_bsp.a(ipopt.o)
                              ../hit_pat_bsp\libucosii_bsp.a(socket.o) (ip_setmoptions)
../hit_pat_bsp\libucosii_bsp.a(u_mctest.o)
                              ../hit_pat_bsp\libucosii_bsp.a(allports.o) (u_mctest_init)
../hit_pat_bsp\libucosii_bsp.a(memdev.o)
                              ../hit_pat_bsp\libucosii_bsp.a(allports.o) (init_memdev)
../hit_pat_bsp\libucosii_bsp.a(parseip.o)
                              ../hit_pat_bsp\libucosii_bsp.a(u_mctest.o) (inet_addr)
../hit_pat_bsp\libucosii_bsp.a(tcpcksum.o)
                              ../hit_pat_bsp\libucosii_bsp.a(nptcp.o) (tcp_cksum)
../hit_pat_bsp\libucosii_bsp.a(udp_open.o)
                              ../hit_pat_bsp\libucosii_bsp.a(nptcp.o) (firstudp)
../hit_pat_bsp\libucosii_bsp.a(in_pcb.o)
                              ../hit_pat_bsp\libucosii_bsp.a(tcp_usr.o) (in_pcballoc)
../hit_pat_bsp\libucosii_bsp.a(vfsfiles.o)
                              ../hit_pat_bsp\libucosii_bsp.a(memdev.o) (vfsystems)
../hit_pat_bsp\libucosii_bsp.a(vfsport.o)
                              ../hit_pat_bsp\libucosii_bsp.a(allports.o) (prep_vfs)
../hit_pat_bsp\libucosii_bsp.a(alt_exception_entry.o)
                              ../hit_pat_bsp\libucosii_bsp.a(alt_irq_entry.o) (alt_exception)
../hit_pat_bsp\libucosii_bsp.a(alt_fcntl.o)
                              ../hit_pat_bsp\libucosii_bsp.a(alt_iniche_fcntl.o) (alt_fcntl)
../hit_pat_bsp\libucosii_bsp.a(alt_find_file.o)
                              ../hit_pat_bsp\libucosii_bsp.a(alt_open.o) (alt_find_file)
../hit_pat_bsp\libucosii_bsp.a(alt_get_fd.o)
                              ../hit_pat_bsp\libucosii_bsp.a(alt_open.o) (alt_get_fd)
../hit_pat_bsp\libucosii_bsp.a(alt_instruction_exception_entry.o)
                              ../hit_pat_bsp\libucosii_bsp.a(alt_exception_entry.o) (alt_instruction_exception_entry)
c:/intelfpga_lite/19.1/nios2eds/bin/gnu/h-x86_64-mingw32/bin/../lib/gcc/nios2-elf/8.3.1/../../../../../H-x86_64-mingw32/nios2-elf/lib\libc.a(lib_a-atexit.o)
                              ../hit_pat_bsp\libucosii_bsp.a(alt_main.o) (atexit)
c:/intelfpga_lite/19.1/nios2eds/bin/gnu/h-x86_64-mingw32/bin/../lib/gcc/nios2-elf/8.3.1/../../../../../H-x86_64-mingw32/nios2-elf/lib\libc.a(lib_a-atoi.o)
                              ../hit_pat_bsp\libucosii_bsp.a(parseip.o) (atoi)
c:/intelfpga_lite/19.1/nios2eds/bin/gnu/h-x86_64-mingw32/bin/../lib/gcc/nios2-elf/8.3.1/../../../../../H-x86_64-mingw32/nios2-elf/lib\libc.a(lib_a-exit.o)
                              ../hit_pat_bsp\libucosii_bsp.a(alt_main.o) (exit)
c:/intelfpga_lite/19.1/nios2eds/bin/gnu/h-x86_64-mingw32/bin/../lib/gcc/nios2-elf/8.3.1/../../../../../H-x86_64-mingw32/nios2-elf/lib\libc.a(lib_a-malign.o)
                              ../hit_pat_bsp\libucosii_bsp.a(alt_uncached_malloc.o) (memalign)
c:/intelfpga_lite/19.1/nios2eds/bin/gnu/h-x86_64-mingw32/bin/../lib/gcc/nios2-elf/8.3.1/../../../../../H-x86_64-mingw32/nios2-elf/lib\libc.a(lib_a-malignr.o)
                              c:/intelfpga_lite/19.1/nios2eds/bin/gnu/h-x86_64-mingw32/bin/../lib/gcc/nios2-elf/8.3.1/../../../../../H-x86_64-mingw32/nios2-elf/lib\libc.a(lib_a-malign.o) (_memalign_r)
c:/intelfpga_lite/19.1/nios2eds/bin/gnu/h-x86_64-mingw32/bin/../lib/gcc/nios2-elf/8.3.1/../../../../../H-x86_64-mingw32/nios2-elf/lib\libc.a(lib_a-malloc.o)
                              ../hit_pat_bsp\libucosii_bsp.a(altera_avalon_tse.o) (malloc)
c:/intelfpga_lite/19.1/nios2eds/bin/gnu/h-x86_64-mingw32/bin/../lib/gcc/nios2-elf/8.3.1/../../../../../H-x86_64-mingw32/nios2-elf/lib\libc.a(lib_a-memcmp.o)
                              ../hit_pat_bsp\libucosii_bsp.a(altera_onchip_flash.o) (memcmp)
c:/intelfpga_lite/19.1/nios2eds/bin/gnu/h-x86_64-mingw32/bin/../lib/gcc/nios2-elf/8.3.1/../../../../../H-x86_64-mingw32/nios2-elf/lib\libc.a(lib_a-sprintf.o)
                              ../hit_pat_bsp\libucosii_bsp.a(in_utils.o) (sprintf)
c:/intelfpga_lite/19.1/nios2eds/bin/gnu/h-x86_64-mingw32/bin/../lib/gcc/nios2-elf/8.3.1/../../../../../H-x86_64-mingw32/nios2-elf/lib\libc.a(lib_a-strchr.o)
                              ../hit_pat_bsp\libucosii_bsp.a(vfsfiles.o) (strchr)
c:/intelfpga_lite/19.1/nios2eds/bin/gnu/h-x86_64-mingw32/bin/../lib/gcc/nios2-elf/8.3.1/../../../../../H-x86_64-mingw32/nios2-elf/lib\libc.a(lib_a-strcpy.o)
                              ../hit_pat_bsp\libucosii_bsp.a(altera_avalon_tse.o) (strcpy)
c:/intelfpga_lite/19.1/nios2eds/bin/gnu/h-x86_64-mingw32/bin/../lib/gcc/nios2-elf/8.3.1/../../../../../H-x86_64-mingw32/nios2-elf/lib\libc.a(lib_a-strncmp.o)
                              ../hit_pat_bsp\libucosii_bsp.a(vfsfiles.o) (strncmp)
c:/intelfpga_lite/19.1/nios2eds/bin/gnu/h-x86_64-mingw32/bin/../lib/gcc/nios2-elf/8.3.1/../../../../../H-x86_64-mingw32/nios2-elf/lib\libc.a(lib_a-strtol.o)
                              c:/intelfpga_lite/19.1/nios2eds/bin/gnu/h-x86_64-mingw32/bin/../lib/gcc/nios2-elf/8.3.1/../../../../../H-x86_64-mingw32/nios2-elf/lib\libc.a(lib_a-atoi.o) (_strtol_r)
c:/intelfpga_lite/19.1/nios2eds/bin/gnu/h-x86_64-mingw32/bin/../lib/gcc/nios2-elf/8.3.1/../../../../../H-x86_64-mingw32/nios2-elf/lib\libc.a(lib_a-svfprintf.o)
                              c:/intelfpga_lite/19.1/nios2eds/bin/gnu/h-x86_64-mingw32/bin/../lib/gcc/nios2-elf/8.3.1/../../../../../H-x86_64-mingw32/nios2-elf/lib\libc.a(lib_a-sprintf.o) (___svfprintf_internal_r)
c:/intelfpga_lite/19.1/nios2eds/bin/gnu/h-x86_64-mingw32/bin/../lib/gcc/nios2-elf/8.3.1/../../../../../H-x86_64-mingw32/nios2-elf/lib\libc.a(lib_a-vprintf.o)
                              ../hit_pat_bsp\libucosii_bsp.a(in_utils.o) (vprintf)
c:/intelfpga_lite/19.1/nios2eds/bin/gnu/h-x86_64-mingw32/bin/../lib/gcc/nios2-elf/8.3.1/../../../../../H-x86_64-mingw32/nios2-elf/lib\libc.a(lib_a-vsprintf.o)
                              ../hit_pat_bsp\libucosii_bsp.a(in_utils.o) (vsprintf)
c:/intelfpga_lite/19.1/nios2eds/bin/gnu/h-x86_64-mingw32/bin/../lib/gcc/nios2-elf/8.3.1/../../../../../H-x86_64-mingw32/nios2-elf/lib\libc.a(lib_a-__atexit.o)
                              c:/intelfpga_lite/19.1/nios2eds/bin/gnu/h-x86_64-mingw32/bin/../lib/gcc/nios2-elf/8.3.1/../../../../../H-x86_64-mingw32/nios2-elf/lib\libc.a(lib_a-atexit.o) (__register_exitproc)
c:/intelfpga_lite/19.1/nios2eds/bin/gnu/h-x86_64-mingw32/bin/../lib/gcc/nios2-elf/8.3.1/../../../../../H-x86_64-mingw32/nios2-elf/lib\libc.a(lib_a-__call_atexit.o)
                              c:/intelfpga_lite/19.1/nios2eds/bin/gnu/h-x86_64-mingw32/bin/../lib/gcc/nios2-elf/8.3.1/../../../../../H-x86_64-mingw32/nios2-elf/lib\libc.a(lib_a-exit.o) (__call_exitprocs)
c:/intelfpga_lite/19.1/nios2eds/bin/gnu/h-x86_64-mingw32/bin/../lib/gcc/nios2-elf/8.3.1/../../../../../H-x86_64-mingw32/nios2-elf/lib\libc.a(lib_a-svfiprintf.o)
                              c:/intelfpga_lite/19.1/nios2eds/bin/gnu/h-x86_64-mingw32/bin/../lib/gcc/nios2-elf/8.3.1/../../../../../H-x86_64-mingw32/nios2-elf/lib\libc.a(lib_a-svfprintf.o) (__ssprint_r)
c:/intelfpga_lite/19.1/nios2eds/bin/gnu/h-x86_64-mingw32/bin/../lib/gcc/nios2-elf/8.3.1/../../../../../H-x86_64-mingw32/nios2-elf/lib\libc.a(lib_a-vfprintfr_1.o)
                              c:/intelfpga_lite/19.1/nios2eds/bin/gnu/h-x86_64-mingw32/bin/../lib/gcc/nios2-elf/8.3.1/../../../../../H-x86_64-mingw32/nios2-elf/lib\libc.a(lib_a-vprintf.o) (_vfprintf_r)
../hit_pat_bsp\libucosii_bsp.a(alt_exit.o)
                              c:/intelfpga_lite/19.1/nios2eds/bin/gnu/h-x86_64-mingw32/bin/../lib/gcc/nios2-elf/8.3.1/../../../../../H-x86_64-mingw32/nios2-elf/lib\libc.a(lib_a-exit.o) (_exit)

Allocating common symbols
Common symbol       size              file

soq                 0x14              ../hit_pat_bsp\libucosii_bsp.a(nptcp.o)
to_sslistenertask   0x1               obj/default/src/socket_server.o
alt_irq             0x100             ../hit_pat_bsp\libucosii_bsp.a(alt_irq_handler.o)
tcp_optionbuf       0x4               ../hit_pat_bsp\libucosii_bsp.a(tcp_out.o)
last_flash_sector_offset
                    0x4               obj/default/src/network_utilities.o
rt_mib              0x4               ../hit_pat_bsp\libucosii_bsp.a(ip.o)
InitialTaskStk      0xe000            obj/default/src/main.o
so_evtmap_create    0x4               ../hit_pat_bsp\libucosii_bsp.a(ipport.o)
eth_tse_if          0xe0              ../hit_pat_bsp\libucosii_bsp.a(alt_sys_init.o)
OSLockNesting       0x1               ../hit_pat_bsp\libucosii_bsp.a(os_core.o)
tcb                 0x2c              ../hit_pat_bsp\libucosii_bsp.a(tcp_subr.o)
OSRunning           0x1               ../hit_pat_bsp\libucosii_bsp.a(os_core.o)
tcpstat             0xe0              ../hit_pat_bsp\libucosii_bsp.a(tcp_subr.o)
OSIdleCtr           0x4               ../hit_pat_bsp\libucosii_bsp.a(os_core.o)
udp_mib             0x10              ../hit_pat_bsp\libucosii_bsp.a(udp.o)
to_netmain          0x1               ../hit_pat_bsp\libucosii_bsp.a(netmain.o)
OSPrioHighRdy       0x1               ../hit_pat_bsp\libucosii_bsp.a(os_core.o)
errno               0x4               c:/intelfpga_lite/19.1/nios2eds/bin/gnu/h-x86_64-mingw32/bin/../lib/gcc/nios2-elf/8.3.1/../../../../../H-x86_64-mingw32/nios2-elf/lib\libc.a(lib_a-int_errno.o)
lilfreeq            0x14              ../hit_pat_bsp\libucosii_bsp.a(pktalloc.o)
icmp_mib            0x68              ../hit_pat_bsp\libucosii_bsp.a(icmp.o)
mastermode          0x1               obj/default/src/utils.o
pmac_groups         0x10              ../hit_pat_bsp\libucosii_bsp.a(altera_avalon_tse.o)
resid_semaphore     0x40              ../hit_pat_bsp\libucosii_bsp.a(targnios.o)
alt_heapsem         0x4               ../hit_pat_bsp\libucosii_bsp.a(alt_malloc_lock.o)
OSFlagTbl           0x370             ../hit_pat_bsp\libucosii_bsp.a(os_core.o)
mbstat              0x8               ../hit_pat_bsp\libucosii_bsp.a(nptcp.o)
netq_intmask        0x4               ../hit_pat_bsp\libucosii_bsp.a(osportco.o)
select_wait         0x2               ../hit_pat_bsp\libucosii_bsp.a(nptcp.o)
tse_iniche_dev_driver_data
                    0x30              ../hit_pat_bsp\libucosii_bsp.a(ins_tse_mac.o)
tcpmib              0x3c              ../hit_pat_bsp\libucosii_bsp.a(nptcp.o)
OSPrioCur           0x1               ../hit_pat_bsp\libucosii_bsp.a(os_core.o)
tse                 0x290             ../hit_pat_bsp\libucosii_bsp.a(ins_tse_mac.o)
delays              0x4               obj/default/src/utils.o
mheap_sem_ptr       0x4               ../hit_pat_bsp\libucosii_bsp.a(targnios.o)
netlist             0x14              ../hit_pat_bsp\libucosii_bsp.a(iface.o)
mbufq               0x14              ../hit_pat_bsp\libucosii_bsp.a(nptcp.o)
OSTCBList           0x4               ../hit_pat_bsp\libucosii_bsp.a(os_core.o)
alt_fd_list_lock    0x4               ../hit_pat_bsp\libucosii_bsp.a(alt_dev.o)
OSMemTbl            0xc30             ../hit_pat_bsp\libucosii_bsp.a(os_core.o)
OSCtxSwCtr          0x4               ../hit_pat_bsp\libucosii_bsp.a(os_core.o)
igmpstats           0x64              ../hit_pat_bsp\libucosii_bsp.a(igmp_cmn.o)
old_mode            0x4               ../hit_pat_bsp\libucosii_bsp.a(osportco.o)
vfs_dir_stale       0x4               ../hit_pat_bsp\libucosii_bsp.a(vfsfiles.o)
pphy_profiles       0x20              ../hit_pat_bsp\libucosii_bsp.a(altera_avalon_tse.o)
cticks_factor       0x4               ../hit_pat_bsp\libucosii_bsp.a(brdutils.o)
memestats           0x10              ../hit_pat_bsp\libucosii_bsp.a(pktalloc.o)
intimers            0x64              ../hit_pat_bsp\libucosii_bsp.a(timeouts.o)
OSTCBFreeList       0x4               ../hit_pat_bsp\libucosii_bsp.a(os_core.o)
global_TCPwakeup_setIndx
                    0x4               ../hit_pat_bsp\libucosii_bsp.a(osportco.o)
rcvdq               0x14              ../hit_pat_bsp\libucosii_bsp.a(ipnet.o)
global_tcb_ext      0xfc              ../hit_pat_bsp\libucosii_bsp.a(osportco.o)
netstatic           0x300             ../hit_pat_bsp\libucosii_bsp.a(ipstart.o)
tcp_maxidle         0x4               ../hit_pat_bsp\libucosii_bsp.a(tcp_timr.o)
nets                0x10              ../hit_pat_bsp\libucosii_bsp.a(ipstart.o)
pktlog              0xf0              ../hit_pat_bsp\libucosii_bsp.a(pktalloc.o)
OSTaskCtr           0x1               ../hit_pat_bsp\libucosii_bsp.a(os_core.o)
OSMemFreeList       0x4               ../hit_pat_bsp\libucosii_bsp.a(os_core.o)
vfs_open_files      0x4               ../hit_pat_bsp\libucosii_bsp.a(vfsfiles.o)
cticks              0x4               ../hit_pat_bsp\libucosii_bsp.a(osportco.o)
to_nettick          0x1               ../hit_pat_bsp\libucosii_bsp.a(netmain.o)
last_flash_sector   0x4               obj/default/src/network_utilities.o
OSQTbl              0x1e0             ../hit_pat_bsp\libucosii_bsp.a(os_core.o)
OSTCBHighRdy        0x4               ../hit_pat_bsp\libucosii_bsp.a(os_core.o)
OSQFreeList         0x4               ../hit_pat_bsp\libucosii_bsp.a(os_core.o)
OSRdyGrp            0x1               ../hit_pat_bsp\libucosii_bsp.a(os_core.o)
ip_mib              0x50              ../hit_pat_bsp\libucosii_bsp.a(ip.o)
OS_TPS              0x4               ../hit_pat_bsp\libucosii_bsp.a(brdutils.o)
OSRdyTbl            0x3               ../hit_pat_bsp\libucosii_bsp.a(os_core.o)
igmp_all_hosts_group
                    0x4               ../hit_pat_bsp\libucosii_bsp.a(igmp_cmn.o)
eth_prt_buf         0x12              ../hit_pat_bsp\libucosii_bsp.a(in_utils.o)
app_semaphore       0x18              ../hit_pat_bsp\libucosii_bsp.a(targnios.o)
rcvdq_sem_ptr       0x4               ../hit_pat_bsp\libucosii_bsp.a(targnios.o)
OSEventFreeList     0x4               ../hit_pat_bsp\libucosii_bsp.a(os_core.o)
mfreeq              0x14              ../hit_pat_bsp\libucosii_bsp.a(nptcp.o)
global_TCPwakeup_set
                    0xf0              ../hit_pat_bsp\libucosii_bsp.a(osportco.o)
bigfreeq            0x14              ../hit_pat_bsp\libucosii_bsp.a(pktalloc.o)
so_evtmap_delete    0x4               ../hit_pat_bsp\libucosii_bsp.a(ipport.o)
tcp_saveti          0x28              ../hit_pat_bsp\libucosii_bsp.a(tcp_in.o)
OSIntNesting        0x1               ../hit_pat_bsp\libucosii_bsp.a(os_core.o)
so_evtmap           0x1               ../hit_pat_bsp\libucosii_bsp.a(ipport.o)
OSTCBCur            0x4               ../hit_pat_bsp\libucosii_bsp.a(os_core.o)
arp_table           0x100             ../hit_pat_bsp\libucosii_bsp.a(et_arp.o)
tcp_iss             0x4               ../hit_pat_bsp\libucosii_bsp.a(tcp_timr.o)
vfs_total_rw_space  0x4               ../hit_pat_bsp\libucosii_bsp.a(vfsfiles.o)
OSTime              0x4               ../hit_pat_bsp\libucosii_bsp.a(os_core.o)
OSTaskIdleStk       0x800             ../hit_pat_bsp\libucosii_bsp.a(os_core.o)
OSEventTbl          0xb40             ../hit_pat_bsp\libucosii_bsp.a(os_core.o)
vfs_total_dyna_files
                    0x4               ../hit_pat_bsp\libucosii_bsp.a(vfsfiles.o)
OSTCBTbl            0x288             ../hit_pat_bsp\libucosii_bsp.a(os_core.o)
to_controltask      0x1               obj/default/src/control.o
ipreturn            0x12              ../hit_pat_bsp\libucosii_bsp.a(in_utils.o)
OSFlagFreeList      0x4               ../hit_pat_bsp\libucosii_bsp.a(os_core.o)
dropline            0x4               ../hit_pat_bsp\libucosii_bsp.a(tcp_in.o)
OSTCBPrioTbl        0x54              ../hit_pat_bsp\libucosii_bsp.a(os_core.o)
igmp_all_rtrs_group
                    0x4               ../hit_pat_bsp\libucosii_bsp.a(igmp_cmn.o)
alt_envsem          0x4               ../hit_pat_bsp\libucosii_bsp.a(alt_env_lock.o)

Memory Configuration

Name             Origin             Length             Attributes
ddr3_ram_BEFORE_EXCEPTION 0x0000000008000000 0x0000000000000120
ddr3_ram         0x0000000008000120 0x0000000007fffee0
reset            0x0000000014000000 0x0000000000000020
ext_flash_avl_mem 0x0000000014000020 0x0000000003ffffe0
onchip_flash_data 0x0000000018200000 0x0000000000160000
descriptor_memory 0x0000000018400000 0x0000000000002000
calibration_ram  0x0000000018403400 0x0000000000000280
*default*        0x0000000000000000 0xffffffffffffffff

Linker script and memory map

LOAD d:/hit20v3/software/hit_pat/software/hit_pat_bsp//obj/HAL/src/crt0.o
LOAD obj/default/src/control.o
LOAD obj/default/src/main.o
LOAD obj/default/src/network_utilities.o
LOAD obj/default/src/sensor.o
LOAD obj/default/src/socket_server.o
LOAD obj/default/src/tse_my_system.o
LOAD obj/default/src/udpgen.o
LOAD obj/default/src/utils.o
LOAD c:/intelfpga_lite/19.1/nios2eds/bin/gnu/h-x86_64-mingw32/bin/../lib/gcc/nios2-elf/8.3.1/../../../../../H-x86_64-mingw32/nios2-elf/lib\libm.a
LOAD c:/intelfpga_lite/19.1/nios2eds/bin/gnu/h-x86_64-mingw32/bin/../lib/gcc/nios2-elf/8.3.1/../../../../../H-x86_64-mingw32/nios2-elf/lib\libstdc++.a
LOAD c:/intelfpga_lite/19.1/nios2eds/bin/gnu/h-x86_64-mingw32/bin/../lib/gcc/nios2-elf/8.3.1/../../../../../H-x86_64-mingw32/nios2-elf/lib\libm.a
LOAD c:/intelfpga_lite/19.1/nios2eds/bin/gnu/h-x86_64-mingw32/bin/../lib/gcc/nios2-elf/8.3.1\libgcc.a
START GROUP
LOAD c:/intelfpga_lite/19.1/nios2eds/bin/gnu/h-x86_64-mingw32/bin/../lib/gcc/nios2-elf/8.3.1/../../../../../H-x86_64-mingw32/nios2-elf/lib\libc.a
LOAD c:/intelfpga_lite/19.1/nios2eds/bin/gnu/h-x86_64-mingw32/bin/../lib/gcc/nios2-elf/8.3.1\libgcc.a
LOAD ../hit_pat_bsp\libucosii_bsp.a
LOAD c:/intelfpga_lite/19.1/nios2eds/bin/gnu/h-x86_64-mingw32/bin/../lib/gcc/nios2-elf/8.3.1/../../../../../H-x86_64-mingw32/nios2-elf/lib\libm.a
END GROUP
LOAD c:/intelfpga_lite/19.1/nios2eds/bin/gnu/h-x86_64-mingw32/bin/../lib/gcc/nios2-elf/8.3.1\libgcc.a
                0x0000000008000000                __alt_mem_ddr3_ram = 0x8000000
                0x0000000014000000                __alt_mem_ext_flash_avl_mem = 0x14000000
                0x0000000018200000                __alt_mem_onchip_flash_data = 0x18200000
                0x0000000018400000                __alt_mem_descriptor_memory = 0x18400000
                0x0000000018403400                __alt_mem_calibration_ram = 0x18403400

.entry          0x0000000014000000       0x20
 *(.entry)
 .entry         0x0000000014000000       0x20 d:/hit20v3/software/hit_pat/software/hit_pat_bsp//obj/HAL/src/crt0.o
                0x0000000014000000                __reset

.exceptions     0x0000000008000120      0x218
                [!provide]                        PROVIDE (__ram_exceptions_start = ABSOLUTE (.))
                0x0000000008000120                . = ALIGN (0x20)
 *(.irq)
 *(.exceptions.entry.label)
 .exceptions.entry.label
                0x0000000008000120        0x0 ../hit_pat_bsp\libucosii_bsp.a(alt_irq_entry.o)
                0x0000000008000120                alt_irq_entry
 .exceptions.entry.label
                0x0000000008000120        0x0 ../hit_pat_bsp\libucosii_bsp.a(alt_exception_entry.o)
                0x0000000008000120                alt_exception
 *(.exceptions.entry.user)
 *(.exceptions.entry.ecc_fatal)
 *(.exceptions.entry)
 .exceptions.entry
                0x0000000008000120       0x54 ../hit_pat_bsp\libucosii_bsp.a(alt_exception_entry.o)
 *(.exceptions.irqtest.user)
 *(.exceptions.irqtest)
 .exceptions.irqtest
                0x0000000008000174       0x10 ../hit_pat_bsp\libucosii_bsp.a(alt_irq_entry.o)
 *(.exceptions.irqhandler.user)
 *(.exceptions.irqhandler)
 .exceptions.irqhandler
                0x0000000008000184        0x4 ../hit_pat_bsp\libucosii_bsp.a(alt_irq_entry.o)
 *(.exceptions.irqreturn.user)
 *(.exceptions.irqreturn)
 .exceptions.irqreturn
                0x0000000008000188        0x4 ../hit_pat_bsp\libucosii_bsp.a(alt_irq_entry.o)
 *(.exceptions.notirq.label)
 .exceptions.notirq.label
                0x000000000800018c        0x0 ../hit_pat_bsp\libucosii_bsp.a(alt_irq_entry.o)
 *(.exceptions.notirq.user)
 *(.exceptions.notirq)
 .exceptions.notirq
                0x000000000800018c        0x8 ../hit_pat_bsp\libucosii_bsp.a(alt_exception_entry.o)
 *(.exceptions.soft.user)
 *(.exceptions.soft)
 *(.exceptions.unknown.user)
 *(.exceptions.unknown)
 .exceptions.unknown
                0x0000000008000194       0x14 ../hit_pat_bsp\libucosii_bsp.a(alt_exception_entry.o)
 *(.exceptions.exit.label)
 .exceptions.exit.label
                0x00000000080001a8        0x0 ../hit_pat_bsp\libucosii_bsp.a(alt_irq_entry.o)
 .exceptions.exit.label
                0x00000000080001a8        0x0 ../hit_pat_bsp\libucosii_bsp.a(alt_exception_entry.o)
 *(.exceptions.exit.user)
 *(.exceptions.exit)
 .exceptions.exit
                0x00000000080001a8       0x54 ../hit_pat_bsp\libucosii_bsp.a(alt_exception_entry.o)
 *(.exceptions)
 .exceptions    0x00000000080001fc       0xc8 ../hit_pat_bsp\libucosii_bsp.a(alt_irq_handler.o)
                0x00000000080001fc                alt_irq_handler
 .exceptions    0x00000000080002c4       0x74 ../hit_pat_bsp\libucosii_bsp.a(alt_instruction_exception_entry.o)
                0x00000000080002c4                alt_instruction_exception_entry
                [!provide]                        PROVIDE (__ram_exceptions_end = ABSOLUTE (.))
                [!provide]                        PROVIDE (__flash_exceptions_start = LOADADDR (.exceptions))

.text           0x0000000008000338    0x46670
                [!provide]                        PROVIDE (stext = ABSOLUTE (.))
 *(.interp)
 *(.hash)
 *(.dynsym)
 *(.dynstr)
 *(.gnu.version)
 *(.gnu.version_d)
 *(.gnu.version_r)
 *(.rel.init)
 *(.rela.init)
 *(.rel.text .rel.text.* .rel.gnu.linkonce.t.*)
 *(.rela.text .rela.text.* .rela.gnu.linkonce.t.*)
 *(.rel.fini)
 *(.rela.fini)
 *(.rel.rodata .rel.rodata.* .rel.gnu.linkonce.r.*)
 *(.rela.rodata .rela.rodata.* .rela.gnu.linkonce.r.*)
 *(.rel.data .rel.data.* .rel.gnu.linkonce.d.*)
 *(.rela.data .rela.data.* .rela.gnu.linkonce.d.*)
 *(.rel.tdata .rel.tdata.* .rel.gnu.linkonce.td.*)
 *(.rela.tdata .rela.tdata.* .rela.gnu.linkonce.td.*)
 *(.rel.tbss .rel.tbss.* .rel.gnu.linkonce.tb.*)
 *(.rela.tbss .rela.tbss.* .rela.gnu.linkonce.tb.*)
 *(.rel.ctors)
 *(.rela.ctors)
 *(.rel.dtors)
 *(.rela.dtors)
 *(.rel.got)
 *(.rela.got)
 *(.rel.sdata .rel.sdata.* .rel.gnu.linkonce.s.*)
 *(.rela.sdata .rela.sdata.* .rela.gnu.linkonce.s.*)
 *(.rel.sbss .rel.sbss.* .rel.gnu.linkonce.sb.*)
 *(.rela.sbss .rela.sbss.* .rela.gnu.linkonce.sb.*)
 *(.rel.sdata2 .rel.sdata2.* .rel.gnu.linkonce.s2.*)
 *(.rela.sdata2 .rela.sdata2.* .rela.gnu.linkonce.s2.*)
 *(.rel.sbss2 .rel.sbss2.* .rel.gnu.linkonce.sb2.*)
 *(.rela.sbss2 .rela.sbss2.* .rela.gnu.linkonce.sb2.*)
 *(.rel.bss .rel.bss.* .rel.gnu.linkonce.b.*)
 *(.rela.bss .rela.bss.* .rela.gnu.linkonce.b.*)
 *(.rel.plt)
 *(.rela.plt)
 *(.rel.dyn)
 *(.init)
 *(.plt)
 *(.text .stub .text.* .gnu.linkonce.t.*)
 .text          0x0000000008000338       0x48 d:/hit20v3/software/hit_pat/software/hit_pat_bsp//obj/HAL/src/crt0.o
                0x0000000008000338                _start
 .text          0x0000000008000380      0xda4 obj/default/src/control.o
                0x0000000008000380                control_delay
                0x00000000080003b0                control_pong
                0x0000000008000418                control_process_snapshot
                0x0000000008000478                check_arp
                0x00000000080004f8                control_process_config_peer
                0x000000000800080c                control_get_header
                0x00000000080008a4                control_get_data
                0x0000000008000950                control_step
                0x0000000008001064                ControlTask
                0x00000000080010f0                control_init
 .text          0x0000000008001124       0xc4 obj/default/src/main.o
                0x0000000008001124                InitialTask
                0x0000000008001178                main
 .text          0x00000000080011e8      0x998 obj/default/src/network_utilities.o
                0x00000000080011e8                get_mac_addr
                0x000000000800123c                get_ip_addr
                0x0000000008001434                get_serial_number
                0x00000000080015c8                generate_and_store_mac_addr
                0x0000000008001780                generate_mac_addr
                0x00000000080018b4                get_board_mac_addr
                0x0000000008001a54                FindLastFlashSectorOffset
 .text          0x0000000008001b80      0x19c obj/default/src/sensor.o
                0x0000000008001b80                sensor_command_bit
                0x0000000008001c08                sensor_preconfigure
 .text          0x0000000008001d1c      0x838 obj/default/src/socket_server.o
                0x0000000008001d1c                ss_reset_connection
                0x0000000008001d58                ss_initialize_connection
                0x0000000008001da8                ss_handle_accept
                0x0000000008001e90                SSListenerTask
                0x0000000008002050                ethernet_init
                0x00000000080020d0                ethernet_listen
                0x000000000800220c                ethernet_write
                0x0000000008002314                ethernet_read
                0x00000000080024cc                ethernet_close
 .text          0x0000000008002554        0x0 obj/default/src/tse_my_system.o
 .text          0x0000000008002554      0x254 obj/default/src/udpgen.o
                0x0000000008002554                udpgen_command_bit
                0x00000000080025dc                udpgen_test
 .text          0x00000000080027a8      0x488 obj/default/src/utils.o
                0x00000000080027a8                swap_bytes
                0x0000000008002840                swap_quad
                0x0000000008002904                reload_fpga
                0x0000000008002944                masterslave
                0x00000000080029cc                master_clock_period
                0x0000000008002a14                master_clock_enable
                0x0000000008002a70                led_set
                0x0000000008002abc                led_clear
                0x0000000008002b08                led_toggle
                0x0000000008002b7c                led4_blink_enable
                0x0000000008002bc8                set_delay
 .text          0x0000000008002c30        0x0 c:/intelfpga_lite/19.1/nios2eds/bin/gnu/h-x86_64-mingw32/bin/../lib/gcc/nios2-elf/8.3.1/../../../../../H-x86_64-mingw32/nios2-elf/lib\libc.a(lib_a-ctype_.o)
 .text          0x0000000008002c30        0x0 c:/intelfpga_lite/19.1/nios2eds/bin/gnu/h-x86_64-mingw32/bin/../lib/gcc/nios2-elf/8.3.1/../../../../../H-x86_64-mingw32/nios2-elf/lib\libc.a(lib_a-getchar.o)
 .text._getchar_r
                0x0000000008002c30        0x8 c:/intelfpga_lite/19.1/nios2eds/bin/gnu/h-x86_64-mingw32/bin/../lib/gcc/nios2-elf/8.3.1/../../../../../H-x86_64-mingw32/nios2-elf/lib\libc.a(lib_a-getchar.o)
                0x0000000008002c30                _getchar_r
 .text.getchar  0x0000000008002c38       0x10 c:/intelfpga_lite/19.1/nios2eds/bin/gnu/h-x86_64-mingw32/bin/../lib/gcc/nios2-elf/8.3.1/../../../../../H-x86_64-mingw32/nios2-elf/lib\libc.a(lib_a-getchar.o)
                0x0000000008002c38                getchar
 .text          0x0000000008002c48        0x0 c:/intelfpga_lite/19.1/nios2eds/bin/gnu/h-x86_64-mingw32/bin/../lib/gcc/nios2-elf/8.3.1/../../../../../H-x86_64-mingw32/nios2-elf/lib\libc.a(lib_a-impure.o)
 .text          0x0000000008002c48        0x0 c:/intelfpga_lite/19.1/nios2eds/bin/gnu/h-x86_64-mingw32/bin/../lib/gcc/nios2-elf/8.3.1/../../../../../H-x86_64-mingw32/nios2-elf/lib\libc.a(lib_a-printf.o)
 .text._printf_r
                0x0000000008002c48       0x30 c:/intelfpga_lite/19.1/nios2eds/bin/gnu/h-x86_64-mingw32/bin/../lib/gcc/nios2-elf/8.3.1/../../../../../H-x86_64-mingw32/nios2-elf/lib\libc.a(lib_a-printf.o)
                0x0000000008002c48                _printf_r
 .text.printf   0x0000000008002c78       0x38 c:/intelfpga_lite/19.1/nios2eds/bin/gnu/h-x86_64-mingw32/bin/../lib/gcc/nios2-elf/8.3.1/../../../../../H-x86_64-mingw32/nios2-elf/lib\libc.a(lib_a-printf.o)
                0x0000000008002c78                printf
 .text          0x0000000008002cb0        0x0 c:/intelfpga_lite/19.1/nios2eds/bin/gnu/h-x86_64-mingw32/bin/../lib/gcc/nios2-elf/8.3.1/../../../../../H-x86_64-mingw32/nios2-elf/lib\libc.a(lib_a-putchar.o)
 .text._putchar_r
                0x0000000008002cb0        0x8 c:/intelfpga_lite/19.1/nios2eds/bin/gnu/h-x86_64-mingw32/bin/../lib/gcc/nios2-elf/8.3.1/../../../../../H-x86_64-mingw32/nios2-elf/lib\libc.a(lib_a-putchar.o)
                0x0000000008002cb0                _putchar_r
 .text.putchar  0x0000000008002cb8       0x18 c:/intelfpga_lite/19.1/nios2eds/bin/gnu/h-x86_64-mingw32/bin/../lib/gcc/nios2-elf/8.3.1/../../../../../H-x86_64-mingw32/nios2-elf/lib\libc.a(lib_a-putchar.o)
                0x0000000008002cb8                putchar
 .text          0x0000000008002cd0        0x0 c:/intelfpga_lite/19.1/nios2eds/bin/gnu/h-x86_64-mingw32/bin/../lib/gcc/nios2-elf/8.3.1/../../../../../H-x86_64-mingw32/nios2-elf/lib\libc.a(lib_a-puts.o)
 .text._puts_r  0x0000000008002cd0       0xcc c:/intelfpga_lite/19.1/nios2eds/bin/gnu/h-x86_64-mingw32/bin/../lib/gcc/nios2-elf/8.3.1/../../../../../H-x86_64-mingw32/nios2-elf/lib\libc.a(lib_a-puts.o)
                0x0000000008002cd0                _puts_r
 .text.puts     0x0000000008002d9c       0x10 c:/intelfpga_lite/19.1/nios2eds/bin/gnu/h-x86_64-mingw32/bin/../lib/gcc/nios2-elf/8.3.1/../../../../../H-x86_64-mingw32/nios2-elf/lib\libc.a(lib_a-puts.o)
                0x0000000008002d9c                puts
 .text          0x0000000008002dac        0x0 c:/intelfpga_lite/19.1/nios2eds/bin/gnu/h-x86_64-mingw32/bin/../lib/gcc/nios2-elf/8.3.1/../../../../../H-x86_64-mingw32/nios2-elf/lib\libc.a(lib_a-strlen.o)
 .text.strlen   0x0000000008002dac       0x98 c:/intelfpga_lite/19.1/nios2eds/bin/gnu/h-x86_64-mingw32/bin/../lib/gcc/nios2-elf/8.3.1/../../../../../H-x86_64-mingw32/nios2-elf/lib\libc.a(lib_a-strlen.o)
                0x0000000008002dac                strlen
 .text          0x0000000008002e44        0x0 c:/intelfpga_lite/19.1/nios2eds/bin/gnu/h-x86_64-mingw32/bin/../lib/gcc/nios2-elf/8.3.1/../../../../../H-x86_64-mingw32/nios2-elf/lib\libc.a(lib_a-vfprintf.o)
 .text.___vfprintf_internal_r
                0x0000000008002e44     0x2160 c:/intelfpga_lite/19.1/nios2eds/bin/gnu/h-x86_64-mingw32/bin/../lib/gcc/nios2-elf/8.3.1/../../../../../H-x86_64-mingw32/nios2-elf/lib\libc.a(lib_a-vfprintf.o)
                0x0000000008002e44                ___vfprintf_internal_r
 .text.__vfprintf_internal
                0x0000000008004fa4       0x18 c:/intelfpga_lite/19.1/nios2eds/bin/gnu/h-x86_64-mingw32/bin/../lib/gcc/nios2-elf/8.3.1/../../../../../H-x86_64-mingw32/nios2-elf/lib\libc.a(lib_a-vfprintf.o)
                0x0000000008004fa4                __vfprintf_internal
 .text.__sbprintf
                0x0000000008004fbc       0xc0 c:/intelfpga_lite/19.1/nios2eds/bin/gnu/h-x86_64-mingw32/bin/../lib/gcc/nios2-elf/8.3.1/../../../../../H-x86_64-mingw32/nios2-elf/lib\libc.a(lib_a-vfprintf.o)
 .text          0x000000000800507c        0x0 c:/intelfpga_lite/19.1/nios2eds/bin/gnu/h-x86_64-mingw32/bin/../lib/gcc/nios2-elf/8.3.1/../../../../../H-x86_64-mingw32/nios2-elf/lib\libc.a(lib_a-wsetup.o)
 .text.__swsetup_r
                0x000000000800507c      0x160 c:/intelfpga_lite/19.1/nios2eds/bin/gnu/h-x86_64-mingw32/bin/../lib/gcc/nios2-elf/8.3.1/../../../../../H-x86_64-mingw32/nios2-elf/lib\libc.a(lib_a-wsetup.o)
                0x000000000800507c                __swsetup_r
 .text          0x00000000080051dc        0x0 c:/intelfpga_lite/19.1/nios2eds/bin/gnu/h-x86_64-mingw32/bin/../lib/gcc/nios2-elf/8.3.1/../../../../../H-x86_64-mingw32/nios2-elf/lib\libc.a(lib_a-dtoa.o)
 .text.quorem   0x00000000080051dc      0x210 c:/intelfpga_lite/19.1/nios2eds/bin/gnu/h-x86_64-mingw32/bin/../lib/gcc/nios2-elf/8.3.1/../../../../../H-x86_64-mingw32/nios2-elf/lib\libc.a(lib_a-dtoa.o)
 .text._dtoa_r  0x00000000080053ec     0x16c8 c:/intelfpga_lite/19.1/nios2eds/bin/gnu/h-x86_64-mingw32/bin/../lib/gcc/nios2-elf/8.3.1/../../../../../H-x86_64-mingw32/nios2-elf/lib\libc.a(lib_a-dtoa.o)
                0x00000000080053ec                _dtoa_r
 .text          0x0000000008006ab4        0x0 c:/intelfpga_lite/19.1/nios2eds/bin/gnu/h-x86_64-mingw32/bin/../lib/gcc/nios2-elf/8.3.1/../../../../../H-x86_64-mingw32/nios2-elf/lib\libc.a(lib_a-fflush.o)
 .text.__sflush_r
                0x0000000008006ab4      0x228 c:/intelfpga_lite/19.1/nios2eds/bin/gnu/h-x86_64-mingw32/bin/../lib/gcc/nios2-elf/8.3.1/../../../../../H-x86_64-mingw32/nios2-elf/lib\libc.a(lib_a-fflush.o)
                0x0000000008006ab4                __sflush_r
 .text._fflush_r
                0x0000000008006cdc       0x60 c:/intelfpga_lite/19.1/nios2eds/bin/gnu/h-x86_64-mingw32/bin/../lib/gcc/nios2-elf/8.3.1/../../../../../H-x86_64-mingw32/nios2-elf/lib\libc.a(lib_a-fflush.o)
                0x0000000008006cdc                _fflush_r
 .text.fflush   0x0000000008006d3c       0x28 c:/intelfpga_lite/19.1/nios2eds/bin/gnu/h-x86_64-mingw32/bin/../lib/gcc/nios2-elf/8.3.1/../../../../../H-x86_64-mingw32/nios2-elf/lib\libc.a(lib_a-fflush.o)
                0x0000000008006d3c                fflush
 .text          0x0000000008006d64        0x0 c:/intelfpga_lite/19.1/nios2eds/bin/gnu/h-x86_64-mingw32/bin/../lib/gcc/nios2-elf/8.3.1/../../../../../H-x86_64-mingw32/nios2-elf/lib\libc.a(lib_a-findfp.o)
 .text.__fp_lock
                0x0000000008006d64        0x8 c:/intelfpga_lite/19.1/nios2eds/bin/gnu/h-x86_64-mingw32/bin/../lib/gcc/nios2-elf/8.3.1/../../../../../H-x86_64-mingw32/nios2-elf/lib\libc.a(lib_a-findfp.o)
 .text._cleanup_r
                0x0000000008006d6c        0xc c:/intelfpga_lite/19.1/nios2eds/bin/gnu/h-x86_64-mingw32/bin/../lib/gcc/nios2-elf/8.3.1/../../../../../H-x86_64-mingw32/nios2-elf/lib\libc.a(lib_a-findfp.o)
                0x0000000008006d6c                _cleanup_r
 .text.__sinit.part.0
                0x0000000008006d78      0x168 c:/intelfpga_lite/19.1/nios2eds/bin/gnu/h-x86_64-mingw32/bin/../lib/gcc/nios2-elf/8.3.1/../../../../../H-x86_64-mingw32/nios2-elf/lib\libc.a(lib_a-findfp.o)
 .text.__fp_unlock
                0x0000000008006ee0        0x8 c:/intelfpga_lite/19.1/nios2eds/bin/gnu/h-x86_64-mingw32/bin/../lib/gcc/nios2-elf/8.3.1/../../../../../H-x86_64-mingw32/nios2-elf/lib\libc.a(lib_a-findfp.o)
 .text.__sfmoreglue
                0x0000000008006ee8       0x68 c:/intelfpga_lite/19.1/nios2eds/bin/gnu/h-x86_64-mingw32/bin/../lib/gcc/nios2-elf/8.3.1/../../../../../H-x86_64-mingw32/nios2-elf/lib\libc.a(lib_a-findfp.o)
                0x0000000008006ee8                __sfmoreglue
 .text.__sfp    0x0000000008006f50       0xfc c:/intelfpga_lite/19.1/nios2eds/bin/gnu/h-x86_64-mingw32/bin/../lib/gcc/nios2-elf/8.3.1/../../../../../H-x86_64-mingw32/nios2-elf/lib\libc.a(lib_a-findfp.o)
                0x0000000008006f50                __sfp
 .text._cleanup
                0x000000000800704c       0x14 c:/intelfpga_lite/19.1/nios2eds/bin/gnu/h-x86_64-mingw32/bin/../lib/gcc/nios2-elf/8.3.1/../../../../../H-x86_64-mingw32/nios2-elf/lib\libc.a(lib_a-findfp.o)
                0x000000000800704c                _cleanup
 .text.__sinit  0x0000000008007060       0x10 c:/intelfpga_lite/19.1/nios2eds/bin/gnu/h-x86_64-mingw32/bin/../lib/gcc/nios2-elf/8.3.1/../../../../../H-x86_64-mingw32/nios2-elf/lib\libc.a(lib_a-findfp.o)
                0x0000000008007060                __sinit
 .text.__sfp_lock_acquire
                0x0000000008007070        0x4 c:/intelfpga_lite/19.1/nios2eds/bin/gnu/h-x86_64-mingw32/bin/../lib/gcc/nios2-elf/8.3.1/../../../../../H-x86_64-mingw32/nios2-elf/lib\libc.a(lib_a-findfp.o)
                0x0000000008007070                __sfp_lock_acquire
 .text.__sfp_lock_release
                0x0000000008007074        0x4 c:/intelfpga_lite/19.1/nios2eds/bin/gnu/h-x86_64-mingw32/bin/../lib/gcc/nios2-elf/8.3.1/../../../../../H-x86_64-mingw32/nios2-elf/lib\libc.a(lib_a-findfp.o)
                0x0000000008007074                __sfp_lock_release
 .text.__sinit_lock_acquire
                0x0000000008007078        0x4 c:/intelfpga_lite/19.1/nios2eds/bin/gnu/h-x86_64-mingw32/bin/../lib/gcc/nios2-elf/8.3.1/../../../../../H-x86_64-mingw32/nios2-elf/lib\libc.a(lib_a-findfp.o)
                0x0000000008007078                __sinit_lock_acquire
 .text.__sinit_lock_release
                0x000000000800707c        0x4 c:/intelfpga_lite/19.1/nios2eds/bin/gnu/h-x86_64-mingw32/bin/../lib/gcc/nios2-elf/8.3.1/../../../../../H-x86_64-mingw32/nios2-elf/lib\libc.a(lib_a-findfp.o)
                0x000000000800707c                __sinit_lock_release
 .text.__fp_lock_all
                0x0000000008007080       0x14 c:/intelfpga_lite/19.1/nios2eds/bin/gnu/h-x86_64-mingw32/bin/../lib/gcc/nios2-elf/8.3.1/../../../../../H-x86_64-mingw32/nios2-elf/lib\libc.a(lib_a-findfp.o)
                0x0000000008007080                __fp_lock_all
 .text.__fp_unlock_all
                0x0000000008007094       0x14 c:/intelfpga_lite/19.1/nios2eds/bin/gnu/h-x86_64-mingw32/bin/../lib/gcc/nios2-elf/8.3.1/../../../../../H-x86_64-mingw32/nios2-elf/lib\libc.a(lib_a-findfp.o)
                0x0000000008007094                __fp_unlock_all
 .text          0x00000000080070a8        0x0 c:/intelfpga_lite/19.1/nios2eds/bin/gnu/h-x86_64-mingw32/bin/../lib/gcc/nios2-elf/8.3.1/../../../../../H-x86_64-mingw32/nios2-elf/lib\libc.a(lib_a-freer.o)
 .text._malloc_trim_r
                0x00000000080070a8      0x11c c:/intelfpga_lite/19.1/nios2eds/bin/gnu/h-x86_64-mingw32/bin/../lib/gcc/nios2-elf/8.3.1/../../../../../H-x86_64-mingw32/nios2-elf/lib\libc.a(lib_a-freer.o)
                0x00000000080070a8                _malloc_trim_r
 .text._free_r  0x00000000080071c4      0x2fc c:/intelfpga_lite/19.1/nios2eds/bin/gnu/h-x86_64-mingw32/bin/../lib/gcc/nios2-elf/8.3.1/../../../../../H-x86_64-mingw32/nios2-elf/lib\libc.a(lib_a-freer.o)
                0x00000000080071c4                _free_r
 .text          0x00000000080074c0        0x0 c:/intelfpga_lite/19.1/nios2eds/bin/gnu/h-x86_64-mingw32/bin/../lib/gcc/nios2-elf/8.3.1/../../../../../H-x86_64-mingw32/nios2-elf/lib\libc.a(lib_a-fvwrite.o)
 .text.__sfvwrite_r
                0x00000000080074c0      0x4c4 c:/intelfpga_lite/19.1/nios2eds/bin/gnu/h-x86_64-mingw32/bin/../lib/gcc/nios2-elf/8.3.1/../../../../../H-x86_64-mingw32/nios2-elf/lib\libc.a(lib_a-fvwrite.o)
                0x00000000080074c0                __sfvwrite_r
 .text          0x0000000008007984        0x0 c:/intelfpga_lite/19.1/nios2eds/bin/gnu/h-x86_64-mingw32/bin/../lib/gcc/nios2-elf/8.3.1/../../../../../H-x86_64-mingw32/nios2-elf/lib\libc.a(lib_a-fwalk.o)
 .text._fwalk   0x0000000008007984       0xa4 c:/intelfpga_lite/19.1/nios2eds/bin/gnu/h-x86_64-mingw32/bin/../lib/gcc/nios2-elf/8.3.1/../../../../../H-x86_64-mingw32/nios2-elf/lib\libc.a(lib_a-fwalk.o)
                0x0000000008007984                _fwalk
 .text._fwalk_reent
                0x0000000008007a28       0xb4 c:/intelfpga_lite/19.1/nios2eds/bin/gnu/h-x86_64-mingw32/bin/../lib/gcc/nios2-elf/8.3.1/../../../../../H-x86_64-mingw32/nios2-elf/lib\libc.a(lib_a-fwalk.o)
                0x0000000008007a28                _fwalk_reent
 .text          0x0000000008007adc        0x0 c:/intelfpga_lite/19.1/nios2eds/bin/gnu/h-x86_64-mingw32/bin/../lib/gcc/nios2-elf/8.3.1/../../../../../H-x86_64-mingw32/nios2-elf/lib\libc.a(lib_a-getc.o)
 .text._getc_r  0x0000000008007adc       0x7c c:/intelfpga_lite/19.1/nios2eds/bin/gnu/h-x86_64-mingw32/bin/../lib/gcc/nios2-elf/8.3.1/../../../../../H-x86_64-mingw32/nios2-elf/lib\libc.a(lib_a-getc.o)
                0x0000000008007adc                _getc_r
 .text.getc     0x0000000008007b58       0x90 c:/intelfpga_lite/19.1/nios2eds/bin/gnu/h-x86_64-mingw32/bin/../lib/gcc/nios2-elf/8.3.1/../../../../../H-x86_64-mingw32/nios2-elf/lib\libc.a(lib_a-getc.o)
                0x0000000008007b58                getc
 .text          0x0000000008007be8        0x0 c:/intelfpga_lite/19.1/nios2eds/bin/gnu/h-x86_64-mingw32/bin/../lib/gcc/nios2-elf/8.3.1/../../../../../H-x86_64-mingw32/nios2-elf/lib\libc.a(lib_a-localeconv.o)
 .text.__localeconv_l
                0x0000000008007be8        0x8 c:/intelfpga_lite/19.1/nios2eds/bin/gnu/h-x86_64-mingw32/bin/../lib/gcc/nios2-elf/8.3.1/../../../../../H-x86_64-mingw32/nios2-elf/lib\libc.a(lib_a-localeconv.o)
                0x0000000008007be8                __localeconv_l
 .text._localeconv_r
                0x0000000008007bf0        0xc c:/intelfpga_lite/19.1/nios2eds/bin/gnu/h-x86_64-mingw32/bin/../lib/gcc/nios2-elf/8.3.1/../../../../../H-x86_64-mingw32/nios2-elf/lib\libc.a(lib_a-localeconv.o)
                0x0000000008007bf0                _localeconv_r
 .text.localeconv
                0x0000000008007bfc        0xc c:/intelfpga_lite/19.1/nios2eds/bin/gnu/h-x86_64-mingw32/bin/../lib/gcc/nios2-elf/8.3.1/../../../../../H-x86_64-mingw32/nios2-elf/lib\libc.a(lib_a-localeconv.o)
                0x0000000008007bfc                localeconv
 .text          0x0000000008007c08        0x0 c:/intelfpga_lite/19.1/nios2eds/bin/gnu/h-x86_64-mingw32/bin/../lib/gcc/nios2-elf/8.3.1/../../../../../H-x86_64-mingw32/nios2-elf/lib\libc.a(lib_a-makebuf.o)
 .text.__swhatbuf_r
                0x0000000008007c08       0x98 c:/intelfpga_lite/19.1/nios2eds/bin/gnu/h-x86_64-mingw32/bin/../lib/gcc/nios2-elf/8.3.1/../../../../../H-x86_64-mingw32/nios2-elf/lib\libc.a(lib_a-makebuf.o)
                0x0000000008007c08                __swhatbuf_r
 .text.__smakebuf_r
                0x0000000008007ca0      0x13c c:/intelfpga_lite/19.1/nios2eds/bin/gnu/h-x86_64-mingw32/bin/../lib/gcc/nios2-elf/8.3.1/../../../../../H-x86_64-mingw32/nios2-elf/lib\libc.a(lib_a-makebuf.o)
                0x0000000008007ca0                __smakebuf_r
 .text          0x0000000008007ddc        0x0 c:/intelfpga_lite/19.1/nios2eds/bin/gnu/h-x86_64-mingw32/bin/../lib/gcc/nios2-elf/8.3.1/../../../../../H-x86_64-mingw32/nios2-elf/lib\libc.a(lib_a-mallocr.o)
 .text._malloc_r
                0x0000000008007ddc      0x7f4 c:/intelfpga_lite/19.1/nios2eds/bin/gnu/h-x86_64-mingw32/bin/../lib/gcc/nios2-elf/8.3.1/../../../../../H-x86_64-mingw32/nios2-elf/lib\libc.a(lib_a-mallocr.o)
                0x0000000008007ddc                _malloc_r
 .text          0x00000000080085d0        0x0 c:/intelfpga_lite/19.1/nios2eds/bin/gnu/h-x86_64-mingw32/bin/../lib/gcc/nios2-elf/8.3.1/../../../../../H-x86_64-mingw32/nios2-elf/lib\libc.a(lib_a-memchr.o)
 .text.memchr   0x00000000080085d0       0xe8 c:/intelfpga_lite/19.1/nios2eds/bin/gnu/h-x86_64-mingw32/bin/../lib/gcc/nios2-elf/8.3.1/../../../../../H-x86_64-mingw32/nios2-elf/lib\libc.a(lib_a-memchr.o)
                0x00000000080085d0                memchr
 .text          0x00000000080086b8        0x0 c:/intelfpga_lite/19.1/nios2eds/bin/gnu/h-x86_64-mingw32/bin/../lib/gcc/nios2-elf/8.3.1/../../../../../H-x86_64-mingw32/nios2-elf/lib\libc.a(lib_a-memcpy.o)
 .text.memcpy   0x00000000080086b8      0x100 c:/intelfpga_lite/19.1/nios2eds/bin/gnu/h-x86_64-mingw32/bin/../lib/gcc/nios2-elf/8.3.1/../../../../../H-x86_64-mingw32/nios2-elf/lib\libc.a(lib_a-memcpy.o)
                0x00000000080086b8                memcpy
 .text          0x00000000080087b8        0x0 c:/intelfpga_lite/19.1/nios2eds/bin/gnu/h-x86_64-mingw32/bin/../lib/gcc/nios2-elf/8.3.1/../../../../../H-x86_64-mingw32/nios2-elf/lib\libc.a(lib_a-memmove.o)
 .text.memmove  0x00000000080087b8      0x12c c:/intelfpga_lite/19.1/nios2eds/bin/gnu/h-x86_64-mingw32/bin/../lib/gcc/nios2-elf/8.3.1/../../../../../H-x86_64-mingw32/nios2-elf/lib\libc.a(lib_a-memmove.o)
                0x00000000080087b8                memmove
 .text          0x00000000080088e4        0x0 c:/intelfpga_lite/19.1/nios2eds/bin/gnu/h-x86_64-mingw32/bin/../lib/gcc/nios2-elf/8.3.1/../../../../../H-x86_64-mingw32/nios2-elf/lib\libc.a(lib_a-memset.o)
 .text.memset   0x00000000080088e4       0xf0 c:/intelfpga_lite/19.1/nios2eds/bin/gnu/h-x86_64-mingw32/bin/../lib/gcc/nios2-elf/8.3.1/../../../../../H-x86_64-mingw32/nios2-elf/lib\libc.a(lib_a-memset.o)
                0x00000000080088e4                memset
 .text          0x00000000080089d4        0x0 c:/intelfpga_lite/19.1/nios2eds/bin/gnu/h-x86_64-mingw32/bin/../lib/gcc/nios2-elf/8.3.1/../../../../../H-x86_64-mingw32/nios2-elf/lib\libc.a(lib_a-mprec.o)
 .text._Balloc  0x00000000080089d4       0xa4 c:/intelfpga_lite/19.1/nios2eds/bin/gnu/h-x86_64-mingw32/bin/../lib/gcc/nios2-elf/8.3.1/../../../../../H-x86_64-mingw32/nios2-elf/lib\libc.a(lib_a-mprec.o)
                0x00000000080089d4                _Balloc
 .text._Bfree   0x0000000008008a78       0x24 c:/intelfpga_lite/19.1/nios2eds/bin/gnu/h-x86_64-mingw32/bin/../lib/gcc/nios2-elf/8.3.1/../../../../../H-x86_64-mingw32/nios2-elf/lib\libc.a(lib_a-mprec.o)
                0x0000000008008a78                _Bfree
 .text.__multadd
                0x0000000008008a9c      0x114 c:/intelfpga_lite/19.1/nios2eds/bin/gnu/h-x86_64-mingw32/bin/../lib/gcc/nios2-elf/8.3.1/../../../../../H-x86_64-mingw32/nios2-elf/lib\libc.a(lib_a-mprec.o)
                0x0000000008008a9c                __multadd
 .text.__s2b    0x0000000008008bb0      0x110 c:/intelfpga_lite/19.1/nios2eds/bin/gnu/h-x86_64-mingw32/bin/../lib/gcc/nios2-elf/8.3.1/../../../../../H-x86_64-mingw32/nios2-elf/lib\libc.a(lib_a-mprec.o)
                0x0000000008008bb0                __s2b
 .text.__hi0bits
                0x0000000008008cc0       0x64 c:/intelfpga_lite/19.1/nios2eds/bin/gnu/h-x86_64-mingw32/bin/../lib/gcc/nios2-elf/8.3.1/../../../../../H-x86_64-mingw32/nios2-elf/lib\libc.a(lib_a-mprec.o)
                0x0000000008008cc0                __hi0bits
 .text.__lo0bits
                0x0000000008008d24       0xb0 c:/intelfpga_lite/19.1/nios2eds/bin/gnu/h-x86_64-mingw32/bin/../lib/gcc/nios2-elf/8.3.1/../../../../../H-x86_64-mingw32/nios2-elf/lib\libc.a(lib_a-mprec.o)
                0x0000000008008d24                __lo0bits
 .text.__i2b    0x0000000008008dd4       0x34 c:/intelfpga_lite/19.1/nios2eds/bin/gnu/h-x86_64-mingw32/bin/../lib/gcc/nios2-elf/8.3.1/../../../../../H-x86_64-mingw32/nios2-elf/lib\libc.a(lib_a-mprec.o)
                0x0000000008008dd4                __i2b
 .text.__multiply
                0x0000000008008e08      0x1ec c:/intelfpga_lite/19.1/nios2eds/bin/gnu/h-x86_64-mingw32/bin/../lib/gcc/nios2-elf/8.3.1/../../../../../H-x86_64-mingw32/nios2-elf/lib\libc.a(lib_a-mprec.o)
                0x0000000008008e08                __multiply
 .text.__pow5mult
                0x0000000008008ff4      0x128 c:/intelfpga_lite/19.1/nios2eds/bin/gnu/h-x86_64-mingw32/bin/../lib/gcc/nios2-elf/8.3.1/../../../../../H-x86_64-mingw32/nios2-elf/lib\libc.a(lib_a-mprec.o)
                0x0000000008008ff4                __pow5mult
 .text.__lshift
                0x000000000800911c      0x13c c:/intelfpga_lite/19.1/nios2eds/bin/gnu/h-x86_64-mingw32/bin/../lib/gcc/nios2-elf/8.3.1/../../../../../H-x86_64-mingw32/nios2-elf/lib\libc.a(lib_a-mprec.o)
                0x000000000800911c                __lshift
 .text.__mcmp   0x0000000008009258       0x58 c:/intelfpga_lite/19.1/nios2eds/bin/gnu/h-x86_64-mingw32/bin/../lib/gcc/nios2-elf/8.3.1/../../../../../H-x86_64-mingw32/nios2-elf/lib\libc.a(lib_a-mprec.o)
                0x0000000008009258                __mcmp
 .text.__mdiff  0x00000000080092b0      0x1bc c:/intelfpga_lite/19.1/nios2eds/bin/gnu/h-x86_64-mingw32/bin/../lib/gcc/nios2-elf/8.3.1/../../../../../H-x86_64-mingw32/nios2-elf/lib\libc.a(lib_a-mprec.o)
                0x00000000080092b0                __mdiff
 .text.__ulp    0x000000000800946c       0x5c c:/intelfpga_lite/19.1/nios2eds/bin/gnu/h-x86_64-mingw32/bin/../lib/gcc/nios2-elf/8.3.1/../../../../../H-x86_64-mingw32/nios2-elf/lib\libc.a(lib_a-mprec.o)
                0x000000000800946c                __ulp
 .text.__b2d    0x00000000080094c8      0x104 c:/intelfpga_lite/19.1/nios2eds/bin/gnu/h-x86_64-mingw32/bin/../lib/gcc/nios2-elf/8.3.1/../../../../../H-x86_64-mingw32/nios2-elf/lib\libc.a(lib_a-mprec.o)
                0x00000000080094c8                __b2d
 .text.__d2b    0x00000000080095cc      0x148 c:/intelfpga_lite/19.1/nios2eds/bin/gnu/h-x86_64-mingw32/bin/../lib/gcc/nios2-elf/8.3.1/../../../../../H-x86_64-mingw32/nios2-elf/lib\libc.a(lib_a-mprec.o)
                0x00000000080095cc                __d2b
 .text.__ratio  0x0000000008009714       0xa8 c:/intelfpga_lite/19.1/nios2eds/bin/gnu/h-x86_64-mingw32/bin/../lib/gcc/nios2-elf/8.3.1/../../../../../H-x86_64-mingw32/nios2-elf/lib\libc.a(lib_a-mprec.o)
                0x0000000008009714                __ratio
 .text._mprec_log10
                0x00000000080097bc       0x74 c:/intelfpga_lite/19.1/nios2eds/bin/gnu/h-x86_64-mingw32/bin/../lib/gcc/nios2-elf/8.3.1/../../../../../H-x86_64-mingw32/nios2-elf/lib\libc.a(lib_a-mprec.o)
                0x00000000080097bc                _mprec_log10
 .text.__copybits
                0x0000000008009830       0x6c c:/intelfpga_lite/19.1/nios2eds/bin/gnu/h-x86_64-mingw32/bin/../lib/gcc/nios2-elf/8.3.1/../../../../../H-x86_64-mingw32/nios2-elf/lib\libc.a(lib_a-mprec.o)
                0x0000000008009830                __copybits
 .text.__any_on
                0x000000000800989c       0x74 c:/intelfpga_lite/19.1/nios2eds/bin/gnu/h-x86_64-mingw32/bin/../lib/gcc/nios2-elf/8.3.1/../../../../../H-x86_64-mingw32/nios2-elf/lib\libc.a(lib_a-mprec.o)
                0x000000000800989c                __any_on
 .text          0x0000000008009910        0x0 c:/intelfpga_lite/19.1/nios2eds/bin/gnu/h-x86_64-mingw32/bin/../lib/gcc/nios2-elf/8.3.1/../../../../../H-x86_64-mingw32/nios2-elf/lib\libc.a(lib_a-putc.o)
 .text._putc_r  0x0000000008009910       0xcc c:/intelfpga_lite/19.1/nios2eds/bin/gnu/h-x86_64-mingw32/bin/../lib/gcc/nios2-elf/8.3.1/../../../../../H-x86_64-mingw32/nios2-elf/lib\libc.a(lib_a-putc.o)
                0x0000000008009910                _putc_r
 .text.putc     0x00000000080099dc       0xe0 c:/intelfpga_lite/19.1/nios2eds/bin/gnu/h-x86_64-mingw32/bin/../lib/gcc/nios2-elf/8.3.1/../../../../../H-x86_64-mingw32/nios2-elf/lib\libc.a(lib_a-putc.o)
                0x00000000080099dc                putc
 .text          0x0000000008009abc        0x0 c:/intelfpga_lite/19.1/nios2eds/bin/gnu/h-x86_64-mingw32/bin/../lib/gcc/nios2-elf/8.3.1/../../../../../H-x86_64-mingw32/nios2-elf/lib\libc.a(lib_a-reallocr.o)
 .text._realloc_r
                0x0000000008009abc      0x62c c:/intelfpga_lite/19.1/nios2eds/bin/gnu/h-x86_64-mingw32/bin/../lib/gcc/nios2-elf/8.3.1/../../../../../H-x86_64-mingw32/nios2-elf/lib\libc.a(lib_a-reallocr.o)
                0x0000000008009abc                _realloc_r
 .text          0x000000000800a0e8        0x0 c:/intelfpga_lite/19.1/nios2eds/bin/gnu/h-x86_64-mingw32/bin/../lib/gcc/nios2-elf/8.3.1/../../../../../H-x86_64-mingw32/nios2-elf/lib\libc.a(lib_a-rget.o)
 .text.__srget_r
                0x000000000800a0e8       0x74 c:/intelfpga_lite/19.1/nios2eds/bin/gnu/h-x86_64-mingw32/bin/../lib/gcc/nios2-elf/8.3.1/../../../../../H-x86_64-mingw32/nios2-elf/lib\libc.a(lib_a-rget.o)
                0x000000000800a0e8                __srget_r
 .text.__srget  0x000000000800a15c       0x10 c:/intelfpga_lite/19.1/nios2eds/bin/gnu/h-x86_64-mingw32/bin/../lib/gcc/nios2-elf/8.3.1/../../../../../H-x86_64-mingw32/nios2-elf/lib\libc.a(lib_a-rget.o)
                0x000000000800a15c                __srget
 .text          0x000000000800a16c        0x0 c:/intelfpga_lite/19.1/nios2eds/bin/gnu/h-x86_64-mingw32/bin/../lib/gcc/nios2-elf/8.3.1/../../../../../H-x86_64-mingw32/nios2-elf/lib\libc.a(lib_a-sbrkr.o)
 .text._sbrk_r  0x000000000800a16c       0x58 c:/intelfpga_lite/19.1/nios2eds/bin/gnu/h-x86_64-mingw32/bin/../lib/gcc/nios2-elf/8.3.1/../../../../../H-x86_64-mingw32/nios2-elf/lib\libc.a(lib_a-sbrkr.o)
                0x000000000800a16c                _sbrk_r
 .text          0x000000000800a1c4        0x0 c:/intelfpga_lite/19.1/nios2eds/bin/gnu/h-x86_64-mingw32/bin/../lib/gcc/nios2-elf/8.3.1/../../../../../H-x86_64-mingw32/nios2-elf/lib\libc.a(lib_a-stdio.o)
 .text.__sread  0x000000000800a1c4       0x54 c:/intelfpga_lite/19.1/nios2eds/bin/gnu/h-x86_64-mingw32/bin/../lib/gcc/nios2-elf/8.3.1/../../../../../H-x86_64-mingw32/nios2-elf/lib\libc.a(lib_a-stdio.o)
                0x000000000800a1c4                __sread
 .text.__seofread
                0x000000000800a218        0x8 c:/intelfpga_lite/19.1/nios2eds/bin/gnu/h-x86_64-mingw32/bin/../lib/gcc/nios2-elf/8.3.1/../../../../../H-x86_64-mingw32/nios2-elf/lib\libc.a(lib_a-stdio.o)
                0x000000000800a218                __seofread
 .text.__swrite
                0x000000000800a220       0x80 c:/intelfpga_lite/19.1/nios2eds/bin/gnu/h-x86_64-mingw32/bin/../lib/gcc/nios2-elf/8.3.1/../../../../../H-x86_64-mingw32/nios2-elf/lib\libc.a(lib_a-stdio.o)
                0x000000000800a220                __swrite
 .text.__sseek  0x000000000800a2a0       0x5c c:/intelfpga_lite/19.1/nios2eds/bin/gnu/h-x86_64-mingw32/bin/../lib/gcc/nios2-elf/8.3.1/../../../../../H-x86_64-mingw32/nios2-elf/lib\libc.a(lib_a-stdio.o)
                0x000000000800a2a0                __sseek
 .text.__sclose
                0x000000000800a2fc        0x8 c:/intelfpga_lite/19.1/nios2eds/bin/gnu/h-x86_64-mingw32/bin/../lib/gcc/nios2-elf/8.3.1/../../../../../H-x86_64-mingw32/nios2-elf/lib\libc.a(lib_a-stdio.o)
                0x000000000800a2fc                __sclose
 .text          0x000000000800a304        0x0 c:/intelfpga_lite/19.1/nios2eds/bin/gnu/h-x86_64-mingw32/bin/../lib/gcc/nios2-elf/8.3.1/../../../../../H-x86_64-mingw32/nios2-elf/lib\libc.a(lib_a-vfiprintf.o)
 .text.__sprint_r.part.0
                0x000000000800a304       0xf4 c:/intelfpga_lite/19.1/nios2eds/bin/gnu/h-x86_64-mingw32/bin/../lib/gcc/nios2-elf/8.3.1/../../../../../H-x86_64-mingw32/nios2-elf/lib\libc.a(lib_a-vfiprintf.o)
 .text.__sprint_r
                0x000000000800a3f8       0x18 c:/intelfpga_lite/19.1/nios2eds/bin/gnu/h-x86_64-mingw32/bin/../lib/gcc/nios2-elf/8.3.1/../../../../../H-x86_64-mingw32/nios2-elf/lib\libc.a(lib_a-vfiprintf.o)
                0x000000000800a3f8                __sprint_r
 .text.___vfiprintf_internal_r
                0x000000000800a410     0x132c c:/intelfpga_lite/19.1/nios2eds/bin/gnu/h-x86_64-mingw32/bin/../lib/gcc/nios2-elf/8.3.1/../../../../../H-x86_64-mingw32/nios2-elf/lib\libc.a(lib_a-vfiprintf.o)
                0x000000000800a410                ___vfiprintf_internal_r
 .text.__vfiprintf_internal
                0x000000000800b73c       0x18 c:/intelfpga_lite/19.1/nios2eds/bin/gnu/h-x86_64-mingw32/bin/../lib/gcc/nios2-elf/8.3.1/../../../../../H-x86_64-mingw32/nios2-elf/lib\libc.a(lib_a-vfiprintf.o)
                0x000000000800b73c                __vfiprintf_internal
 .text.__sbprintf
                0x000000000800b754       0xc0 c:/intelfpga_lite/19.1/nios2eds/bin/gnu/h-x86_64-mingw32/bin/../lib/gcc/nios2-elf/8.3.1/../../../../../H-x86_64-mingw32/nios2-elf/lib\libc.a(lib_a-vfiprintf.o)
 .text          0x000000000800b814        0x0 c:/intelfpga_lite/19.1/nios2eds/bin/gnu/h-x86_64-mingw32/bin/../lib/gcc/nios2-elf/8.3.1/../../../../../H-x86_64-mingw32/nios2-elf/lib\libc.a(lib_a-wbuf.o)
 .text.__swbuf_r
                0x000000000800b814      0x148 c:/intelfpga_lite/19.1/nios2eds/bin/gnu/h-x86_64-mingw32/bin/../lib/gcc/nios2-elf/8.3.1/../../../../../H-x86_64-mingw32/nios2-elf/lib\libc.a(lib_a-wbuf.o)
                0x000000000800b814                __swbuf_r
 .text.__swbuf  0x000000000800b95c       0x14 c:/intelfpga_lite/19.1/nios2eds/bin/gnu/h-x86_64-mingw32/bin/../lib/gcc/nios2-elf/8.3.1/../../../../../H-x86_64-mingw32/nios2-elf/lib\libc.a(lib_a-wbuf.o)
                0x000000000800b95c                __swbuf
 .text          0x000000000800b970        0x0 c:/intelfpga_lite/19.1/nios2eds/bin/gnu/h-x86_64-mingw32/bin/../lib/gcc/nios2-elf/8.3.1/../../../../../H-x86_64-mingw32/nios2-elf/lib\libc.a(lib_a-writer.o)
 .text._write_r
                0x000000000800b970       0x64 c:/intelfpga_lite/19.1/nios2eds/bin/gnu/h-x86_64-mingw32/bin/../lib/gcc/nios2-elf/8.3.1/../../../../../H-x86_64-mingw32/nios2-elf/lib\libc.a(lib_a-writer.o)
                0x000000000800b970                _write_r
 .text          0x000000000800b9d4        0x0 c:/intelfpga_lite/19.1/nios2eds/bin/gnu/h-x86_64-mingw32/bin/../lib/gcc/nios2-elf/8.3.1/../../../../../H-x86_64-mingw32/nios2-elf/lib\libc.a(closer.o)
 .text._close_r
                0x000000000800b9d4       0x58 c:/intelfpga_lite/19.1/nios2eds/bin/gnu/h-x86_64-mingw32/bin/../lib/gcc/nios2-elf/8.3.1/../../../../../H-x86_64-mingw32/nios2-elf/lib\libc.a(closer.o)
                0x000000000800b9d4                _close_r
 .text          0x000000000800ba2c        0x0 c:/intelfpga_lite/19.1/nios2eds/bin/gnu/h-x86_64-mingw32/bin/../lib/gcc/nios2-elf/8.3.1/../../../../../H-x86_64-mingw32/nios2-elf/lib\libc.a(lib_a-callocr.o)
 .text._calloc_r
                0x000000000800ba2c       0xb8 c:/intelfpga_lite/19.1/nios2eds/bin/gnu/h-x86_64-mingw32/bin/../lib/gcc/nios2-elf/8.3.1/../../../../../H-x86_64-mingw32/nios2-elf/lib\libc.a(lib_a-callocr.o)
                0x000000000800ba2c                _calloc_r
 .text          0x000000000800bae4        0x0 c:/intelfpga_lite/19.1/nios2eds/bin/gnu/h-x86_64-mingw32/bin/../lib/gcc/nios2-elf/8.3.1/../../../../../H-x86_64-mingw32/nios2-elf/lib\libc.a(lib_a-fclose.o)
 .text._fclose_r
                0x000000000800bae4       0xf8 c:/intelfpga_lite/19.1/nios2eds/bin/gnu/h-x86_64-mingw32/bin/../lib/gcc/nios2-elf/8.3.1/../../../../../H-x86_64-mingw32/nios2-elf/lib\libc.a(lib_a-fclose.o)
                0x000000000800bae4                _fclose_r
 .text.fclose   0x000000000800bbdc       0x10 c:/intelfpga_lite/19.1/nios2eds/bin/gnu/h-x86_64-mingw32/bin/../lib/gcc/nios2-elf/8.3.1/../../../../../H-x86_64-mingw32/nios2-elf/lib\libc.a(lib_a-fclose.o)
                0x000000000800bbdc                fclose
 .text          0x000000000800bbec        0x0 c:/intelfpga_lite/19.1/nios2eds/bin/gnu/h-x86_64-mingw32/bin/../lib/gcc/nios2-elf/8.3.1/../../../../../H-x86_64-mingw32/nios2-elf/lib\libc.a(lib_a-fputwc.o)
 .text.__fputwc
                0x000000000800bbec      0x150 c:/intelfpga_lite/19.1/nios2eds/bin/gnu/h-x86_64-mingw32/bin/../lib/gcc/nios2-elf/8.3.1/../../../../../H-x86_64-mingw32/nios2-elf/lib\libc.a(lib_a-fputwc.o)
                0x000000000800bbec                __fputwc
 .text._fputwc_r
                0x000000000800bd3c       0x24 c:/intelfpga_lite/19.1/nios2eds/bin/gnu/h-x86_64-mingw32/bin/../lib/gcc/nios2-elf/8.3.1/../../../../../H-x86_64-mingw32/nios2-elf/lib\libc.a(lib_a-fputwc.o)
                0x000000000800bd3c                _fputwc_r
 .text.fputwc   0x000000000800bd60       0x7c c:/intelfpga_lite/19.1/nios2eds/bin/gnu/h-x86_64-mingw32/bin/../lib/gcc/nios2-elf/8.3.1/../../../../../H-x86_64-mingw32/nios2-elf/lib\libc.a(lib_a-fputwc.o)
                0x000000000800bd60                fputwc
 .text          0x000000000800bddc        0x0 c:/intelfpga_lite/19.1/nios2eds/bin/gnu/h-x86_64-mingw32/bin/../lib/gcc/nios2-elf/8.3.1/../../../../../H-x86_64-mingw32/nios2-elf/lib\libc.a(lib_a-fstatr.o)
 .text._fstat_r
                0x000000000800bddc       0x60 c:/intelfpga_lite/19.1/nios2eds/bin/gnu/h-x86_64-mingw32/bin/../lib/gcc/nios2-elf/8.3.1/../../../../../H-x86_64-mingw32/nios2-elf/lib\libc.a(lib_a-fstatr.o)
                0x000000000800bddc                _fstat_r
 .text          0x000000000800be3c        0x0 c:/intelfpga_lite/19.1/nios2eds/bin/gnu/h-x86_64-mingw32/bin/../lib/gcc/nios2-elf/8.3.1/../../../../../H-x86_64-mingw32/nios2-elf/lib\libc.a(lib_a-int_errno.o)
 .text          0x000000000800be3c        0x0 c:/intelfpga_lite/19.1/nios2eds/bin/gnu/h-x86_64-mingw32/bin/../lib/gcc/nios2-elf/8.3.1/../../../../../H-x86_64-mingw32/nios2-elf/lib\libc.a(lib_a-isattyr.o)
 .text._isatty_r
                0x000000000800be3c       0x58 c:/intelfpga_lite/19.1/nios2eds/bin/gnu/h-x86_64-mingw32/bin/../lib/gcc/nios2-elf/8.3.1/../../../../../H-x86_64-mingw32/nios2-elf/lib\libc.a(lib_a-isattyr.o)
                0x000000000800be3c                _isatty_r
 .text          0x000000000800be94        0x0 c:/intelfpga_lite/19.1/nios2eds/bin/gnu/h-x86_64-mingw32/bin/../lib/gcc/nios2-elf/8.3.1/../../../../../H-x86_64-mingw32/nios2-elf/lib\libc.a(lib_a-locale.o)
 .text._setlocale_r
                0x000000000800be94       0x70 c:/intelfpga_lite/19.1/nios2eds/bin/gnu/h-x86_64-mingw32/bin/../lib/gcc/nios2-elf/8.3.1/../../../../../H-x86_64-mingw32/nios2-elf/lib\libc.a(lib_a-locale.o)
                0x000000000800be94                _setlocale_r
 .text.__locale_mb_cur_max
                0x000000000800bf04        0xc c:/intelfpga_lite/19.1/nios2eds/bin/gnu/h-x86_64-mingw32/bin/../lib/gcc/nios2-elf/8.3.1/../../../../../H-x86_64-mingw32/nios2-elf/lib\libc.a(lib_a-locale.o)
                0x000000000800bf04                __locale_mb_cur_max
 .text.setlocale
                0x000000000800bf10       0x14 c:/intelfpga_lite/19.1/nios2eds/bin/gnu/h-x86_64-mingw32/bin/../lib/gcc/nios2-elf/8.3.1/../../../../../H-x86_64-mingw32/nios2-elf/lib\libc.a(lib_a-locale.o)
                0x000000000800bf10                setlocale
 .text          0x000000000800bf24        0x0 c:/intelfpga_lite/19.1/nios2eds/bin/gnu/h-x86_64-mingw32/bin/../lib/gcc/nios2-elf/8.3.1/../../../../../H-x86_64-mingw32/nios2-elf/lib\libc.a(lib_a-lseekr.o)
 .text._lseek_r
                0x000000000800bf24       0x64 c:/intelfpga_lite/19.1/nios2eds/bin/gnu/h-x86_64-mingw32/bin/../lib/gcc/nios2-elf/8.3.1/../../../../../H-x86_64-mingw32/nios2-elf/lib\libc.a(lib_a-lseekr.o)
                0x000000000800bf24                _lseek_r
 .text          0x000000000800bf88        0x0 c:/intelfpga_lite/19.1/nios2eds/bin/gnu/h-x86_64-mingw32/bin/../lib/gcc/nios2-elf/8.3.1/../../../../../H-x86_64-mingw32/nios2-elf/lib\libc.a(lib_a-mbtowc_r.o)
 .text._mbtowc_r
                0x000000000800bf88        0xc c:/intelfpga_lite/19.1/nios2eds/bin/gnu/h-x86_64-mingw32/bin/../lib/gcc/nios2-elf/8.3.1/../../../../../H-x86_64-mingw32/nios2-elf/lib\libc.a(lib_a-mbtowc_r.o)
                0x000000000800bf88                _mbtowc_r
 .text.__ascii_mbtowc
                0x000000000800bf94       0x44 c:/intelfpga_lite/19.1/nios2eds/bin/gnu/h-x86_64-mingw32/bin/../lib/gcc/nios2-elf/8.3.1/../../../../../H-x86_64-mingw32/nios2-elf/lib\libc.a(lib_a-mbtowc_r.o)
                0x000000000800bf94                __ascii_mbtowc
 .text          0x000000000800bfd8        0x0 c:/intelfpga_lite/19.1/nios2eds/bin/gnu/h-x86_64-mingw32/bin/../lib/gcc/nios2-elf/8.3.1/../../../../../H-x86_64-mingw32/nios2-elf/lib\libc.a(lib_a-readr.o)
 .text._read_r  0x000000000800bfd8       0x64 c:/intelfpga_lite/19.1/nios2eds/bin/gnu/h-x86_64-mingw32/bin/../lib/gcc/nios2-elf/8.3.1/../../../../../H-x86_64-mingw32/nios2-elf/lib\libc.a(lib_a-readr.o)
                0x000000000800bfd8                _read_r
 .text          0x000000000800c03c        0x0 c:/intelfpga_lite/19.1/nios2eds/bin/gnu/h-x86_64-mingw32/bin/../lib/gcc/nios2-elf/8.3.1/../../../../../H-x86_64-mingw32/nios2-elf/lib\libc.a(lib_a-refill.o)
 .text.lflush   0x000000000800c03c       0x1c c:/intelfpga_lite/19.1/nios2eds/bin/gnu/h-x86_64-mingw32/bin/../lib/gcc/nios2-elf/8.3.1/../../../../../H-x86_64-mingw32/nios2-elf/lib\libc.a(lib_a-refill.o)
 .text.__srefill_r
                0x000000000800c058      0x1cc c:/intelfpga_lite/19.1/nios2eds/bin/gnu/h-x86_64-mingw32/bin/../lib/gcc/nios2-elf/8.3.1/../../../../../H-x86_64-mingw32/nios2-elf/lib\libc.a(lib_a-refill.o)
                0x000000000800c058                __srefill_r
 .text          0x000000000800c224        0x0 c:/intelfpga_lite/19.1/nios2eds/bin/gnu/h-x86_64-mingw32/bin/../lib/gcc/nios2-elf/8.3.1/../../../../../H-x86_64-mingw32/nios2-elf/lib\libc.a(lib_a-strcmp.o)
 .text.strcmp   0x000000000800c224       0xd8 c:/intelfpga_lite/19.1/nios2eds/bin/gnu/h-x86_64-mingw32/bin/../lib/gcc/nios2-elf/8.3.1/../../../../../H-x86_64-mingw32/nios2-elf/lib\libc.a(lib_a-strcmp.o)
                0x000000000800c224                strcmp
 .text          0x000000000800c2fc        0x0 c:/intelfpga_lite/19.1/nios2eds/bin/gnu/h-x86_64-mingw32/bin/../lib/gcc/nios2-elf/8.3.1/../../../../../H-x86_64-mingw32/nios2-elf/lib\libc.a(lib_a-wcrtomb.o)
 .text._wcrtomb_r
                0x000000000800c2fc       0x6c c:/intelfpga_lite/19.1/nios2eds/bin/gnu/h-x86_64-mingw32/bin/../lib/gcc/nios2-elf/8.3.1/../../../../../H-x86_64-mingw32/nios2-elf/lib\libc.a(lib_a-wcrtomb.o)
                0x000000000800c2fc                _wcrtomb_r
 .text.wcrtomb  0x000000000800c368       0x84 c:/intelfpga_lite/19.1/nios2eds/bin/gnu/h-x86_64-mingw32/bin/../lib/gcc/nios2-elf/8.3.1/../../../../../H-x86_64-mingw32/nios2-elf/lib\libc.a(lib_a-wcrtomb.o)
                0x000000000800c368                wcrtomb
 .text          0x000000000800c3ec        0x0 c:/intelfpga_lite/19.1/nios2eds/bin/gnu/h-x86_64-mingw32/bin/../lib/gcc/nios2-elf/8.3.1/../../../../../H-x86_64-mingw32/nios2-elf/lib\libc.a(lib_a-wctomb_r.o)
 .text._wctomb_r
                0x000000000800c3ec        0xc c:/intelfpga_lite/19.1/nios2eds/bin/gnu/h-x86_64-mingw32/bin/../lib/gcc/nios2-elf/8.3.1/../../../../../H-x86_64-mingw32/nios2-elf/lib\libc.a(lib_a-wctomb_r.o)
                0x000000000800c3ec                _wctomb_r
 .text.__ascii_wctomb
                0x000000000800c3f8       0x30 c:/intelfpga_lite/19.1/nios2eds/bin/gnu/h-x86_64-mingw32/bin/../lib/gcc/nios2-elf/8.3.1/../../../../../H-x86_64-mingw32/nios2-elf/lib\libc.a(lib_a-wctomb_r.o)
                0x000000000800c3f8                __ascii_wctomb
 .text          0x000000000800c428      0x598 c:/intelfpga_lite/19.1/nios2eds/bin/gnu/h-x86_64-mingw32/bin/../lib/gcc/nios2-elf/8.3.1\libgcc.a(_udivdi3.o)
                0x000000000800c428                __udivdi3
 .text          0x000000000800c9c0      0x540 c:/intelfpga_lite/19.1/nios2eds/bin/gnu/h-x86_64-mingw32/bin/../lib/gcc/nios2-elf/8.3.1\libgcc.a(_umoddi3.o)
                0x000000000800c9c0                __umoddi3
 .text          0x000000000800cf00      0x1b8 c:/intelfpga_lite/19.1/nios2eds/bin/gnu/h-x86_64-mingw32/bin/../lib/gcc/nios2-elf/8.3.1\libgcc.a(lib2-divmod.o)
                0x000000000800cf00                __divsi3
                0x000000000800cf80                __modsi3
                0x000000000800cff8                __udivsi3
                0x000000000800d05c                __umodsi3
 .text          0x000000000800d0b8      0x9a0 c:/intelfpga_lite/19.1/nios2eds/bin/gnu/h-x86_64-mingw32/bin/../lib/gcc/nios2-elf/8.3.1\libgcc.a(adddf3.o)
                0x000000000800d0b8                __adddf3
 .text          0x000000000800da58      0x8a8 c:/intelfpga_lite/19.1/nios2eds/bin/gnu/h-x86_64-mingw32/bin/../lib/gcc/nios2-elf/8.3.1\libgcc.a(divdf3.o)
                0x000000000800da58                __divdf3
 .text          0x000000000800e300       0x80 c:/intelfpga_lite/19.1/nios2eds/bin/gnu/h-x86_64-mingw32/bin/../lib/gcc/nios2-elf/8.3.1\libgcc.a(eqdf2.o)
                0x000000000800e300                __nedf2
                0x000000000800e300                __eqdf2
 .text          0x000000000800e380       0xf0 c:/intelfpga_lite/19.1/nios2eds/bin/gnu/h-x86_64-mingw32/bin/../lib/gcc/nios2-elf/8.3.1\libgcc.a(gedf2.o)
                0x000000000800e380                __gedf2
                0x000000000800e380                __gtdf2
 .text          0x000000000800e470       0xf0 c:/intelfpga_lite/19.1/nios2eds/bin/gnu/h-x86_64-mingw32/bin/../lib/gcc/nios2-elf/8.3.1\libgcc.a(ledf2.o)
                0x000000000800e470                __ledf2
                0x000000000800e470                __ltdf2
 .text          0x000000000800e560      0x68c c:/intelfpga_lite/19.1/nios2eds/bin/gnu/h-x86_64-mingw32/bin/../lib/gcc/nios2-elf/8.3.1\libgcc.a(muldf3.o)
                0x000000000800e560                __muldf3
 .text          0x000000000800ebec      0x96c c:/intelfpga_lite/19.1/nios2eds/bin/gnu/h-x86_64-mingw32/bin/../lib/gcc/nios2-elf/8.3.1\libgcc.a(subdf3.o)
                0x000000000800ebec                __subdf3
 .text          0x000000000800f558       0x54 c:/intelfpga_lite/19.1/nios2eds/bin/gnu/h-x86_64-mingw32/bin/../lib/gcc/nios2-elf/8.3.1\libgcc.a(unorddf2.o)
                0x000000000800f558                __unorddf2
 .text          0x000000000800f5ac       0x80 c:/intelfpga_lite/19.1/nios2eds/bin/gnu/h-x86_64-mingw32/bin/../lib/gcc/nios2-elf/8.3.1\libgcc.a(fixdfsi.o)
                0x000000000800f5ac                __fixdfsi
 .text          0x000000000800f62c       0xc8 c:/intelfpga_lite/19.1/nios2eds/bin/gnu/h-x86_64-mingw32/bin/../lib/gcc/nios2-elf/8.3.1\libgcc.a(floatsidf.o)
                0x000000000800f62c                __floatsidf
 .text          0x000000000800f6f4       0x9c c:/intelfpga_lite/19.1/nios2eds/bin/gnu/h-x86_64-mingw32/bin/../lib/gcc/nios2-elf/8.3.1\libgcc.a(floatunsidf.o)
                0x000000000800f6f4                __floatunsidf
 .text          0x000000000800f790        0x0 c:/intelfpga_lite/19.1/nios2eds/bin/gnu/h-x86_64-mingw32/bin/../lib/gcc/nios2-elf/8.3.1\libgcc.a(_clz.o)
 .text          0x000000000800f790       0x54 c:/intelfpga_lite/19.1/nios2eds/bin/gnu/h-x86_64-mingw32/bin/../lib/gcc/nios2-elf/8.3.1\libgcc.a(_clzsi2.o)
                0x000000000800f790                __clzsi2
 .text          0x000000000800f7e4       0xbc ../hit_pat_bsp\libucosii_bsp.a(alt_flash_dev.o)
                0x000000000800f7e4                alt_flash_open_dev
                0x000000000800f84c                alt_flash_close_dev
 .text          0x000000000800f8a0       0xec ../hit_pat_bsp\libucosii_bsp.a(alt_fstat.o)
                0x000000000800f8dc                fstat
 .text          0x000000000800f98c       0xe0 ../hit_pat_bsp\libucosii_bsp.a(alt_isatty.o)
                0x000000000800f9c8                isatty
 .text          0x000000000800fa6c      0x110 ../hit_pat_bsp\libucosii_bsp.a(alt_lseek.o)
                0x000000000800faa8                lseek
 .text          0x000000000800fb7c       0xbc ../hit_pat_bsp\libucosii_bsp.a(alt_main.o)
                0x000000000800fb7c                alt_main
 .text          0x000000000800fc38       0xb0 ../hit_pat_bsp\libucosii_bsp.a(alt_sbrk.o)
                0x000000000800fc38                sbrk
 .text          0x000000000800fce8      0x124 ../hit_pat_bsp\libucosii_bsp.a(alt_env_lock.o)
                0x000000000800fce8                __env_lock
                0x000000000800fdac                __env_unlock
 .text          0x000000000800fe0c      0x1ec ../hit_pat_bsp\libucosii_bsp.a(alt_malloc_lock.o)
                0x000000000800fe0c                __malloc_lock
                0x000000000800ff2c                __malloc_unlock
 .text          0x000000000800fff8     0x1ba0 ../hit_pat_bsp\libucosii_bsp.a(os_core.o)
                0x000000000800fff8                OSEventNameGet
                0x00000000080100d0                OSEventNameSet
                0x00000000080101d0                OSEventPendMulti
                0x000000000801077c                OSInit
                0x00000000080107cc                OSIntEnter
                0x0000000008010818                OSIntExit
                0x0000000008010908                OSSchedLock
                0x0000000008010994                OSSchedUnlock
                0x0000000008010a70                OSStart
                0x0000000008010ad8                OSTimeTick
                0x0000000008010c98                OSVersion
                0x0000000008010cb8                OS_Dummy
                0x0000000008010cd8                OS_EventTaskRdy
                0x0000000008010e60                OS_EventTaskWait
                0x0000000008010f68                OS_EventTaskWaitMulti
                0x00000000080110b0                OS_EventTaskRemove
                0x0000000008011160                OS_EventTaskRemoveMulti
                0x0000000008011258                OS_EventWaitListInit
                0x00000000080115b0                OS_MemClr
                0x0000000008011604                OS_MemCopy
                0x000000000801166c                OS_Sched
                0x00000000080117a0                OS_StrCopy
                0x0000000008011814                OS_StrLen
                0x0000000008011868                OS_TaskIdle
                0x00000000080118c4                OS_TCBInit
 .text          0x0000000008011b98     0x15b8 ../hit_pat_bsp\libucosii_bsp.a(os_flag.o)
                0x0000000008011b98                OSFlagAccept
                0x0000000008011e78                OSFlagCreate
                0x0000000008011f70                OSFlagDel
                0x000000000801218c                OSFlagNameGet
                0x000000000801226c                OSFlagNameSet
                0x0000000008012378                OSFlagPend
                0x0000000008012910                OSFlagPendGetFlagsRdy
                0x0000000008012970                OSFlagPost
                0x0000000008012cdc                OSFlagQuery
                0x0000000008012ed8                OS_FlagInit
                0x00000000080130ac                OS_FlagUnlink
 .text          0x0000000008013150      0x5d4 ../hit_pat_bsp\libucosii_bsp.a(os_mem.o)
                0x0000000008013150                OSMemCreate
                0x0000000008013298                OSMemGet
                0x000000000801335c                OSMemNameGet
                0x0000000008013404                OSMemNameSet
                0x00000000080134d8                OSMemPut
                0x0000000008013590                OSMemQuery
                0x0000000008013658                OS_MemInit
 .text          0x0000000008013724      0xfe0 ../hit_pat_bsp\libucosii_bsp.a(os_mutex.o)
                0x0000000008013724                OSMutexAccept
                0x000000000801389c                OSMutexCreate
                0x0000000008013a1c                OSMutexDel
                0x0000000008013cdc                OSMutexPend
                0x0000000008014238                OSMutexPost
                0x0000000008014430                OSMutexQuery
 .text          0x0000000008014704      0xfd0 ../hit_pat_bsp\libucosii_bsp.a(os_q.o)
                0x0000000008014704                OSQAccept
                0x0000000008014818                OSQCreate
                0x00000000080149bc                OSQDel
                0x0000000008014c10                OSQFlush
                0x0000000008014c9c                OSQPend
                0x0000000008014efc                OSQPendAbort
                0x000000000801503c                OSQPost
                0x0000000008015194                OSQPostFront
                0x00000000080152f4                OSQPostOpt
                0x00000000080154f0                OSQQuery
                0x000000000801562c                OS_QInit
 .text          0x00000000080156d4      0x978 ../hit_pat_bsp\libucosii_bsp.a(os_sem.o)
                0x00000000080156d4                OSSemAccept
                0x0000000008015774                OSSemCreate
                0x000000000801584c                OSSemDel
                0x0000000008015a60                OSSemPend
                0x0000000008015c44                OSSemPendAbort
                0x0000000008015d84                OSSemPost
                0x0000000008015e84                OSSemQuery
                0x0000000008015f74                OSSemSet
 .text          0x000000000801604c     0x12c0 ../hit_pat_bsp\libucosii_bsp.a(os_task.o)
                0x000000000801604c                OSTaskChangePrio
                0x00000000080164cc                OSTaskCreate
                0x000000000801664c                OSTaskCreateExt
                0x00000000080167f0                OSTaskDel
                0x0000000008016b04                OSTaskDelReq
                0x0000000008016c2c                OSTaskNameGet
                0x0000000008016d64                OSTaskNameSet
                0x0000000008016ec0                OSTaskResume
                0x0000000008017078                OSTaskSuspend
                0x0000000008017220                OSTaskQuery
 .text          0x000000000801730c      0x488 ../hit_pat_bsp\libucosii_bsp.a(os_time.o)
                0x000000000801730c                OSTimeDly
                0x0000000008017410                OSTimeDlyHMSM
                0x000000000801750c                OSTimeDlyResume
                0x00000000080176d8                OSTimeGet
                0x0000000008017734                OSTimeSet
 .text          0x0000000008017794      0x298 ../hit_pat_bsp\libucosii_bsp.a(alt_sys_init.o)
                0x00000000080177c8                alt_irq_init
                0x0000000008017800                alt_sys_init
 .text          0x0000000008017a2c       0xf4 ../hit_pat_bsp\libucosii_bsp.a(altera_avalon_timer_sc.o)
                0x0000000008017aa4                alt_avalon_timer_sc_init
 .text          0x0000000008017b20     0x4f20 ../hit_pat_bsp\libucosii_bsp.a(altera_avalon_tse.o)
                0x0000000008017b20                no_printf
                0x0000000008017b50                tse_mac_initTransInfo2
                0x0000000008017bb0                tse_mac_sTxWrite
                0x0000000008017c78                tse_mac_aRxRead
                0x0000000008017ce8                tse_mac_aTxWrite
                0x0000000008017d58                tse_mac_SwReset
                0x0000000008017de0                tse_mac_setMIImode
                0x0000000008017e34                tse_mac_setGMIImode
                0x0000000008017e84                alt_tse_phy_add_profile
                0x0000000008018038                alt_tse_system_add_sys
                0x00000000080188fc                alt_tse_sys_enable_mdio_sharing
                0x0000000008018a40                alt_tse_mac_get_common_speed
                0x0000000008018a80                alt_tse_mac_set_common_speed
                0x0000000008018ac8                alt_tse_get_system_index
                0x0000000008018b34                alt_tse_get_mac_group_index
                0x0000000008018ba0                alt_tse_get_mac_info_index
                0x0000000008018c1c                alt_tse_get_mac_info
                0x0000000008018ce8                alt_tse_mac_set_speed
                0x0000000008018dc8                alt_tse_mac_set_duplex
                0x0000000008018e54                getPHYSpeed
                0x00000000080198cc                alt_tse_phy_rd_mdio_addr
                0x0000000008019914                alt_tse_phy_wr_mdio_addr
                0x000000000801996c                alt_tse_phy_wr_mdio_reg
                0x0000000008019a98                alt_tse_phy_rd_mdio_reg
                0x0000000008019b68                alt_tse_phy_add_profile_default
                0x0000000008019e30                alt_tse_phy_print_profile
                0x000000000801a000                alt_tse_mac_group_init
                0x000000000801a698                alt_tse_mac_get_phy
                0x000000000801aaa4                alt_tse_mac_associate_phy
                0x000000000801ace4                alt_tse_phy_cfg_pcs
                0x000000000801ae0c                alt_tse_phy_init
                0x000000000801af18                alt_tse_phy_restart_an
                0x000000000801b0dc                alt_tse_phy_check_link
                0x000000000801b264                alt_tse_phy_get_cap
                0x000000000801b7f0                alt_tse_phy_set_adv_1000
                0x000000000801b9b4                alt_tse_phy_set_adv_100
                0x000000000801bc08                alt_tse_phy_set_adv_10
                0x000000000801bdb0                alt_tse_phy_get_common_speed
                0x000000000801c0cc                alt_tse_phy_set_common_speed
                0x000000000801c57c                marvell_phy_cfg
                0x000000000801c614                marvell_cfg_gmii
                0x000000000801c6f8                marvell_cfg_sgmii
                0x000000000801c7dc                marvell_cfg_rgmii
                0x000000000801c8cc                DP83848C_link_status_read
                0x000000000801c944                PEF7071_config
                0x000000000801c9a0                PEF7071_link_status_read
 .text          0x000000000801ca40      0x110 ../hit_pat_bsp\libucosii_bsp.a(altera_avalon_uart_fd.o)
                0x000000000801ca40                altera_avalon_uart_read_fd
                0x000000000801caa0                altera_avalon_uart_write_fd
                0x000000000801cb00                altera_avalon_uart_close_fd
 .text          0x000000000801cb50      0x524 ../hit_pat_bsp\libucosii_bsp.a(altera_avalon_uart_init.o)
                0x000000000801cb50                altera_avalon_uart_init
                0x000000000801d020                altera_avalon_uart_close
 .text          0x000000000801d074      0x2a4 ../hit_pat_bsp\libucosii_bsp.a(altera_avalon_uart_read.o)
                0x000000000801d0b0                altera_avalon_uart_read
 .text          0x000000000801d318      0x270 ../hit_pat_bsp\libucosii_bsp.a(altera_avalon_uart_write.o)
                0x000000000801d354                altera_avalon_uart_write
 .text          0x000000000801d588      0xb14 ../hit_pat_bsp\libucosii_bsp.a(altera_generic_quad_spi_controller.o)
                0x000000000801d5bc                alt_qspi_controller_lock
                0x000000000801d6cc                alt_qspi_controller_get_info
                0x000000000801d758                alt_qspi_controller_erase_block
                0x000000000801d87c                alt_qspi_controller_write_block
                0x000000000801da8c                alt_qspi_controller_write
                0x000000000801dc74                alt_qspi_controller_read
                0x000000000801dd20                altera_qspi_controller_init
 .text          0x000000000801e09c     0x213c ../hit_pat_bsp\libucosii_bsp.a(altera_msgdma.o)
                0x000000000801ed40                alt_msgdma_construct_standard_st_to_mm_descriptor
                0x000000000801ed98                alt_msgdma_construct_standard_mm_to_st_descriptor
                0x000000000801edf0                alt_msgdma_construct_standard_mm_to_mm_descriptor
                0x000000000801ee48                alt_msgdma_construct_extended_st_to_mm_descriptor
                0x000000000801eed8                alt_msgdma_construct_extended_mm_to_st_descriptor
                0x000000000801ef68                alt_msgdma_construct_extended_mm_to_mm_descriptor
                0x000000000801f248                alt_msgdma_construct_prefetcher_standard_mm_to_mm_descriptor
                0x000000000801f2a0                alt_msgdma_construct_prefetcher_standard_st_to_mm_descriptor
                0x000000000801f2f8                alt_msgdma_construct_prefetcher_standard_mm_to_st_descriptor
                0x000000000801f350                alt_msgdma_construct_prefetcher_extended_st_to_mm_descriptor
                0x000000000801f3f0                alt_msgdma_construct_prefetcher_extended_mm_to_st_descriptor
                0x000000000801f488                alt_msgdma_construct_prefetcher_extended_mm_to_mm_descriptor
                0x000000000801f540                alt_msgdma_prefetcher_add_standard_desc_to_list
                0x000000000801f630                alt_msgdma_prefetcher_add_extended_desc_to_list
                0x000000000801f7c8                alt_msgdma_prefetcher_set_std_list_own_by_hw_bits
                0x000000000801f8d8                alt_msgdma_prefetcher_set_extd_list_own_by_hw_bits
                0x000000000801fa24                alt_msgdma_start_prefetcher_with_list_addr
                0x000000000801fd34                alt_msgdma_start_prefetcher_with_std_desc_list
                0x000000000801fde4                alt_msgdma_start_prefetcher_with_extd_desc_list
                0x000000000801fe94                alt_msgdma_open
                0x000000000801feec                alt_msgdma_init
                0x0000000008020094                alt_msgdma_register_callback
                0x00000000080200e8                alt_msgdma_standard_descriptor_async_transfer
                0x0000000008020124                alt_msgdma_extended_descriptor_async_transfer
                0x0000000008020160                alt_msgdma_standard_descriptor_sync_transfer
                0x000000000802019c                alt_msgdma_extended_descriptor_sync_transfer
 .text          0x00000000080201d8      0xf00 ../hit_pat_bsp\libucosii_bsp.a(altera_onchip_flash.o)
                0x000000000802020c                alt_onchip_flash_read
                0x00000000080202d8                alt_onchip_flash_get_info
                0x0000000008020374                alt_onchip_flash_erase_block
                0x00000000080204dc                alt_onchip_flash_write_block
                0x00000000080207b4                alt_onchip_flash_write
                0x0000000008020a80                altera_onchip_flash_init
                0x0000000008020f20                alt_onchip_flash_poll_for_status_to_go_idle
                0x0000000008020fb0                alt_onchip_flash_poll_for_status_erase_passed
                0x0000000008021044                alt_onchip_flash_poll_for_status_write_passed
 .text          0x00000000080210d8     0x1988 ../hit_pat_bsp\libucosii_bsp.a(ins_tse_mac.o)
                0x00000000080210d8                altera_eth_tse_init
                0x0000000008021220                prep_tse_mac
                0x000000000802144c                msgdma_reset
                0x00000000080214c4                tse_mac_init
                0x0000000008021f28                tse_msgdma_write_init
                0x0000000008022048                tse_mac_raw_send
                0x0000000008022210                tse_msgdmaRx_isr
                0x00000000080223a8                tse_msgdmaTx_isr
                0x0000000008022408                tse_msgdma_read_init
                0x00000000080226c0                allocate_rx_descriptor_chain
                0x00000000080227f8                tse_mac_rcv
                0x0000000008022944                tse_mac_stats
                0x0000000008022984                tse_mac_close
 .text          0x0000000008022a60       0x48 ../hit_pat_bsp\libucosii_bsp.a(alt_iniche_close.o)
                0x0000000008022a60                close
 .text          0x0000000008022aa8      0x124 ../hit_pat_bsp\libucosii_bsp.a(alt_iniche_dev.o)
                0x0000000008022aa8                iniche_devices_init
 .text          0x0000000008022bcc       0x70 ../hit_pat_bsp\libucosii_bsp.a(alt_iniche_read.o)
                0x0000000008022bcc                read
 .text          0x0000000008022c3c       0x68 ../hit_pat_bsp\libucosii_bsp.a(alt_iniche_write.o)
                0x0000000008022c3c                write
 .text          0x0000000008022ca4     0x13e4 ../hit_pat_bsp\libucosii_bsp.a(et_arp.o)
                0x0000000008022ca4                etainit
                0x0000000008022cec                et_send
                0x0000000008022e6c                arp_free_pending
                0x0000000008022ef4                arp_send_pending
                0x0000000008022f68                send_arp
                0x00000000080233bc                find_oldest_arp
                0x0000000008023528                make_arp_entry
                0x0000000008023624                arpReply
                0x00000000080238e4                arprcv
                0x0000000008023b48                send_via_arp
                0x0000000008023cc4                cb_arpent_tmo
                0x0000000008023dd0                grat_arp
 .text          0x0000000008024088      0x25c ../hit_pat_bsp\libucosii_bsp.a(iface.o)
                0x0000000008024088                if_getbynum
                0x00000000080240f4                isbcast
                0x00000000080241c8                reg_type
                0x0000000008024254                if_killsocks
 .text          0x00000000080242e4      0xc9c ../hit_pat_bsp\libucosii_bsp.a(ipnet.o)
                0x00000000080242e4                Netinit
                0x00000000080247b4                fixup_subnet_mask
                0x00000000080248e4                netclose
                0x00000000080249c4                pktdemux
                0x0000000008024d64                c_older
                0x0000000008024df4                ip2mac
 .text          0x0000000008024f80      0x3fc ../hit_pat_bsp\libucosii_bsp.a(ipstart.o)
                0x0000000008024f80                ip_startup
                0x00000000080251e4                exit_hook
                0x000000000802524c                ip_exit
                0x00000000080252fc                if_netnumber
 .text          0x000000000802537c      0xe98 ../hit_pat_bsp\libucosii_bsp.a(igmp_cmn.o)
                0x000000000802537c                igmp_init
                0x000000000802541c                igmp_input
                0x00000000080254ec                igmp_fasttimo
                0x000000000802565c                igmp_send
                0x00000000080258d8                igmp_joingroup
                0x0000000008025b04                igmp_leavegroup
                0x0000000008025b84                igmp_validate
                0x0000000008025e60                igmp_print_stats
 .text          0x0000000008026214      0xac4 ../hit_pat_bsp\libucosii_bsp.a(bsdsock.o)
                0x0000000008026214                bsd_accept
                0x0000000008026334                bsd_getpeername
                0x0000000008026454                bsd_getsockname
                0x0000000008026574                bsd_i_sockoptlen
                0x0000000008026704                bsd_getsockopt
                0x000000000802680c                bsd_ioctl
                0x00000000080268fc                bsd_inet_ntoa
                0x0000000008026930                bsd_recvfrom
                0x0000000008026a74                bsd_select
                0x0000000008026bfc                bsd_setsockopt
 .text          0x0000000008026cd8       0xf8 ../hit_pat_bsp\libucosii_bsp.a(cksum.o)
                0x0000000008026cd8                ccksum
                0x0000000008026d7c                cksum
 .text          0x0000000008026dd0      0xa44 ../hit_pat_bsp\libucosii_bsp.a(in_utils.o)
                0x0000000008026dd0                do_trap
                0x0000000008026dfc                nextarg
                0x0000000008026e78                hexdump
                0x0000000008026fbc                print_ipad
                0x0000000008027038                print_uptime
                0x0000000008027178                panic
                0x00000000080271c0                print_eth
                0x0000000008027314                uslash
                0x0000000008027390                ns_printf
                0x0000000008027500                std_out
                0x0000000008027544                con_page
                0x000000000802761c                parse_args
 .text          0x0000000008027814      0x19c ../hit_pat_bsp\libucosii_bsp.a(netmain.o)
                0x0000000008027814                netmain
                0x00000000080278f4                tk_netmain
                0x000000000802796c                tk_nettick
 .text          0x00000000080279b0      0x55c ../hit_pat_bsp\libucosii_bsp.a(tk_crnos.o)
                0x00000000080279b0                TK_OSTimeDly
                0x00000000080279e0                TK_OSTaskResume
                0x0000000008027a54                tcp_sleep
                0x0000000008027ba0                tcp_wakeup
                0x0000000008027c78                TK_OSTaskQuery
                0x0000000008027ce4                tk_yield
                0x0000000008027d14                tk_stats
 .text          0x0000000008027f0c      0x29c ../hit_pat_bsp\libucosii_bsp.a(ping.o)
                0x0000000008027f0c                icmpEcho
 .text          0x00000000080281a8      0x730 ../hit_pat_bsp\libucosii_bsp.a(pktalloc.o)
                0x00000000080281a8                pk_init
                0x0000000008028434                pk_alloc
                0x00000000080284f4                pk_validate
                0x0000000008028748                pk_free
                0x00000000080287f4                pk_get_max_intrsafe_buf_len
                0x0000000008028814                dump_buf_estats
 .text          0x00000000080288d8      0x268 ../hit_pat_bsp\libucosii_bsp.a(q.o)
                0x00000000080288d8                getq
                0x0000000008028990                putq
                0x0000000008028a40                qdel
 .text          0x0000000008028b40      0x194 ../hit_pat_bsp\libucosii_bsp.a(asm_cksum.o)
                0x0000000008028b40                asm_cksum
 .text          0x0000000008028cd4      0x264 ../hit_pat_bsp\libucosii_bsp.a(brdutils.o)
                0x0000000008028cd4                dtrap
                0x0000000008028d08                kbhit
                0x0000000008028d90                getch
                0x0000000008028de0                clock_init
                0x0000000008028e18                clock_c
                0x0000000008028e38                cticks_hook
                0x0000000008028e94                irq_Mask
                0x0000000008028ef4                irq_Unmask
 .text          0x0000000008028f38      0x4a4 ../hit_pat_bsp\libucosii_bsp.a(osportco.o)
                0x0000000008028f38                LOCK_NET_RESOURCE
                0x0000000008028ff4                UNLOCK_NET_RESOURCE
                0x0000000008029074                TK_NEWTASK
                0x00000000080292b4                wait_app_sem
                0x0000000008029368                post_app_sem
 .text          0x00000000080293dc      0x538 ../hit_pat_bsp\libucosii_bsp.a(targnios.o)
                0x00000000080293dc                alt_iniche_init
                0x000000000802959c                pre_task_setup
                0x00000000080295e8                post_task_setup
                0x0000000008029608                prep_armintcp
                0x0000000008029640                npalloc_base
                0x000000000802974c                npfree_base
                0x000000000802982c                npalloc
                0x0000000008029860                npfree
                0x00000000080298a0                ncpalloc
                0x00000000080298d4                ncpfree
 .text          0x0000000008029914     0x17b4 ../hit_pat_bsp\libucosii_bsp.a(nptcp.o)
                0x0000000008029914                pffindtype
                0x00000000080299a4                pffindproto
                0x0000000008029a70                m_getnbuf
                0x0000000008029bf8                m_free
                0x0000000008029cfc                m_freem
                0x0000000008029d40                m_copy
                0x000000000802a018                m_adj
                0x000000000802a1d8                mbuf_len
                0x000000000802a22c                dtom
                0x000000000802a2c4                remque
                0x000000000802a334                insque
                0x000000000802a3b0                nptcp_init
                0x000000000802a4a4                tcp_rcv
                0x000000000802a658                ip_output
                0x000000000802abe0                in_broadcast
                0x000000000802ac18                np_stripoptions
                0x000000000802ad08                so_icmpdu
                0x000000000802b050                tcp_tick
 .text          0x000000000802b0c8      0x958 ../hit_pat_bsp\libucosii_bsp.a(rawsock.o)
                0x000000000802b0c8                rawip_lookup
                0x000000000802b124                rawip_soinput
                0x000000000802b2e8                rawip_usrreq
 .text          0x000000000802ba20     0x1630 ../hit_pat_bsp\libucosii_bsp.a(sockcall.o)
                0x000000000802ba20                DOMAIN_CHECK
                0x000000000802ba70                t_socket
                0x000000000802baf0                t_bind
                0x000000000802bc50                t_listen
                0x000000000802bd24                t_accept
                0x000000000802bf74                t_connect
                0x000000000802c1e4                t_getpeername
                0x000000000802c228                t_getsockname
                0x000000000802c44c                t_setsockopt
                0x000000000802c60c                t_getsockopt
                0x000000000802c794                t_recv
                0x000000000802c870                t_recvfrom
                0x000000000802c9ac                t_sendto
                0x000000000802cb9c                t_send
                0x000000000802cd9c                t_shutdown
                0x000000000802ce70                t_socketclose
                0x000000000802cfbc                t_errno
 .text          0x000000000802d050     0x2128 ../hit_pat_bsp\libucosii_bsp.a(socket.o)
                0x000000000802d050                socreate
                0x000000000802d1f8                sobind
                0x000000000802d254                solisten
                0x000000000802d324                sofree
                0x000000000802d434                soclose
                0x000000000802d6fc                soabort
                0x000000000802d74c                soaccept
                0x000000000802d7e4                soconnect
                0x000000000802d89c                sodisconnect
                0x000000000802d934                sosend
                0x000000000802de94                soreceive
                0x000000000802e5ec                soshutdown
                0x000000000802e684                sorflush
                0x000000000802e780                sosetopt
                0x000000000802ec0c                sogetopt
                0x000000000802f12c                sohasoutofband
 .text          0x000000000802f178     0x1280 ../hit_pat_bsp\libucosii_bsp.a(socket2.o)
                0x000000000802f178                soisconnecting
                0x000000000802f1e8                soisconnected
                0x000000000802f2ec                soisdisconnecting
                0x000000000802f384                soisdisconnected
                0x000000000802f448                sonewconn
                0x000000000802f640                soqinsque
                0x000000000802f6ec                soqremque
                0x000000000802f7f4                socantsendmore
                0x000000000802f84c                socantrcvmore
                0x000000000802f8a4                sbselqueue
                0x000000000802f8e0                sbwait
                0x000000000802f94c                sbwakeup
                0x000000000802f9d8                soreserve
                0x000000000802fa60                sbreserve
                0x000000000802fab0                sbrelease
                0x000000000802fafc                sbappend
                0x000000000802fb9c                sbappendrecord
                0x000000000802fc74                sbappendaddr
                0x000000000802fe50                sbcompress
                0x000000000803002c                sbflush
                0x00000000080300b0                sbdrop
                0x0000000008030268                sbdropend
                0x0000000008030368                sbdroprecord
 .text          0x00000000080303f8      0x868 ../hit_pat_bsp\libucosii_bsp.a(soselect.o)
                0x00000000080303f8                t_select
                0x00000000080305c8                sock_selscan
                0x0000000008030708                sock_select
                0x00000000080308f0                in_pcbnotify
                0x00000000080309b4                tcp_notify
                0x0000000008030a34                ifd_clr
                0x0000000008030b18                ifd_set
                0x0000000008030b8c                ifd_isset
                0x0000000008030c00                ifd_get
 .text          0x0000000008030c60     0x2c34 ../hit_pat_bsp\libucosii_bsp.a(tcp_in.o)
                0x0000000008030c60                tcp_reass
                0x0000000008031050                tcp_input
                0x0000000008033264                tcp_dooptions
                0x00000000080333ec                tcp_pulloutofband
                0x0000000008033518                tcp_xmit_timer
                0x0000000008033754                ip4_tcpmss
                0x000000000803379c                tcp_mss
 .text          0x0000000008033894     0x1164 ../hit_pat_bsp\libucosii_bsp.a(tcp_out.o)
                0x0000000008033894                tcp_output
                0x0000000008034830                tcp_setpersist
 .text          0x00000000080349f8      0x910 ../hit_pat_bsp\libucosii_bsp.a(tcp_subr.o)
                0x00000000080349f8                tcp_init
                0x0000000008034a40                tcp_template
                0x0000000008034b48                tcp_respond
                0x0000000008034f40                tcp_newtcpcb
                0x000000000803504c                tcp_drop
                0x00000000080350e8                tcp_close
                0x00000000080351d0                tcp_quench
                0x000000000803521c                tcp_putseq
                0x0000000008035294                tcp_getseq
 .text          0x0000000008035308      0x70c ../hit_pat_bsp\libucosii_bsp.a(tcp_timr.o)
                0x0000000008035308                tcp_slowtimo
                0x0000000008035564                tcp_canceltimers
                0x00000000080355c0                tcp_timers
 .text          0x0000000008035a14      0x968 ../hit_pat_bsp\libucosii_bsp.a(tcp_usr.o)
                0x0000000008035a14                tcp_usrreq
                0x00000000080360cc                tcp_attach
                0x00000000080361e4                tcp_disconnect
                0x00000000080362b0                tcp_usrclosed
 .text          0x000000000803637c       0x40 ../hit_pat_bsp\libucosii_bsp.a(tcpport.o)
                0x000000000803637c                tcpinit
 .text          0x00000000080363bc      0xba0 ../hit_pat_bsp\libucosii_bsp.a(udpsock.o)
                0x00000000080363bc                udp_lookup
                0x0000000008036418                udp_soinput
                0x00000000080365b8                udp_usrreq
                0x00000000080367f0                udp4_sockbind
                0x0000000008036ac0                udp4_socksend
                0x0000000008036e34                udp4_sockaddr
 .text          0x0000000008036f5c      0x158 ../hit_pat_bsp\libucosii_bsp.a(alt_busy_sleep.o)
                0x0000000008036f5c                alt_busy_sleep
 .text          0x00000000080370b4      0x10c ../hit_pat_bsp\libucosii_bsp.a(alt_close.o)
                0x00000000080370f0                alt_close
 .text          0x00000000080371c0       0x78 ../hit_pat_bsp\libucosii_bsp.a(alt_dcache_flush.o)
                0x00000000080371c0                alt_dcache_flush
 .text          0x0000000008037238       0x2c ../hit_pat_bsp\libucosii_bsp.a(alt_dev.o)
 .text          0x0000000008037264       0xe0 ../hit_pat_bsp\libucosii_bsp.a(alt_dev_llist_insert.o)
                0x00000000080372a0                alt_dev_llist_insert
 .text          0x0000000008037344       0x60 ../hit_pat_bsp\libucosii_bsp.a(alt_do_ctors.o)
                0x0000000008037344                _do_ctors
 .text          0x00000000080373a4       0x60 ../hit_pat_bsp\libucosii_bsp.a(alt_do_dtors.o)
                0x00000000080373a4                _do_dtors
 .text          0x0000000008037404        0x0 ../hit_pat_bsp\libucosii_bsp.a(alt_errno.o)
 .text          0x0000000008037404       0x90 ../hit_pat_bsp\libucosii_bsp.a(alt_find_dev.o)
                0x0000000008037404                alt_find_dev
 .text          0x0000000008037494      0x1b0 ../hit_pat_bsp\libucosii_bsp.a(alt_iic.o)
                0x0000000008037494                alt_ic_isr_register
                0x00000000080374e4                alt_ic_irq_enable
                0x000000000803756c                alt_ic_irq_disable
                0x00000000080375f8                alt_ic_irq_enabled
 .text          0x0000000008037644       0xe4 ../hit_pat_bsp\libucosii_bsp.a(alt_iic_isr_register.o)
                0x0000000008037644                alt_iic_isr_register
 .text          0x0000000008037728      0x12c ../hit_pat_bsp\libucosii_bsp.a(alt_io_redirect.o)
                0x00000000080377d8                alt_io_redirect
 .text          0x0000000008037854        0x0 ../hit_pat_bsp\libucosii_bsp.a(alt_irq_entry.o)
 .text          0x0000000008037854        0x0 ../hit_pat_bsp\libucosii_bsp.a(alt_irq_handler.o)
 .text          0x0000000008037854        0x0 ../hit_pat_bsp\libucosii_bsp.a(alt_irq_vars.o)
 .text          0x0000000008037854      0x248 ../hit_pat_bsp\libucosii_bsp.a(alt_open.o)
                0x0000000008037948                open
 .text          0x0000000008037a9c      0x22c ../hit_pat_bsp\libucosii_bsp.a(alt_printf.o)
                0x0000000008037a9c                alt_printf
 .text          0x0000000008037cc8       0x30 ../hit_pat_bsp\libucosii_bsp.a(alt_putchar.o)
                0x0000000008037cc8                alt_putchar
 .text          0x0000000008037cf8      0x138 ../hit_pat_bsp\libucosii_bsp.a(alt_read.o)
                0x0000000008037d34                alt_read
 .text          0x0000000008037e30       0x58 ../hit_pat_bsp\libucosii_bsp.a(alt_release_fd.o)
                0x0000000008037e30                alt_release_fd
 .text          0x0000000008037e88       0x34 ../hit_pat_bsp\libucosii_bsp.a(alt_remap_cached.o)
                0x0000000008037e88                alt_remap_cached
 .text          0x0000000008037ebc      0x1a4 ../hit_pat_bsp\libucosii_bsp.a(alt_tick.o)
                0x0000000008037ebc                alt_alarm_stop
                0x0000000008037f58                alt_tick
 .text          0x0000000008038060       0x44 ../hit_pat_bsp\libucosii_bsp.a(alt_uncached_free.o)
                0x0000000008038060                alt_uncached_free
 .text          0x00000000080380a4       0x78 ../hit_pat_bsp\libucosii_bsp.a(alt_uncached_malloc.o)
                0x00000000080380a4                alt_uncached_malloc
 .text          0x000000000803811c      0x114 ../hit_pat_bsp\libucosii_bsp.a(alt_usleep.o)
                0x000000000803811c                usleep
 .text          0x0000000008038230      0x134 ../hit_pat_bsp\libucosii_bsp.a(alt_write.o)
                0x000000000803826c                alt_write
 .text          0x0000000008038364       0x24 ../hit_pat_bsp\libucosii_bsp.a(altera_nios2_gen2_irq.o)
                0x0000000008038364                altera_nios2_gen2_irq_init
 .text          0x0000000008038388       0xd0 ../hit_pat_bsp\libucosii_bsp.a(os_cpu_a.o)
                0x0000000008038388                OSCtxSw
                0x0000000008038388                OSIntCtxSw
                0x0000000008038414                OSStartHighRdy
                0x0000000008038434                OSStartTsk
 .text          0x0000000008038458      0x284 ../hit_pat_bsp\libucosii_bsp.a(os_cpu_c.o)
                0x0000000008038458                OSTaskStkInit
                0x00000000080385a4                OSTaskCreateHook
                0x00000000080385c8                OSTaskDelHook
                0x00000000080385ec                OSTaskSwHook
                0x000000000803860c                OSTaskStatHook
                0x000000000803862c                OSTimeTickHook
                0x0000000008038658                OSInitHookBegin
                0x0000000008038678                OSInitHookEnd
                0x0000000008038698                OSTaskIdleHook
                0x00000000080386b8                OSTCBInitHook
 .text          0x00000000080386dc      0x3d4 ../hit_pat_bsp\libucosii_bsp.a(allports.o)
                0x00000000080386dc                netmain_init
                0x00000000080387c4                icmp_port_du
                0x0000000008038850                station_state
                0x00000000080389b0                sysuptime
                0x00000000080389e8                packet_check
                0x0000000008038a38                mcastlist
                0x0000000008038a5c                prep_modules
 .text          0x0000000008038ab0      0x388 ../hit_pat_bsp\libucosii_bsp.a(timeouts.o)
                0x0000000008038ab0                inet_timer
                0x0000000008038c74                in_timerset
                0x0000000008038da0                in_timerkill
 .text          0x0000000008038e38       0xa0 ../hit_pat_bsp\libucosii_bsp.a(tk_misc.o)
                0x0000000008038e38                create_apptasks
                0x0000000008038e5c                task_stats
 .text          0x0000000008038ed8       0xa0 ../hit_pat_bsp\libucosii_bsp.a(alt_iniche_fcntl.o)
                0x0000000008038ed8                fcntl
 .text          0x0000000008038f78     0x10f8 ../hit_pat_bsp\libucosii_bsp.a(icmp.o)
                0x0000000008038f78                icmprcv
                0x0000000008039a54                icmp_destun
                0x0000000008039d2c                icmp_timex
                0x000000000803a01c                icmp_du
 .text          0x000000000803a070     0x15f8 ../hit_pat_bsp\libucosii_bsp.a(ip.o)
                0x000000000803a070                ip_init
                0x000000000803a148                ip_bldhead
                0x000000000803a2d4                ip_write_internal
                0x000000000803a9e8                ip_write
                0x000000000803abf8                ip_write2
                0x000000000803af6c                ip_raw_write
                0x000000000803b028                ip_mymach
                0x000000000803b0cc                ip_dump
                0x000000000803b370                iproute
                0x000000000803b53c                ip_copypkt
 .text          0x000000000803b668      0xc44 ../hit_pat_bsp\libucosii_bsp.a(ipdemux.o)
                0x000000000803b668                ip_rcv
                0x000000000803b9bc                ip_rcv_phase2
                0x000000000803bf08                ip_demux
 .text          0x000000000803c2ac      0x2bc ../hit_pat_bsp\libucosii_bsp.a(ipmc.o)
                0x000000000803c2ac                in_addmulti
                0x000000000803c3f8                in_delmulti
                0x000000000803c504                lookup_mcast
 .text          0x000000000803c568       0xd4 ../hit_pat_bsp\libucosii_bsp.a(ipport.o)
                0x000000000803c568                prep_ifaces
                0x000000000803c5e8                netexit
                0x000000000803c610                evtmap_setup
 .text          0x000000000803c63c      0x4ec ../hit_pat_bsp\libucosii_bsp.a(ipraw.o)
                0x000000000803c63c                ip_raw_open
                0x000000000803c714                ip_raw_close
                0x000000000803c7d0                ip_raw_input
                0x000000000803c9e4                ip_raw_alloc
                0x000000000803ca9c                ip_raw_free
                0x000000000803cae0                ip_raw_maxalloc
 .text          0x000000000803cb28      0x60c ../hit_pat_bsp\libucosii_bsp.a(iproute.o)
                0x000000000803cb28                rt_lookup
                0x000000000803cc7c                add_route
                0x000000000803d020                del_route
 .text          0x000000000803d134      0xcc8 ../hit_pat_bsp\libucosii_bsp.a(udp.o)
                0x000000000803d134                udpdemux
                0x000000000803d8a0                udp_send
                0x000000000803db34                udpswap
                0x000000000803dc28                udp_socket
                0x000000000803dcd8                udp_alloc
                0x000000000803dd94                udp_maxalloc
                0x000000000803ddb8                udp_free
 .text          0x000000000803ddfc      0x268 ../hit_pat_bsp\libucosii_bsp.a(igmp.o)
                0x000000000803ddfc                igmpv1_input
 .text          0x000000000803e064      0x64c ../hit_pat_bsp\libucosii_bsp.a(igmp2.o)
                0x000000000803e064                igmpv2_input
                0x000000000803e170                igmpv2_process_report
                0x000000000803e284                igmpv2_process_query
                0x000000000803e444                igmpv2_chk_set_timer
                0x000000000803e574                igmpv2_chk4_rtr_alert_opt
 .text          0x000000000803e6b0      0x848 ../hit_pat_bsp\libucosii_bsp.a(ipopt.o)
                0x000000000803e6b0                IPADDR_TO_NETP
                0x000000000803e7c4                ip_setmoptions
                0x000000000803ed64                ip_getmoptions
                0x000000000803ee74                ip_freemoptions
 .text          0x000000000803eef8      0x6a0 ../hit_pat_bsp\libucosii_bsp.a(u_mctest.o)
                0x000000000803eef8                u_mctest_init
                0x000000000803ef2c                u_mctest_run
 .text          0x000000000803f598      0x3a4 ../hit_pat_bsp\libucosii_bsp.a(memdev.o)
                0x000000000803f598                init_memdev
                0x000000000803f5e8                md_fopen
                0x000000000803f610                md_fclose
                0x000000000803f634                md_fread
                0x000000000803f78c                md_fwrite
                0x000000000803f804                md_fseek
                0x000000000803f830                md_ftell
                0x000000000803f854                md_fgetc
                0x000000000803f918                md_unlink
 .text          0x000000000803f93c      0x784 ../hit_pat_bsp\libucosii_bsp.a(parseip.o)
                0x000000000803f93c                parse_ipad
                0x000000000803fc38                inet_addr
                0x000000000803fc9c                hextoa
                0x000000000803fce8                inet_pton
                0x000000000803fd7c                inet_ntop
                0x000000000803fe00                print46_addr
                0x000000000803fe5c                inet46_addr
                0x000000000803ff20                inet_setport
                0x000000000803ff8c                convert_ip
 .text          0x00000000080400c0      0x194 ../hit_pat_bsp\libucosii_bsp.a(tcpcksum.o)
                0x00000000080400c0                tcp_cksum
 .text          0x0000000008040254      0x2d8 ../hit_pat_bsp\libucosii_bsp.a(udp_open.o)
                0x0000000008040254                udp_open
                0x0000000008040454                udp_close
 .text          0x000000000804052c      0x888 ../hit_pat_bsp\libucosii_bsp.a(in_pcb.o)
                0x000000000804052c                in_pcballoc
                0x00000000080405b4                in_pcbdetach
                0x000000000804060c                in_pcbbind
                0x000000000804081c                in_pcbconnect
                0x00000000080409fc                in_pcbdisconnect
                0x0000000008040a58                in_setsockaddr
                0x0000000008040adc                in_setpeeraddr
                0x0000000008040b60                in_pcblookup
 .text          0x0000000008040db4     0x18e0 ../hit_pat_bsp\libucosii_bsp.a(vfsfiles.o)
                0x0000000008040db4                set_vfopen_error
                0x0000000008040de0                get_vfopen_error
                0x0000000008040e00                vf_alloc_and_link_vop
                0x0000000008040e70                vf_alloc_buffer
                0x0000000008040f38                vf_free_buffer
                0x0000000008040f88                vfopen_locked
                0x00000000080412c0                vfopen
                0x0000000008041310                vfclose_locked
                0x00000000080414cc                vfclose
                0x0000000008041510                vfflush
                0x0000000008041558                vfgets
                0x0000000008041628                vfeof
                0x0000000008041678                vunlink_flag_open_files
                0x00000000080416d4                vunlink
                0x00000000080418d4                vfread
                0x0000000008041a5c                vfwrite_locked
                0x0000000008041e08                vfwrite
                0x0000000008041e68                vfseek
                0x0000000008041fbc                vftell
                0x00000000080420c8                vgetc_locked
                0x00000000080421c0                vgetc
                0x0000000008042208                vfslookup_locked
                0x000000000804232c                vfslookup
                0x0000000008042374                strippath
                0x0000000008042540                isvfile_locked
                0x0000000008042598                isvfile
                0x00000000080425e0                vferror
                0x000000000804263c                vclearerr
 .text          0x0000000008042694       0x24 ../hit_pat_bsp\libucosii_bsp.a(vfsport.o)
                0x0000000008042694                prep_vfs
 .text          0x00000000080426b8        0x0 ../hit_pat_bsp\libucosii_bsp.a(alt_exception_entry.o)
 .text          0x00000000080426b8      0x160 ../hit_pat_bsp\libucosii_bsp.a(alt_fcntl.o)
                0x00000000080426f4                alt_fcntl
 .text          0x0000000008042818      0x108 ../hit_pat_bsp\libucosii_bsp.a(alt_find_file.o)
                0x0000000008042818                alt_find_file
 .text          0x0000000008042920       0xd8 ../hit_pat_bsp\libucosii_bsp.a(alt_get_fd.o)
                0x0000000008042920                alt_get_fd
 .text          0x00000000080429f8       0x98 ../hit_pat_bsp\libucosii_bsp.a(alt_instruction_exception_entry.o)
                0x00000000080429f8                alt_exception_cause_generated_bad_addr
 .text          0x0000000008042a90        0x0 c:/intelfpga_lite/19.1/nios2eds/bin/gnu/h-x86_64-mingw32/bin/../lib/gcc/nios2-elf/8.3.1/../../../../../H-x86_64-mingw32/nios2-elf/lib\libc.a(lib_a-atexit.o)
 .text.atexit   0x0000000008042a90       0x14 c:/intelfpga_lite/19.1/nios2eds/bin/gnu/h-x86_64-mingw32/bin/../lib/gcc/nios2-elf/8.3.1/../../../../../H-x86_64-mingw32/nios2-elf/lib\libc.a(lib_a-atexit.o)
                0x0000000008042a90                atexit
 .text          0x0000000008042aa4        0x0 c:/intelfpga_lite/19.1/nios2eds/bin/gnu/h-x86_64-mingw32/bin/../lib/gcc/nios2-elf/8.3.1/../../../../../H-x86_64-mingw32/nios2-elf/lib\libc.a(lib_a-atoi.o)
 .text.atoi     0x0000000008042aa4        0xc c:/intelfpga_lite/19.1/nios2eds/bin/gnu/h-x86_64-mingw32/bin/../lib/gcc/nios2-elf/8.3.1/../../../../../H-x86_64-mingw32/nios2-elf/lib\libc.a(lib_a-atoi.o)
                0x0000000008042aa4                atoi
 .text._atoi_r  0x0000000008042ab0        0xc c:/intelfpga_lite/19.1/nios2eds/bin/gnu/h-x86_64-mingw32/bin/../lib/gcc/nios2-elf/8.3.1/../../../../../H-x86_64-mingw32/nios2-elf/lib\libc.a(lib_a-atoi.o)
                0x0000000008042ab0                _atoi_r
 .text          0x0000000008042abc        0x0 c:/intelfpga_lite/19.1/nios2eds/bin/gnu/h-x86_64-mingw32/bin/../lib/gcc/nios2-elf/8.3.1/../../../../../H-x86_64-mingw32/nios2-elf/lib\libc.a(lib_a-exit.o)
 .text.exit     0x0000000008042abc       0x34 c:/intelfpga_lite/19.1/nios2eds/bin/gnu/h-x86_64-mingw32/bin/../lib/gcc/nios2-elf/8.3.1/../../../../../H-x86_64-mingw32/nios2-elf/lib\libc.a(lib_a-exit.o)
                0x0000000008042abc                exit
 .text          0x0000000008042af0        0x0 c:/intelfpga_lite/19.1/nios2eds/bin/gnu/h-x86_64-mingw32/bin/../lib/gcc/nios2-elf/8.3.1/../../../../../H-x86_64-mingw32/nios2-elf/lib\libc.a(lib_a-malign.o)
 .text.memalign
                0x0000000008042af0       0x14 c:/intelfpga_lite/19.1/nios2eds/bin/gnu/h-x86_64-mingw32/bin/../lib/gcc/nios2-elf/8.3.1/../../../../../H-x86_64-mingw32/nios2-elf/lib\libc.a(lib_a-malign.o)
                0x0000000008042af0                memalign
 .text          0x0000000008042b04        0x0 c:/intelfpga_lite/19.1/nios2eds/bin/gnu/h-x86_64-mingw32/bin/../lib/gcc/nios2-elf/8.3.1/../../../../../H-x86_64-mingw32/nios2-elf/lib\libc.a(lib_a-malignr.o)
 .text._memalign_r
                0x0000000008042b04      0x194 c:/intelfpga_lite/19.1/nios2eds/bin/gnu/h-x86_64-mingw32/bin/../lib/gcc/nios2-elf/8.3.1/../../../../../H-x86_64-mingw32/nios2-elf/lib\libc.a(lib_a-malignr.o)
                0x0000000008042b04                _memalign_r
 .text          0x0000000008042c98        0x0 c:/intelfpga_lite/19.1/nios2eds/bin/gnu/h-x86_64-mingw32/bin/../lib/gcc/nios2-elf/8.3.1/../../../../../H-x86_64-mingw32/nios2-elf/lib\libc.a(lib_a-malloc.o)
 .text.malloc   0x0000000008042c98       0x10 c:/intelfpga_lite/19.1/nios2eds/bin/gnu/h-x86_64-mingw32/bin/../lib/gcc/nios2-elf/8.3.1/../../../../../H-x86_64-mingw32/nios2-elf/lib\libc.a(lib_a-malloc.o)
                0x0000000008042c98                malloc
 .text.free     0x0000000008042ca8       0x10 c:/intelfpga_lite/19.1/nios2eds/bin/gnu/h-x86_64-mingw32/bin/../lib/gcc/nios2-elf/8.3.1/../../../../../H-x86_64-mingw32/nios2-elf/lib\libc.a(lib_a-malloc.o)
                0x0000000008042ca8                free
 .text          0x0000000008042cb8        0x0 c:/intelfpga_lite/19.1/nios2eds/bin/gnu/h-x86_64-mingw32/bin/../lib/gcc/nios2-elf/8.3.1/../../../../../H-x86_64-mingw32/nios2-elf/lib\libc.a(lib_a-memcmp.o)
 .text.memcmp   0x0000000008042cb8       0x8c c:/intelfpga_lite/19.1/nios2eds/bin/gnu/h-x86_64-mingw32/bin/../lib/gcc/nios2-elf/8.3.1/../../../../../H-x86_64-mingw32/nios2-elf/lib\libc.a(lib_a-memcmp.o)
                0x0000000008042cb8                memcmp
 .text          0x0000000008042d44        0x0 c:/intelfpga_lite/19.1/nios2eds/bin/gnu/h-x86_64-mingw32/bin/../lib/gcc/nios2-elf/8.3.1/../../../../../H-x86_64-mingw32/nios2-elf/lib\libc.a(lib_a-sprintf.o)
 .text._sprintf_r
                0x0000000008042d44       0x54 c:/intelfpga_lite/19.1/nios2eds/bin/gnu/h-x86_64-mingw32/bin/../lib/gcc/nios2-elf/8.3.1/../../../../../H-x86_64-mingw32/nios2-elf/lib\libc.a(lib_a-sprintf.o)
                0x0000000008042d44                _sprintf_r
 .text.sprintf  0x0000000008042d98       0x64 c:/intelfpga_lite/19.1/nios2eds/bin/gnu/h-x86_64-mingw32/bin/../lib/gcc/nios2-elf/8.3.1/../../../../../H-x86_64-mingw32/nios2-elf/lib\libc.a(lib_a-sprintf.o)
                0x0000000008042d98                sprintf
 .text          0x0000000008042dfc        0x0 c:/intelfpga_lite/19.1/nios2eds/bin/gnu/h-x86_64-mingw32/bin/../lib/gcc/nios2-elf/8.3.1/../../../../../H-x86_64-mingw32/nios2-elf/lib\libc.a(lib_a-strchr.o)
 .text.strchr   0x0000000008042dfc      0x164 c:/intelfpga_lite/19.1/nios2eds/bin/gnu/h-x86_64-mingw32/bin/../lib/gcc/nios2-elf/8.3.1/../../../../../H-x86_64-mingw32/nios2-elf/lib\libc.a(lib_a-strchr.o)
                0x0000000008042dfc                strchr
 .text          0x0000000008042f60        0x0 c:/intelfpga_lite/19.1/nios2eds/bin/gnu/h-x86_64-mingw32/bin/../lib/gcc/nios2-elf/8.3.1/../../../../../H-x86_64-mingw32/nios2-elf/lib\libc.a(lib_a-strcpy.o)
 .text.strcpy   0x0000000008042f60       0x8c c:/intelfpga_lite/19.1/nios2eds/bin/gnu/h-x86_64-mingw32/bin/../lib/gcc/nios2-elf/8.3.1/../../../../../H-x86_64-mingw32/nios2-elf/lib\libc.a(lib_a-strcpy.o)
                0x0000000008042f60                strcpy
 .text          0x0000000008042fec        0x0 c:/intelfpga_lite/19.1/nios2eds/bin/gnu/h-x86_64-mingw32/bin/../lib/gcc/nios2-elf/8.3.1/../../../../../H-x86_64-mingw32/nios2-elf/lib\libc.a(lib_a-strncmp.o)
 .text.strncmp  0x0000000008042fec       0xfc c:/intelfpga_lite/19.1/nios2eds/bin/gnu/h-x86_64-mingw32/bin/../lib/gcc/nios2-elf/8.3.1/../../../../../H-x86_64-mingw32/nios2-elf/lib\libc.a(lib_a-strncmp.o)
                0x0000000008042fec                strncmp
 .text          0x00000000080430e8        0x0 c:/intelfpga_lite/19.1/nios2eds/bin/gnu/h-x86_64-mingw32/bin/../lib/gcc/nios2-elf/8.3.1/../../../../../H-x86_64-mingw32/nios2-elf/lib\libc.a(lib_a-strtol.o)
 .text._strtol_l.isra.0
                0x00000000080430e8      0x224 c:/intelfpga_lite/19.1/nios2eds/bin/gnu/h-x86_64-mingw32/bin/../lib/gcc/nios2-elf/8.3.1/../../../../../H-x86_64-mingw32/nios2-elf/lib\libc.a(lib_a-strtol.o)
 .text._strtol_r
                0x000000000804330c        0x4 c:/intelfpga_lite/19.1/nios2eds/bin/gnu/h-x86_64-mingw32/bin/../lib/gcc/nios2-elf/8.3.1/../../../../../H-x86_64-mingw32/nios2-elf/lib\libc.a(lib_a-strtol.o)
                0x000000000804330c                _strtol_r
 .text.strtol_l
                0x0000000008043310       0x18 c:/intelfpga_lite/19.1/nios2eds/bin/gnu/h-x86_64-mingw32/bin/../lib/gcc/nios2-elf/8.3.1/../../../../../H-x86_64-mingw32/nios2-elf/lib\libc.a(lib_a-strtol.o)
                0x0000000008043310                strtol_l
 .text.strtol   0x0000000008043328       0x18 c:/intelfpga_lite/19.1/nios2eds/bin/gnu/h-x86_64-mingw32/bin/../lib/gcc/nios2-elf/8.3.1/../../../../../H-x86_64-mingw32/nios2-elf/lib\libc.a(lib_a-strtol.o)
                0x0000000008043328                strtol
 .text          0x0000000008043340        0x0 c:/intelfpga_lite/19.1/nios2eds/bin/gnu/h-x86_64-mingw32/bin/../lib/gcc/nios2-elf/8.3.1/../../../../../H-x86_64-mingw32/nios2-elf/lib\libc.a(lib_a-svfprintf.o)
 .text.___svfprintf_internal_r
                0x0000000008043340     0x2118 c:/intelfpga_lite/19.1/nios2eds/bin/gnu/h-x86_64-mingw32/bin/../lib/gcc/nios2-elf/8.3.1/../../../../../H-x86_64-mingw32/nios2-elf/lib\libc.a(lib_a-svfprintf.o)
                0x0000000008043340                ___svfprintf_internal_r
 .text          0x0000000008045458        0x0 c:/intelfpga_lite/19.1/nios2eds/bin/gnu/h-x86_64-mingw32/bin/../lib/gcc/nios2-elf/8.3.1/../../../../../H-x86_64-mingw32/nios2-elf/lib\libc.a(lib_a-vprintf.o)
 .text.vprintf  0x0000000008045458       0x1c c:/intelfpga_lite/19.1/nios2eds/bin/gnu/h-x86_64-mingw32/bin/../lib/gcc/nios2-elf/8.3.1/../../../../../H-x86_64-mingw32/nios2-elf/lib\libc.a(lib_a-vprintf.o)
                0x0000000008045458                vprintf
 .text._vprintf_r
                0x0000000008045474       0x10 c:/intelfpga_lite/19.1/nios2eds/bin/gnu/h-x86_64-mingw32/bin/../lib/gcc/nios2-elf/8.3.1/../../../../../H-x86_64-mingw32/nios2-elf/lib\libc.a(lib_a-vprintf.o)
                0x0000000008045474                _vprintf_r
 .text          0x0000000008045484        0x0 c:/intelfpga_lite/19.1/nios2eds/bin/gnu/h-x86_64-mingw32/bin/../lib/gcc/nios2-elf/8.3.1/../../../../../H-x86_64-mingw32/nios2-elf/lib\libc.a(lib_a-vsprintf.o)
 .text._vsprintf_r
                0x0000000008045484       0x4c c:/intelfpga_lite/19.1/nios2eds/bin/gnu/h-x86_64-mingw32/bin/../lib/gcc/nios2-elf/8.3.1/../../../../../H-x86_64-mingw32/nios2-elf/lib\libc.a(lib_a-vsprintf.o)
                0x0000000008045484                _vsprintf_r
 .text.vsprintf
                0x00000000080454d0       0x18 c:/intelfpga_lite/19.1/nios2eds/bin/gnu/h-x86_64-mingw32/bin/../lib/gcc/nios2-elf/8.3.1/../../../../../H-x86_64-mingw32/nios2-elf/lib\libc.a(lib_a-vsprintf.o)
                0x00000000080454d0                vsprintf
 .text          0x00000000080454e8        0x0 c:/intelfpga_lite/19.1/nios2eds/bin/gnu/h-x86_64-mingw32/bin/../lib/gcc/nios2-elf/8.3.1/../../../../../H-x86_64-mingw32/nios2-elf/lib\libc.a(lib_a-__atexit.o)
 .text.__register_exitproc
                0x00000000080454e8       0x90 c:/intelfpga_lite/19.1/nios2eds/bin/gnu/h-x86_64-mingw32/bin/../lib/gcc/nios2-elf/8.3.1/../../../../../H-x86_64-mingw32/nios2-elf/lib\libc.a(lib_a-__atexit.o)
                0x00000000080454e8                __register_exitproc
 .text          0x0000000008045578        0x0 c:/intelfpga_lite/19.1/nios2eds/bin/gnu/h-x86_64-mingw32/bin/../lib/gcc/nios2-elf/8.3.1/../../../../../H-x86_64-mingw32/nios2-elf/lib\libc.a(lib_a-__call_atexit.o)
 .text.__call_exitprocs
                0x0000000008045578      0x118 c:/intelfpga_lite/19.1/nios2eds/bin/gnu/h-x86_64-mingw32/bin/../lib/gcc/nios2-elf/8.3.1/../../../../../H-x86_64-mingw32/nios2-elf/lib\libc.a(lib_a-__call_atexit.o)
                0x0000000008045578                __call_exitprocs
 .text          0x0000000008045690        0x0 c:/intelfpga_lite/19.1/nios2eds/bin/gnu/h-x86_64-mingw32/bin/../lib/gcc/nios2-elf/8.3.1/../../../../../H-x86_64-mingw32/nios2-elf/lib\libc.a(lib_a-svfiprintf.o)
 .text.__ssprint_r
                0x0000000008045690      0x1c0 c:/intelfpga_lite/19.1/nios2eds/bin/gnu/h-x86_64-mingw32/bin/../lib/gcc/nios2-elf/8.3.1/../../../../../H-x86_64-mingw32/nios2-elf/lib\libc.a(lib_a-svfiprintf.o)
                0x0000000008045690                __ssprint_r
 .text.___svfiprintf_internal_r
                0x0000000008045850     0x1120 c:/intelfpga_lite/19.1/nios2eds/bin/gnu/h-x86_64-mingw32/bin/../lib/gcc/nios2-elf/8.3.1/../../../../../H-x86_64-mingw32/nios2-elf/lib\libc.a(lib_a-svfiprintf.o)
                0x0000000008045850                ___svfiprintf_internal_r
 .text          0x0000000008046970        0x0 c:/intelfpga_lite/19.1/nios2eds/bin/gnu/h-x86_64-mingw32/bin/../lib/gcc/nios2-elf/8.3.1/../../../../../H-x86_64-mingw32/nios2-elf/lib\libc.a(lib_a-vfprintfr_1.o)
 .text._vfprintf_r
                0x0000000008046970        0x4 c:/intelfpga_lite/19.1/nios2eds/bin/gnu/h-x86_64-mingw32/bin/../lib/gcc/nios2-elf/8.3.1/../../../../../H-x86_64-mingw32/nios2-elf/lib\libc.a(lib_a-vfprintfr_1.o)
                0x0000000008046970                _vfprintf_r
 .text          0x0000000008046974       0x34 ../hit_pat_bsp\libucosii_bsp.a(alt_exit.o)
                0x0000000008046974                _exit
 *(.gnu.warning.*)
 *(.fini)
                [!provide]                        PROVIDE (__etext = ABSOLUTE (.))
                [!provide]                        PROVIDE (_etext = ABSOLUTE (.))
                [!provide]                        PROVIDE (etext = ABSOLUTE (.))
 *(.eh_frame_hdr)
                0x00000000080469a8                . = ALIGN (0x4)
                [!provide]                        PROVIDE (__preinit_array_start = ABSOLUTE (.))
 *(.preinit_array)
                [!provide]                        PROVIDE (__preinit_array_end = ABSOLUTE (.))
                [!provide]                        PROVIDE (__init_array_start = ABSOLUTE (.))
 *(.init_array)
                [!provide]                        PROVIDE (__init_array_end = ABSOLUTE (.))
                [!provide]                        PROVIDE (__fini_array_start = ABSOLUTE (.))
 *(.fini_array)
                [!provide]                        PROVIDE (__fini_array_end = ABSOLUTE (.))
 *(.eh_frame)
 *(.gcc_except_table .gcc_except_table.*)
 *(.dynamic)
                0x00000000080469a8                PROVIDE (__CTOR_LIST__ = ABSOLUTE (.))
 *(.ctors)
 *(SORT_BY_NAME(.ctors.*))
                0x00000000080469a8                PROVIDE (__CTOR_END__ = ABSOLUTE (.))
                0x00000000080469a8                PROVIDE (__DTOR_LIST__ = ABSOLUTE (.))
 *(.dtors)
 *(SORT_BY_NAME(.dtors.*))
                0x00000000080469a8                PROVIDE (__DTOR_END__ = ABSOLUTE (.))
 *(.jcr)
                0x00000000080469a8                . = ALIGN (0x4)

.rodata         0x00000000080469a8     0x4f6c
                [!provide]                        PROVIDE (__ram_rodata_start = ABSOLUTE (.))
                0x00000000080469a8                . = ALIGN (0x4)
 *(.rodata .rodata.* .gnu.linkonce.r.*)
 .rodata        0x00000000080469a8      0x3ce obj/default/src/control.o
 *fill*         0x0000000008046d76        0x2 
 .rodata        0x0000000008046d78       0x1b obj/default/src/main.o
 *fill*         0x0000000008046d93        0x1 
 .rodata        0x0000000008046d94      0x284 obj/default/src/network_utilities.o
 .rodata        0x0000000008047018       0x26 obj/default/src/sensor.o
 *fill*         0x000000000804703e        0x2 
 .rodata        0x0000000008047040      0x118 obj/default/src/socket_server.o
 .rodata        0x0000000008047158       0x27 obj/default/src/tse_my_system.o
 *fill*         0x000000000804717f        0x1 
 .rodata        0x0000000008047180       0x22 obj/default/src/udpgen.o
 *fill*         0x00000000080471a2        0x2 
 .rodata        0x00000000080471a4       0x32 obj/default/src/utils.o
 .rodata._ctype_
                0x00000000080471d6      0x101 c:/intelfpga_lite/19.1/nios2eds/bin/gnu/h-x86_64-mingw32/bin/../lib/gcc/nios2-elf/8.3.1/../../../../../H-x86_64-mingw32/nios2-elf/lib\libc.a(lib_a-ctype_.o)
                0x00000000080471d6                _ctype_
 .rodata._ctype_b
                0x00000000080472d7      0x180 c:/intelfpga_lite/19.1/nios2eds/bin/gnu/h-x86_64-mingw32/bin/../lib/gcc/nios2-elf/8.3.1/../../../../../H-x86_64-mingw32/nios2-elf/lib\libc.a(lib_a-ctype_.o)
                0x00000000080472d7                _ctype_b
 *fill*         0x0000000008047457        0x1 
 .rodata._puts_r.str1.4
                0x0000000008047458        0x2 c:/intelfpga_lite/19.1/nios2eds/bin/gnu/h-x86_64-mingw32/bin/../lib/gcc/nios2-elf/8.3.1/../../../../../H-x86_64-mingw32/nios2-elf/lib\libc.a(lib_a-puts.o)
 *fill*         0x000000000804745a        0x2 
 .rodata.___vfprintf_internal_r.str1.4
                0x000000000804745c       0x42 c:/intelfpga_lite/19.1/nios2eds/bin/gnu/h-x86_64-mingw32/bin/../lib/gcc/nios2-elf/8.3.1/../../../../../H-x86_64-mingw32/nios2-elf/lib\libc.a(lib_a-vfprintf.o)
 .rodata.zeroes.5227
                0x000000000804749e       0x10 c:/intelfpga_lite/19.1/nios2eds/bin/gnu/h-x86_64-mingw32/bin/../lib/gcc/nios2-elf/8.3.1/../../../../../H-x86_64-mingw32/nios2-elf/lib\libc.a(lib_a-vfprintf.o)
 .rodata.blanks.5226
                0x00000000080474ae       0x10 c:/intelfpga_lite/19.1/nios2eds/bin/gnu/h-x86_64-mingw32/bin/../lib/gcc/nios2-elf/8.3.1/../../../../../H-x86_64-mingw32/nios2-elf/lib\libc.a(lib_a-vfprintf.o)
 *fill*         0x00000000080474be        0x2 
 .rodata._dtoa_r.str1.4
                0x00000000080474c0        0xd c:/intelfpga_lite/19.1/nios2eds/bin/gnu/h-x86_64-mingw32/bin/../lib/gcc/nios2-elf/8.3.1/../../../../../H-x86_64-mingw32/nios2-elf/lib\libc.a(lib_a-dtoa.o)
                                         0x12 (size before relaxing)
 *fill*         0x00000000080474cd        0x3 
 .rodata.p05.4024
                0x00000000080474d0        0xc c:/intelfpga_lite/19.1/nios2eds/bin/gnu/h-x86_64-mingw32/bin/../lib/gcc/nios2-elf/8.3.1/../../../../../H-x86_64-mingw32/nios2-elf/lib\libc.a(lib_a-mprec.o)
 .rodata.__mprec_tinytens
                0x00000000080474dc       0x28 c:/intelfpga_lite/19.1/nios2eds/bin/gnu/h-x86_64-mingw32/bin/../lib/gcc/nios2-elf/8.3.1/../../../../../H-x86_64-mingw32/nios2-elf/lib\libc.a(lib_a-mprec.o)
                0x00000000080474dc                __mprec_tinytens
 .rodata.__mprec_bigtens
                0x0000000008047504       0x28 c:/intelfpga_lite/19.1/nios2eds/bin/gnu/h-x86_64-mingw32/bin/../lib/gcc/nios2-elf/8.3.1/../../../../../H-x86_64-mingw32/nios2-elf/lib\libc.a(lib_a-mprec.o)
                0x0000000008047504                __mprec_bigtens
 .rodata.__mprec_tens
                0x000000000804752c       0xc8 c:/intelfpga_lite/19.1/nios2eds/bin/gnu/h-x86_64-mingw32/bin/../lib/gcc/nios2-elf/8.3.1/../../../../../H-x86_64-mingw32/nios2-elf/lib\libc.a(lib_a-mprec.o)
                0x000000000804752c                __mprec_tens
 .rodata.___vfiprintf_internal_r.str1.4
                0x00000000080475f4       0x2f c:/intelfpga_lite/19.1/nios2eds/bin/gnu/h-x86_64-mingw32/bin/../lib/gcc/nios2-elf/8.3.1/../../../../../H-x86_64-mingw32/nios2-elf/lib\libc.a(lib_a-vfiprintf.o)
 .rodata.zeroes.5204
                0x00000000080475f4       0x10 c:/intelfpga_lite/19.1/nios2eds/bin/gnu/h-x86_64-mingw32/bin/../lib/gcc/nios2-elf/8.3.1/../../../../../H-x86_64-mingw32/nios2-elf/lib\libc.a(lib_a-vfiprintf.o)
 .rodata.blanks.5203
                0x0000000008047604       0x10 c:/intelfpga_lite/19.1/nios2eds/bin/gnu/h-x86_64-mingw32/bin/../lib/gcc/nios2-elf/8.3.1/../../../../../H-x86_64-mingw32/nios2-elf/lib\libc.a(lib_a-vfiprintf.o)
 .rodata._setlocale_r.str1.4
                0x0000000008047614        0xa c:/intelfpga_lite/19.1/nios2eds/bin/gnu/h-x86_64-mingw32/bin/../lib/gcc/nios2-elf/8.3.1/../../../../../H-x86_64-mingw32/nios2-elf/lib\libc.a(lib_a-locale.o)
 *fill*         0x000000000804761e        0x2 
 .rodata.str1.4
                0x0000000008047620        0x4 c:/intelfpga_lite/19.1/nios2eds/bin/gnu/h-x86_64-mingw32/bin/../lib/gcc/nios2-elf/8.3.1/../../../../../H-x86_64-mingw32/nios2-elf/lib\libc.a(lib_a-locale.o)
                                          0x5 (size before relaxing)
 .rodata        0x0000000008047624      0x100 c:/intelfpga_lite/19.1/nios2eds/bin/gnu/h-x86_64-mingw32/bin/../lib/gcc/nios2-elf/8.3.1\libgcc.a(_clz.o)
                0x0000000008047624                __clz_tab
 .rodata        0x0000000008047724       0x10 ../hit_pat_bsp\libucosii_bsp.a(alt_main.o)
 .rodata        0x0000000008047734      0x10e ../hit_pat_bsp\libucosii_bsp.a(os_core.o)
                0x0000000008047734                OSUnMapTbl
 *fill*         0x0000000008047842        0x2 
 .rodata        0x0000000008047844       0x8b ../hit_pat_bsp\libucosii_bsp.a(alt_sys_init.o)
 *fill*         0x00000000080478cf        0x1 
 .rodata        0x00000000080478d0     0x1c66 ../hit_pat_bsp\libucosii_bsp.a(altera_avalon_tse.o)
 *fill*         0x0000000008049536        0x2 
 .rodata        0x0000000008049538      0x1ed ../hit_pat_bsp\libucosii_bsp.a(altera_msgdma.o)
 *fill*         0x0000000008049725        0x3 
 .rodata        0x0000000008049728      0x385 ../hit_pat_bsp\libucosii_bsp.a(ins_tse_mac.o)
 *fill*         0x0000000008049aad        0x3 
 .rodata        0x0000000008049ab0       0x41 ../hit_pat_bsp\libucosii_bsp.a(et_arp.o)
 *fill*         0x0000000008049af1        0x3 
 .rodata        0x0000000008049af4       0xd7 ../hit_pat_bsp\libucosii_bsp.a(ipnet.o)
 *fill*         0x0000000008049bcb        0x1 
 .rodata        0x0000000008049bcc       0xec ../hit_pat_bsp\libucosii_bsp.a(ipstart.o)
 .rodata        0x0000000008049cb8      0x54b ../hit_pat_bsp\libucosii_bsp.a(igmp_cmn.o)
 *fill*         0x000000000804a203        0x1 
 .rodata        0x000000000804a204       0xb6 ../hit_pat_bsp\libucosii_bsp.a(in_utils.o)
 *fill*         0x000000000804a2ba        0x2 
 .rodata        0x000000000804a2bc       0x34 ../hit_pat_bsp\libucosii_bsp.a(netmain.o)
 .rodata        0x000000000804a2f0      0x1a8 ../hit_pat_bsp\libucosii_bsp.a(tk_crnos.o)
 .rodata        0x000000000804a498       0x56 ../hit_pat_bsp\libucosii_bsp.a(ping.o)
 *fill*         0x000000000804a4ee        0x2 
 .rodata        0x000000000804a4f0      0x117 ../hit_pat_bsp\libucosii_bsp.a(pktalloc.o)
 *fill*         0x000000000804a607        0x1 
 .rodata        0x000000000804a608       0x2c ../hit_pat_bsp\libucosii_bsp.a(brdutils.o)
 .rodata        0x000000000804a634      0x26a ../hit_pat_bsp\libucosii_bsp.a(osportco.o)
 *fill*         0x000000000804a89e        0x2 
 .rodata        0x000000000804a8a0       0x9f ../hit_pat_bsp\libucosii_bsp.a(targnios.o)
 *fill*         0x000000000804a93f        0x1 
 .rodata        0x000000000804a940       0x90 ../hit_pat_bsp\libucosii_bsp.a(nptcp.o)
 .rodata        0x000000000804a9d0        0x7 ../hit_pat_bsp\libucosii_bsp.a(sockcall.o)
 *fill*         0x000000000804a9d7        0x1 
 .rodata        0x000000000804a9d8       0x4d ../hit_pat_bsp\libucosii_bsp.a(socket.o)
 *fill*         0x000000000804aa25        0x3 
 .rodata        0x000000000804aa28       0x3f ../hit_pat_bsp\libucosii_bsp.a(socket2.o)
 *fill*         0x000000000804aa67        0x1 
 .rodata        0x000000000804aa68       0x1e ../hit_pat_bsp\libucosii_bsp.a(tcp_in.o)
 *fill*         0x000000000804aa86        0x2 
 .rodata        0x000000000804aa88       0x3d ../hit_pat_bsp\libucosii_bsp.a(tcp_out.o)
 *fill*         0x000000000804aac5        0x3 
 .rodata        0x000000000804aac8       0x23 ../hit_pat_bsp\libucosii_bsp.a(tcp_subr.o)
 *fill*         0x000000000804aaeb        0x1 
 .rodata        0x000000000804aaec       0x2b ../hit_pat_bsp\libucosii_bsp.a(tcp_usr.o)
 *fill*         0x000000000804ab17        0x1 
 .rodata        0x000000000804ab18        0xa ../hit_pat_bsp\libucosii_bsp.a(alt_dev.o)
 *fill*         0x000000000804ab22        0x2 
 .rodata        0x000000000804ab24      0x1d1 ../hit_pat_bsp\libucosii_bsp.a(allports.o)
 *fill*         0x000000000804acf5        0x3 
 .rodata        0x000000000804acf8       0x32 ../hit_pat_bsp\libucosii_bsp.a(tk_misc.o)
 *fill*         0x000000000804ad2a        0x2 
 .rodata        0x000000000804ad2c      0x317 ../hit_pat_bsp\libucosii_bsp.a(icmp.o)
 *fill*         0x000000000804b043        0x1 
 .rodata        0x000000000804b044      0x1dc ../hit_pat_bsp\libucosii_bsp.a(ip.o)
 .rodata        0x000000000804b220      0x11d ../hit_pat_bsp\libucosii_bsp.a(ipdemux.o)
 *fill*         0x000000000804b33d        0x3 
 .rodata        0x000000000804b340       0x31 ../hit_pat_bsp\libucosii_bsp.a(ipport.o)
 *fill*         0x000000000804b371        0x3 
 .rodata        0x000000000804b374       0x22 ../hit_pat_bsp\libucosii_bsp.a(ipraw.o)
 *fill*         0x000000000804b396        0x2 
 .rodata        0x000000000804b398       0x35 ../hit_pat_bsp\libucosii_bsp.a(iproute.o)
 *fill*         0x000000000804b3cd        0x3 
 .rodata        0x000000000804b3d0       0xe8 ../hit_pat_bsp\libucosii_bsp.a(udp.o)
 .rodata        0x000000000804b4b8      0x2ce ../hit_pat_bsp\libucosii_bsp.a(u_mctest.o)
 *fill*         0x000000000804b786        0x2 
 .rodata        0x000000000804b788       0x93 ../hit_pat_bsp\libucosii_bsp.a(parseip.o)
 *fill*         0x000000000804b81b        0x1 
 .rodata        0x000000000804b81c       0x81 ../hit_pat_bsp\libucosii_bsp.a(udp_open.o)
 *fill*         0x000000000804b89d        0x3 
 .rodata        0x000000000804b8a0       0x31 ../hit_pat_bsp\libucosii_bsp.a(vfsfiles.o)
 .rodata.___svfprintf_internal_r.str1.4
                0x000000000804b8d1       0x42 c:/intelfpga_lite/19.1/nios2eds/bin/gnu/h-x86_64-mingw32/bin/../lib/gcc/nios2-elf/8.3.1/../../../../../H-x86_64-mingw32/nios2-elf/lib\libc.a(lib_a-svfprintf.o)
 .rodata.zeroes.5208
                0x000000000804b8d1       0x10 c:/intelfpga_lite/19.1/nios2eds/bin/gnu/h-x86_64-mingw32/bin/../lib/gcc/nios2-elf/8.3.1/../../../../../H-x86_64-mingw32/nios2-elf/lib\libc.a(lib_a-svfprintf.o)
 .rodata.blanks.5207
                0x000000000804b8e1       0x10 c:/intelfpga_lite/19.1/nios2eds/bin/gnu/h-x86_64-mingw32/bin/../lib/gcc/nios2-elf/8.3.1/../../../../../H-x86_64-mingw32/nios2-elf/lib\libc.a(lib_a-svfprintf.o)
 .rodata.___svfiprintf_internal_r.str1.4
                0x000000000804b8f1       0x2f c:/intelfpga_lite/19.1/nios2eds/bin/gnu/h-x86_64-mingw32/bin/../lib/gcc/nios2-elf/8.3.1/../../../../../H-x86_64-mingw32/nios2-elf/lib\libc.a(lib_a-svfiprintf.o)
 .rodata.zeroes.5188
                0x000000000804b8f1       0x10 c:/intelfpga_lite/19.1/nios2eds/bin/gnu/h-x86_64-mingw32/bin/../lib/gcc/nios2-elf/8.3.1/../../../../../H-x86_64-mingw32/nios2-elf/lib\libc.a(lib_a-svfiprintf.o)
 .rodata.blanks.5187
                0x000000000804b901       0x10 c:/intelfpga_lite/19.1/nios2eds/bin/gnu/h-x86_64-mingw32/bin/../lib/gcc/nios2-elf/8.3.1/../../../../../H-x86_64-mingw32/nios2-elf/lib\libc.a(lib_a-svfiprintf.o)
 *(.rodata1)
                0x000000000804b920                . = ALIGN (0x4)
 *fill*         0x000000000804b911        0x3 
                [!provide]                        PROVIDE (__ram_rodata_end = ABSOLUTE (.))
                [!provide]                        PROVIDE (__flash_rodata_start = LOADADDR (.rodata))

.rwdata         0x000000000804b920     0x126c
                [!provide]                        PROVIDE (__ram_rwdata_start = ABSOLUTE (.))
                0x000000000804b920                . = ALIGN (0x4)
 *(.got.plt)
 *(.got)
 *(.data1)
 *(.data .data.* .gnu.linkonce.d.*)
 .data          0x000000000804b920        0x0 d:/hit20v3/software/hit_pat/software/hit_pat_bsp//obj/HAL/src/crt0.o
 .data          0x000000000804b920       0x18 obj/default/src/control.o
                0x000000000804b920                controltask
 .data          0x000000000804b938        0x0 obj/default/src/main.o
 .data          0x000000000804b938        0x0 obj/default/src/network_utilities.o
 .data          0x000000000804b938        0x0 obj/default/src/sensor.o
 .data          0x000000000804b938       0x18 obj/default/src/socket_server.o
                0x000000000804b938                sslistenertask
 .data          0x000000000804b950      0x130 obj/default/src/tse_my_system.o
                0x000000000804b950                tse_mac_device
 .data          0x000000000804ba80        0x0 obj/default/src/udpgen.o
 .data          0x000000000804ba80        0x0 obj/default/src/utils.o
 .data          0x000000000804ba80        0x0 c:/intelfpga_lite/19.1/nios2eds/bin/gnu/h-x86_64-mingw32/bin/../lib/gcc/nios2-elf/8.3.1/../../../../../H-x86_64-mingw32/nios2-elf/lib\libc.a(lib_a-ctype_.o)
 .data          0x000000000804ba80        0x0 c:/intelfpga_lite/19.1/nios2eds/bin/gnu/h-x86_64-mingw32/bin/../lib/gcc/nios2-elf/8.3.1/../../../../../H-x86_64-mingw32/nios2-elf/lib\libc.a(lib_a-getchar.o)
 .data          0x000000000804ba80        0x0 c:/intelfpga_lite/19.1/nios2eds/bin/gnu/h-x86_64-mingw32/bin/../lib/gcc/nios2-elf/8.3.1/../../../../../H-x86_64-mingw32/nios2-elf/lib\libc.a(lib_a-impure.o)
 .data.impure_data
                0x000000000804ba80      0x424 c:/intelfpga_lite/19.1/nios2eds/bin/gnu/h-x86_64-mingw32/bin/../lib/gcc/nios2-elf/8.3.1/../../../../../H-x86_64-mingw32/nios2-elf/lib\libc.a(lib_a-impure.o)
 .data          0x000000000804bea4        0x0 c:/intelfpga_lite/19.1/nios2eds/bin/gnu/h-x86_64-mingw32/bin/../lib/gcc/nios2-elf/8.3.1/../../../../../H-x86_64-mingw32/nios2-elf/lib\libc.a(lib_a-printf.o)
 .data          0x000000000804bea4        0x0 c:/intelfpga_lite/19.1/nios2eds/bin/gnu/h-x86_64-mingw32/bin/../lib/gcc/nios2-elf/8.3.1/../../../../../H-x86_64-mingw32/nios2-elf/lib\libc.a(lib_a-putchar.o)
 .data          0x000000000804bea4        0x0 c:/intelfpga_lite/19.1/nios2eds/bin/gnu/h-x86_64-mingw32/bin/../lib/gcc/nios2-elf/8.3.1/../../../../../H-x86_64-mingw32/nios2-elf/lib\libc.a(lib_a-puts.o)
 .data          0x000000000804bea4        0x0 c:/intelfpga_lite/19.1/nios2eds/bin/gnu/h-x86_64-mingw32/bin/../lib/gcc/nios2-elf/8.3.1/../../../../../H-x86_64-mingw32/nios2-elf/lib\libc.a(lib_a-strlen.o)
 .data          0x000000000804bea4        0x0 c:/intelfpga_lite/19.1/nios2eds/bin/gnu/h-x86_64-mingw32/bin/../lib/gcc/nios2-elf/8.3.1/../../../../../H-x86_64-mingw32/nios2-elf/lib\libc.a(lib_a-vfprintf.o)
 .data          0x000000000804bea4        0x0 c:/intelfpga_lite/19.1/nios2eds/bin/gnu/h-x86_64-mingw32/bin/../lib/gcc/nios2-elf/8.3.1/../../../../../H-x86_64-mingw32/nios2-elf/lib\libc.a(lib_a-wsetup.o)
 .data          0x000000000804bea4        0x0 c:/intelfpga_lite/19.1/nios2eds/bin/gnu/h-x86_64-mingw32/bin/../lib/gcc/nios2-elf/8.3.1/../../../../../H-x86_64-mingw32/nios2-elf/lib\libc.a(lib_a-dtoa.o)
 .data          0x000000000804bea4        0x0 c:/intelfpga_lite/19.1/nios2eds/bin/gnu/h-x86_64-mingw32/bin/../lib/gcc/nios2-elf/8.3.1/../../../../../H-x86_64-mingw32/nios2-elf/lib\libc.a(lib_a-fflush.o)
 .data          0x000000000804bea4        0x0 c:/intelfpga_lite/19.1/nios2eds/bin/gnu/h-x86_64-mingw32/bin/../lib/gcc/nios2-elf/8.3.1/../../../../../H-x86_64-mingw32/nios2-elf/lib\libc.a(lib_a-findfp.o)
 .data          0x000000000804bea4        0x0 c:/intelfpga_lite/19.1/nios2eds/bin/gnu/h-x86_64-mingw32/bin/../lib/gcc/nios2-elf/8.3.1/../../../../../H-x86_64-mingw32/nios2-elf/lib\libc.a(lib_a-freer.o)
 .data          0x000000000804bea4        0x0 c:/intelfpga_lite/19.1/nios2eds/bin/gnu/h-x86_64-mingw32/bin/../lib/gcc/nios2-elf/8.3.1/../../../../../H-x86_64-mingw32/nios2-elf/lib\libc.a(lib_a-fvwrite.o)
 .data          0x000000000804bea4        0x0 c:/intelfpga_lite/19.1/nios2eds/bin/gnu/h-x86_64-mingw32/bin/../lib/gcc/nios2-elf/8.3.1/../../../../../H-x86_64-mingw32/nios2-elf/lib\libc.a(lib_a-fwalk.o)
 .data          0x000000000804bea4        0x0 c:/intelfpga_lite/19.1/nios2eds/bin/gnu/h-x86_64-mingw32/bin/../lib/gcc/nios2-elf/8.3.1/../../../../../H-x86_64-mingw32/nios2-elf/lib\libc.a(lib_a-getc.o)
 .data          0x000000000804bea4        0x0 c:/intelfpga_lite/19.1/nios2eds/bin/gnu/h-x86_64-mingw32/bin/../lib/gcc/nios2-elf/8.3.1/../../../../../H-x86_64-mingw32/nios2-elf/lib\libc.a(lib_a-localeconv.o)
 .data          0x000000000804bea4        0x0 c:/intelfpga_lite/19.1/nios2eds/bin/gnu/h-x86_64-mingw32/bin/../lib/gcc/nios2-elf/8.3.1/../../../../../H-x86_64-mingw32/nios2-elf/lib\libc.a(lib_a-makebuf.o)
 .data          0x000000000804bea4        0x0 c:/intelfpga_lite/19.1/nios2eds/bin/gnu/h-x86_64-mingw32/bin/../lib/gcc/nios2-elf/8.3.1/../../../../../H-x86_64-mingw32/nios2-elf/lib\libc.a(lib_a-mallocr.o)
 .data.__malloc_av_
                0x000000000804bea4      0x408 c:/intelfpga_lite/19.1/nios2eds/bin/gnu/h-x86_64-mingw32/bin/../lib/gcc/nios2-elf/8.3.1/../../../../../H-x86_64-mingw32/nios2-elf/lib\libc.a(lib_a-mallocr.o)
                0x000000000804bea4                __malloc_av_
 .data          0x000000000804c2ac        0x0 c:/intelfpga_lite/19.1/nios2eds/bin/gnu/h-x86_64-mingw32/bin/../lib/gcc/nios2-elf/8.3.1/../../../../../H-x86_64-mingw32/nios2-elf/lib\libc.a(lib_a-memchr.o)
 .data          0x000000000804c2ac        0x0 c:/intelfpga_lite/19.1/nios2eds/bin/gnu/h-x86_64-mingw32/bin/../lib/gcc/nios2-elf/8.3.1/../../../../../H-x86_64-mingw32/nios2-elf/lib\libc.a(lib_a-memcpy.o)
 .data          0x000000000804c2ac        0x0 c:/intelfpga_lite/19.1/nios2eds/bin/gnu/h-x86_64-mingw32/bin/../lib/gcc/nios2-elf/8.3.1/../../../../../H-x86_64-mingw32/nios2-elf/lib\libc.a(lib_a-memmove.o)
 .data          0x000000000804c2ac        0x0 c:/intelfpga_lite/19.1/nios2eds/bin/gnu/h-x86_64-mingw32/bin/../lib/gcc/nios2-elf/8.3.1/../../../../../H-x86_64-mingw32/nios2-elf/lib\libc.a(lib_a-memset.o)
 .data          0x000000000804c2ac        0x0 c:/intelfpga_lite/19.1/nios2eds/bin/gnu/h-x86_64-mingw32/bin/../lib/gcc/nios2-elf/8.3.1/../../../../../H-x86_64-mingw32/nios2-elf/lib\libc.a(lib_a-mprec.o)
 .data          0x000000000804c2ac        0x0 c:/intelfpga_lite/19.1/nios2eds/bin/gnu/h-x86_64-mingw32/bin/../lib/gcc/nios2-elf/8.3.1/../../../../../H-x86_64-mingw32/nios2-elf/lib\libc.a(lib_a-putc.o)
 .data          0x000000000804c2ac        0x0 c:/intelfpga_lite/19.1/nios2eds/bin/gnu/h-x86_64-mingw32/bin/../lib/gcc/nios2-elf/8.3.1/../../../../../H-x86_64-mingw32/nios2-elf/lib\libc.a(lib_a-reallocr.o)
 .data          0x000000000804c2ac        0x0 c:/intelfpga_lite/19.1/nios2eds/bin/gnu/h-x86_64-mingw32/bin/../lib/gcc/nios2-elf/8.3.1/../../../../../H-x86_64-mingw32/nios2-elf/lib\libc.a(lib_a-rget.o)
 .data          0x000000000804c2ac        0x0 c:/intelfpga_lite/19.1/nios2eds/bin/gnu/h-x86_64-mingw32/bin/../lib/gcc/nios2-elf/8.3.1/../../../../../H-x86_64-mingw32/nios2-elf/lib\libc.a(lib_a-sbrkr.o)
 .data          0x000000000804c2ac        0x0 c:/intelfpga_lite/19.1/nios2eds/bin/gnu/h-x86_64-mingw32/bin/../lib/gcc/nios2-elf/8.3.1/../../../../../H-x86_64-mingw32/nios2-elf/lib\libc.a(lib_a-stdio.o)
 .data          0x000000000804c2ac        0x0 c:/intelfpga_lite/19.1/nios2eds/bin/gnu/h-x86_64-mingw32/bin/../lib/gcc/nios2-elf/8.3.1/../../../../../H-x86_64-mingw32/nios2-elf/lib\libc.a(lib_a-vfiprintf.o)
 .data          0x000000000804c2ac        0x0 c:/intelfpga_lite/19.1/nios2eds/bin/gnu/h-x86_64-mingw32/bin/../lib/gcc/nios2-elf/8.3.1/../../../../../H-x86_64-mingw32/nios2-elf/lib\libc.a(lib_a-wbuf.o)
 .data          0x000000000804c2ac        0x0 c:/intelfpga_lite/19.1/nios2eds/bin/gnu/h-x86_64-mingw32/bin/../lib/gcc/nios2-elf/8.3.1/../../../../../H-x86_64-mingw32/nios2-elf/lib\libc.a(lib_a-writer.o)
 .data          0x000000000804c2ac        0x0 c:/intelfpga_lite/19.1/nios2eds/bin/gnu/h-x86_64-mingw32/bin/../lib/gcc/nios2-elf/8.3.1/../../../../../H-x86_64-mingw32/nios2-elf/lib\libc.a(closer.o)
 .data          0x000000000804c2ac        0x0 c:/intelfpga_lite/19.1/nios2eds/bin/gnu/h-x86_64-mingw32/bin/../lib/gcc/nios2-elf/8.3.1/../../../../../H-x86_64-mingw32/nios2-elf/lib\libc.a(lib_a-callocr.o)
 .data          0x000000000804c2ac        0x0 c:/intelfpga_lite/19.1/nios2eds/bin/gnu/h-x86_64-mingw32/bin/../lib/gcc/nios2-elf/8.3.1/../../../../../H-x86_64-mingw32/nios2-elf/lib\libc.a(lib_a-fclose.o)
 .data          0x000000000804c2ac        0x0 c:/intelfpga_lite/19.1/nios2eds/bin/gnu/h-x86_64-mingw32/bin/../lib/gcc/nios2-elf/8.3.1/../../../../../H-x86_64-mingw32/nios2-elf/lib\libc.a(lib_a-fputwc.o)
 .data          0x000000000804c2ac        0x0 c:/intelfpga_lite/19.1/nios2eds/bin/gnu/h-x86_64-mingw32/bin/../lib/gcc/nios2-elf/8.3.1/../../../../../H-x86_64-mingw32/nios2-elf/lib\libc.a(lib_a-fstatr.o)
 .data          0x000000000804c2ac        0x0 c:/intelfpga_lite/19.1/nios2eds/bin/gnu/h-x86_64-mingw32/bin/../lib/gcc/nios2-elf/8.3.1/../../../../../H-x86_64-mingw32/nios2-elf/lib\libc.a(lib_a-int_errno.o)
 .data          0x000000000804c2ac        0x0 c:/intelfpga_lite/19.1/nios2eds/bin/gnu/h-x86_64-mingw32/bin/../lib/gcc/nios2-elf/8.3.1/../../../../../H-x86_64-mingw32/nios2-elf/lib\libc.a(lib_a-isattyr.o)
 .data          0x000000000804c2ac        0x0 c:/intelfpga_lite/19.1/nios2eds/bin/gnu/h-x86_64-mingw32/bin/../lib/gcc/nios2-elf/8.3.1/../../../../../H-x86_64-mingw32/nios2-elf/lib\libc.a(lib_a-locale.o)
 .data.__global_locale
                0x000000000804c2ac      0x16c c:/intelfpga_lite/19.1/nios2eds/bin/gnu/h-x86_64-mingw32/bin/../lib/gcc/nios2-elf/8.3.1/../../../../../H-x86_64-mingw32/nios2-elf/lib\libc.a(lib_a-locale.o)
                0x000000000804c2ac                __global_locale
 .data          0x000000000804c418        0x0 c:/intelfpga_lite/19.1/nios2eds/bin/gnu/h-x86_64-mingw32/bin/../lib/gcc/nios2-elf/8.3.1/../../../../../H-x86_64-mingw32/nios2-elf/lib\libc.a(lib_a-lseekr.o)
 .data          0x000000000804c418        0x0 c:/intelfpga_lite/19.1/nios2eds/bin/gnu/h-x86_64-mingw32/bin/../lib/gcc/nios2-elf/8.3.1/../../../../../H-x86_64-mingw32/nios2-elf/lib\libc.a(lib_a-mbtowc_r.o)
 .data          0x000000000804c418        0x0 c:/intelfpga_lite/19.1/nios2eds/bin/gnu/h-x86_64-mingw32/bin/../lib/gcc/nios2-elf/8.3.1/../../../../../H-x86_64-mingw32/nios2-elf/lib\libc.a(lib_a-readr.o)
 .data          0x000000000804c418        0x0 c:/intelfpga_lite/19.1/nios2eds/bin/gnu/h-x86_64-mingw32/bin/../lib/gcc/nios2-elf/8.3.1/../../../../../H-x86_64-mingw32/nios2-elf/lib\libc.a(lib_a-refill.o)
 .data          0x000000000804c418        0x0 c:/intelfpga_lite/19.1/nios2eds/bin/gnu/h-x86_64-mingw32/bin/../lib/gcc/nios2-elf/8.3.1/../../../../../H-x86_64-mingw32/nios2-elf/lib\libc.a(lib_a-strcmp.o)
 .data          0x000000000804c418        0x0 c:/intelfpga_lite/19.1/nios2eds/bin/gnu/h-x86_64-mingw32/bin/../lib/gcc/nios2-elf/8.3.1/../../../../../H-x86_64-mingw32/nios2-elf/lib\libc.a(lib_a-wcrtomb.o)
 .data          0x000000000804c418        0x0 c:/intelfpga_lite/19.1/nios2eds/bin/gnu/h-x86_64-mingw32/bin/../lib/gcc/nios2-elf/8.3.1/../../../../../H-x86_64-mingw32/nios2-elf/lib\libc.a(lib_a-wctomb_r.o)
 .data          0x000000000804c418        0x0 c:/intelfpga_lite/19.1/nios2eds/bin/gnu/h-x86_64-mingw32/bin/../lib/gcc/nios2-elf/8.3.1\libgcc.a(_udivdi3.o)
 .data          0x000000000804c418        0x0 c:/intelfpga_lite/19.1/nios2eds/bin/gnu/h-x86_64-mingw32/bin/../lib/gcc/nios2-elf/8.3.1\libgcc.a(_umoddi3.o)
 .data          0x000000000804c418        0x0 c:/intelfpga_lite/19.1/nios2eds/bin/gnu/h-x86_64-mingw32/bin/../lib/gcc/nios2-elf/8.3.1\libgcc.a(lib2-divmod.o)
 .data          0x000000000804c418        0x0 c:/intelfpga_lite/19.1/nios2eds/bin/gnu/h-x86_64-mingw32/bin/../lib/gcc/nios2-elf/8.3.1\libgcc.a(adddf3.o)
 .data          0x000000000804c418        0x0 c:/intelfpga_lite/19.1/nios2eds/bin/gnu/h-x86_64-mingw32/bin/../lib/gcc/nios2-elf/8.3.1\libgcc.a(divdf3.o)
 .data          0x000000000804c418        0x0 c:/intelfpga_lite/19.1/nios2eds/bin/gnu/h-x86_64-mingw32/bin/../lib/gcc/nios2-elf/8.3.1\libgcc.a(eqdf2.o)
 .data          0x000000000804c418        0x0 c:/intelfpga_lite/19.1/nios2eds/bin/gnu/h-x86_64-mingw32/bin/../lib/gcc/nios2-elf/8.3.1\libgcc.a(gedf2.o)
 .data          0x000000000804c418        0x0 c:/intelfpga_lite/19.1/nios2eds/bin/gnu/h-x86_64-mingw32/bin/../lib/gcc/nios2-elf/8.3.1\libgcc.a(ledf2.o)
 .data          0x000000000804c418        0x0 c:/intelfpga_lite/19.1/nios2eds/bin/gnu/h-x86_64-mingw32/bin/../lib/gcc/nios2-elf/8.3.1\libgcc.a(muldf3.o)
 .data          0x000000000804c418        0x0 c:/intelfpga_lite/19.1/nios2eds/bin/gnu/h-x86_64-mingw32/bin/../lib/gcc/nios2-elf/8.3.1\libgcc.a(subdf3.o)
 .data          0x000000000804c418        0x0 c:/intelfpga_lite/19.1/nios2eds/bin/gnu/h-x86_64-mingw32/bin/../lib/gcc/nios2-elf/8.3.1\libgcc.a(unorddf2.o)
 .data          0x000000000804c418        0x0 c:/intelfpga_lite/19.1/nios2eds/bin/gnu/h-x86_64-mingw32/bin/../lib/gcc/nios2-elf/8.3.1\libgcc.a(fixdfsi.o)
 .data          0x000000000804c418        0x0 c:/intelfpga_lite/19.1/nios2eds/bin/gnu/h-x86_64-mingw32/bin/../lib/gcc/nios2-elf/8.3.1\libgcc.a(floatsidf.o)
 .data          0x000000000804c418        0x0 c:/intelfpga_lite/19.1/nios2eds/bin/gnu/h-x86_64-mingw32/bin/../lib/gcc/nios2-elf/8.3.1\libgcc.a(floatunsidf.o)
 .data          0x000000000804c418        0x0 c:/intelfpga_lite/19.1/nios2eds/bin/gnu/h-x86_64-mingw32/bin/../lib/gcc/nios2-elf/8.3.1\libgcc.a(_clz.o)
 .data          0x000000000804c418        0x0 c:/intelfpga_lite/19.1/nios2eds/bin/gnu/h-x86_64-mingw32/bin/../lib/gcc/nios2-elf/8.3.1\libgcc.a(_clzsi2.o)
 .data          0x000000000804c418        0x0 ../hit_pat_bsp\libucosii_bsp.a(alt_flash_dev.o)
 .data          0x000000000804c418        0x0 ../hit_pat_bsp\libucosii_bsp.a(alt_fstat.o)
 .data          0x000000000804c418        0x0 ../hit_pat_bsp\libucosii_bsp.a(alt_isatty.o)
 .data          0x000000000804c418        0x0 ../hit_pat_bsp\libucosii_bsp.a(alt_lseek.o)
 .data          0x000000000804c418        0x0 ../hit_pat_bsp\libucosii_bsp.a(alt_main.o)
 .data          0x000000000804c418        0x0 ../hit_pat_bsp\libucosii_bsp.a(alt_sbrk.o)
 .data          0x000000000804c418        0x0 ../hit_pat_bsp\libucosii_bsp.a(alt_env_lock.o)
 .data          0x000000000804c418        0x0 ../hit_pat_bsp\libucosii_bsp.a(alt_malloc_lock.o)
 .data          0x000000000804c418        0x0 ../hit_pat_bsp\libucosii_bsp.a(os_core.o)
 .data          0x000000000804c418        0x0 ../hit_pat_bsp\libucosii_bsp.a(os_flag.o)
 .data          0x000000000804c418        0x0 ../hit_pat_bsp\libucosii_bsp.a(os_mem.o)
 .data          0x000000000804c418        0x0 ../hit_pat_bsp\libucosii_bsp.a(os_mutex.o)
 .data          0x000000000804c418        0x0 ../hit_pat_bsp\libucosii_bsp.a(os_q.o)
 .data          0x000000000804c418        0x0 ../hit_pat_bsp\libucosii_bsp.a(os_sem.o)
 .data          0x000000000804c418        0x0 ../hit_pat_bsp\libucosii_bsp.a(os_task.o)
 .data          0x000000000804c418        0x0 ../hit_pat_bsp\libucosii_bsp.a(os_time.o)
 *fill*         0x000000000804c418        0x8 
 .data          0x000000000804c420      0x390 ../hit_pat_bsp\libucosii_bsp.a(alt_sys_init.o)
 .data          0x000000000804c7b0        0x0 ../hit_pat_bsp\libucosii_bsp.a(altera_avalon_timer_sc.o)
 .data          0x000000000804c7b0        0x0 ../hit_pat_bsp\libucosii_bsp.a(altera_avalon_tse.o)
 .data          0x000000000804c7b0        0x0 ../hit_pat_bsp\libucosii_bsp.a(altera_avalon_uart_fd.o)
 .data          0x000000000804c7b0        0x0 ../hit_pat_bsp\libucosii_bsp.a(altera_avalon_uart_init.o)
 .data          0x000000000804c7b0        0x0 ../hit_pat_bsp\libucosii_bsp.a(altera_avalon_uart_read.o)
 .data          0x000000000804c7b0        0x0 ../hit_pat_bsp\libucosii_bsp.a(altera_avalon_uart_write.o)
 .data          0x000000000804c7b0        0x0 ../hit_pat_bsp\libucosii_bsp.a(altera_generic_quad_spi_controller.o)
 .data          0x000000000804c7b0        0x0 ../hit_pat_bsp\libucosii_bsp.a(altera_msgdma.o)
 .data          0x000000000804c7b0        0x0 ../hit_pat_bsp\libucosii_bsp.a(altera_onchip_flash.o)
 .data          0x000000000804c7b0        0x0 ../hit_pat_bsp\libucosii_bsp.a(ins_tse_mac.o)
 .data          0x000000000804c7b0        0x0 ../hit_pat_bsp\libucosii_bsp.a(alt_iniche_close.o)
 .data          0x000000000804c7b0        0x0 ../hit_pat_bsp\libucosii_bsp.a(alt_iniche_dev.o)
 .data          0x000000000804c7b0        0x0 ../hit_pat_bsp\libucosii_bsp.a(alt_iniche_read.o)
 .data          0x000000000804c7b0        0x0 ../hit_pat_bsp\libucosii_bsp.a(alt_iniche_write.o)
 .data          0x000000000804c7b0        0x0 ../hit_pat_bsp\libucosii_bsp.a(et_arp.o)
 .data          0x000000000804c7b0        0x0 ../hit_pat_bsp\libucosii_bsp.a(iface.o)
 .data          0x000000000804c7b0        0x0 ../hit_pat_bsp\libucosii_bsp.a(ipnet.o)
 .data          0x000000000804c7b0        0x0 ../hit_pat_bsp\libucosii_bsp.a(ipstart.o)
 .data          0x000000000804c7b0        0x0 ../hit_pat_bsp\libucosii_bsp.a(igmp_cmn.o)
 .data          0x000000000804c7b0        0x0 ../hit_pat_bsp\libucosii_bsp.a(bsdsock.o)
 .data          0x000000000804c7b0        0x0 ../hit_pat_bsp\libucosii_bsp.a(cksum.o)
 .data          0x000000000804c7b0        0x0 ../hit_pat_bsp\libucosii_bsp.a(in_utils.o)
 .data          0x000000000804c7b0       0x30 ../hit_pat_bsp\libucosii_bsp.a(netmain.o)
                0x000000000804c7b0                nettasks
 .data          0x000000000804c7e0        0x0 ../hit_pat_bsp\libucosii_bsp.a(tk_crnos.o)
 .data          0x000000000804c7e0        0x0 ../hit_pat_bsp\libucosii_bsp.a(ping.o)
 .data          0x000000000804c7e0        0x0 ../hit_pat_bsp\libucosii_bsp.a(pktalloc.o)
 .data          0x000000000804c7e0        0x0 ../hit_pat_bsp\libucosii_bsp.a(q.o)
 .data          0x000000000804c7e0        0x0 ../hit_pat_bsp\libucosii_bsp.a(asm_cksum.o)
 .data          0x000000000804c7e0        0x0 ../hit_pat_bsp\libucosii_bsp.a(brdutils.o)
 .data          0x000000000804c7e0        0x0 ../hit_pat_bsp\libucosii_bsp.a(osportco.o)
 .data          0x000000000804c7e0        0x0 ../hit_pat_bsp\libucosii_bsp.a(targnios.o)
 .data          0x000000000804c7e0       0x48 ../hit_pat_bsp\libucosii_bsp.a(nptcp.o)
                0x000000000804c7e0                tcp_protosw
                0x000000000804c7f8                udp_protosw
                0x000000000804c810                rawip_protosw
 .data          0x000000000804c828        0x0 ../hit_pat_bsp\libucosii_bsp.a(rawsock.o)
 .data          0x000000000804c828        0x0 ../hit_pat_bsp\libucosii_bsp.a(sockcall.o)
 .data          0x000000000804c828        0x0 ../hit_pat_bsp\libucosii_bsp.a(socket.o)
 .data          0x000000000804c828        0x0 ../hit_pat_bsp\libucosii_bsp.a(socket2.o)
 .data          0x000000000804c828        0x0 ../hit_pat_bsp\libucosii_bsp.a(soselect.o)
 .data          0x000000000804c828        0x0 ../hit_pat_bsp\libucosii_bsp.a(tcp_in.o)
 .data          0x000000000804c828        0xb ../hit_pat_bsp\libucosii_bsp.a(tcp_out.o)
                0x000000000804c828                tcp_outflags
 .data          0x000000000804c833        0x0 ../hit_pat_bsp\libucosii_bsp.a(tcp_subr.o)
 .data          0x000000000804c833        0xd ../hit_pat_bsp\libucosii_bsp.a(tcp_timr.o)
                0x000000000804c833                tcp_backoff
 .data          0x000000000804c840        0x0 ../hit_pat_bsp\libucosii_bsp.a(tcp_usr.o)
 .data          0x000000000804c840        0x0 ../hit_pat_bsp\libucosii_bsp.a(tcpport.o)
 .data          0x000000000804c840        0x0 ../hit_pat_bsp\libucosii_bsp.a(udpsock.o)
 .data          0x000000000804c840        0x0 ../hit_pat_bsp\libucosii_bsp.a(alt_busy_sleep.o)
 .data          0x000000000804c840        0x0 ../hit_pat_bsp\libucosii_bsp.a(alt_close.o)
 .data          0x000000000804c840        0x0 ../hit_pat_bsp\libucosii_bsp.a(alt_dcache_flush.o)
 .data          0x000000000804c840       0xe8 ../hit_pat_bsp\libucosii_bsp.a(alt_dev.o)
                0x000000000804c840                alt_dev_null
                0x000000000804c868                alt_fd_list
 .data          0x000000000804c928        0x0 ../hit_pat_bsp\libucosii_bsp.a(alt_dev_llist_insert.o)
 .data          0x000000000804c928        0x0 ../hit_pat_bsp\libucosii_bsp.a(alt_do_ctors.o)
 .data          0x000000000804c928        0x0 ../hit_pat_bsp\libucosii_bsp.a(alt_do_dtors.o)
 .data          0x000000000804c928        0x0 ../hit_pat_bsp\libucosii_bsp.a(alt_errno.o)
 .data          0x000000000804c928        0x0 ../hit_pat_bsp\libucosii_bsp.a(alt_find_dev.o)
 .data          0x000000000804c928        0x0 ../hit_pat_bsp\libucosii_bsp.a(alt_iic.o)
 .data          0x000000000804c928        0x0 ../hit_pat_bsp\libucosii_bsp.a(alt_iic_isr_register.o)
 .data          0x000000000804c928        0x0 ../hit_pat_bsp\libucosii_bsp.a(alt_io_redirect.o)
 .data          0x000000000804c928        0x0 ../hit_pat_bsp\libucosii_bsp.a(alt_irq_entry.o)
 .data          0x000000000804c928        0x0 ../hit_pat_bsp\libucosii_bsp.a(alt_irq_handler.o)
 .data          0x000000000804c928        0x0 ../hit_pat_bsp\libucosii_bsp.a(alt_irq_vars.o)
 .data          0x000000000804c928        0x0 ../hit_pat_bsp\libucosii_bsp.a(alt_open.o)
 .data          0x000000000804c928        0x0 ../hit_pat_bsp\libucosii_bsp.a(alt_printf.o)
 .data          0x000000000804c928        0x0 ../hit_pat_bsp\libucosii_bsp.a(alt_putchar.o)
 .data          0x000000000804c928        0x0 ../hit_pat_bsp\libucosii_bsp.a(alt_read.o)
 .data          0x000000000804c928        0x0 ../hit_pat_bsp\libucosii_bsp.a(alt_release_fd.o)
 .data          0x000000000804c928        0x0 ../hit_pat_bsp\libucosii_bsp.a(alt_remap_cached.o)
 .data          0x000000000804c928        0x0 ../hit_pat_bsp\libucosii_bsp.a(alt_tick.o)
 .data          0x000000000804c928        0x0 ../hit_pat_bsp\libucosii_bsp.a(alt_uncached_free.o)
 .data          0x000000000804c928        0x0 ../hit_pat_bsp\libucosii_bsp.a(alt_uncached_malloc.o)
 .data          0x000000000804c928        0x0 ../hit_pat_bsp\libucosii_bsp.a(alt_usleep.o)
 .data          0x000000000804c928        0x0 ../hit_pat_bsp\libucosii_bsp.a(alt_write.o)
 .data          0x000000000804c928        0x0 ../hit_pat_bsp\libucosii_bsp.a(altera_nios2_gen2_irq.o)
 .data          0x000000000804c928        0x0 ../hit_pat_bsp\libucosii_bsp.a(os_cpu_a.o)
 .data          0x000000000804c928        0x0 ../hit_pat_bsp\libucosii_bsp.a(os_cpu_c.o)
 .data          0x000000000804c928       0x18 ../hit_pat_bsp\libucosii_bsp.a(allports.o)
                0x000000000804c928                icmpdu_types
 .data          0x000000000804c940        0x0 ../hit_pat_bsp\libucosii_bsp.a(timeouts.o)
 .data          0x000000000804c940        0x0 ../hit_pat_bsp\libucosii_bsp.a(tk_misc.o)
 .data          0x000000000804c940        0x0 ../hit_pat_bsp\libucosii_bsp.a(alt_iniche_fcntl.o)
 .data          0x000000000804c940       0x18 ../hit_pat_bsp\libucosii_bsp.a(icmp.o)
 .data          0x000000000804c958        0x0 ../hit_pat_bsp\libucosii_bsp.a(ip.o)
 .data          0x000000000804c958        0x0 ../hit_pat_bsp\libucosii_bsp.a(ipdemux.o)
 .data          0x000000000804c958        0x0 ../hit_pat_bsp\libucosii_bsp.a(ipmc.o)
 .data          0x000000000804c958        0x0 ../hit_pat_bsp\libucosii_bsp.a(ipport.o)
 .data          0x000000000804c958        0x0 ../hit_pat_bsp\libucosii_bsp.a(ipraw.o)
 .data          0x000000000804c958        0x9 ../hit_pat_bsp\libucosii_bsp.a(iproute.o)
                0x000000000804c958                rtp_priority
 .data          0x000000000804c961        0x0 ../hit_pat_bsp\libucosii_bsp.a(udp.o)
 .data          0x000000000804c961        0x0 ../hit_pat_bsp\libucosii_bsp.a(igmp.o)
 .data          0x000000000804c961        0x0 ../hit_pat_bsp\libucosii_bsp.a(igmp2.o)
 .data          0x000000000804c961        0x0 ../hit_pat_bsp\libucosii_bsp.a(ipopt.o)
 .data          0x000000000804c961        0x0 ../hit_pat_bsp\libucosii_bsp.a(u_mctest.o)
 *fill*         0x000000000804c961        0x3 
 .data          0x000000000804c964       0xd4 ../hit_pat_bsp\libucosii_bsp.a(memdev.o)
                0x000000000804c964                mdio
                0x000000000804c988                mdlist
 .data          0x000000000804ca38        0x0 ../hit_pat_bsp\libucosii_bsp.a(parseip.o)
 .data          0x000000000804ca38        0x0 ../hit_pat_bsp\libucosii_bsp.a(tcpcksum.o)
 .data          0x000000000804ca38        0x0 ../hit_pat_bsp\libucosii_bsp.a(udp_open.o)
 .data          0x000000000804ca38        0x0 ../hit_pat_bsp\libucosii_bsp.a(in_pcb.o)
 .data          0x000000000804ca38       0x80 ../hit_pat_bsp\libucosii_bsp.a(vfsfiles.o)
                0x000000000804ca38                vfs_root_path
 .data          0x000000000804cab8        0x0 ../hit_pat_bsp\libucosii_bsp.a(vfsport.o)
 .data          0x000000000804cab8        0x0 ../hit_pat_bsp\libucosii_bsp.a(alt_exception_entry.o)
 .data          0x000000000804cab8        0x0 ../hit_pat_bsp\libucosii_bsp.a(alt_fcntl.o)
 .data          0x000000000804cab8        0x0 ../hit_pat_bsp\libucosii_bsp.a(alt_find_file.o)
 .data          0x000000000804cab8        0x0 ../hit_pat_bsp\libucosii_bsp.a(alt_get_fd.o)
 .data          0x000000000804cab8        0x0 ../hit_pat_bsp\libucosii_bsp.a(alt_instruction_exception_entry.o)
 .data          0x000000000804cab8        0x0 c:/intelfpga_lite/19.1/nios2eds/bin/gnu/h-x86_64-mingw32/bin/../lib/gcc/nios2-elf/8.3.1/../../../../../H-x86_64-mingw32/nios2-elf/lib\libc.a(lib_a-atexit.o)
 .data          0x000000000804cab8        0x0 c:/intelfpga_lite/19.1/nios2eds/bin/gnu/h-x86_64-mingw32/bin/../lib/gcc/nios2-elf/8.3.1/../../../../../H-x86_64-mingw32/nios2-elf/lib\libc.a(lib_a-atoi.o)
 .data          0x000000000804cab8        0x0 c:/intelfpga_lite/19.1/nios2eds/bin/gnu/h-x86_64-mingw32/bin/../lib/gcc/nios2-elf/8.3.1/../../../../../H-x86_64-mingw32/nios2-elf/lib\libc.a(lib_a-exit.o)
 .data          0x000000000804cab8        0x0 c:/intelfpga_lite/19.1/nios2eds/bin/gnu/h-x86_64-mingw32/bin/../lib/gcc/nios2-elf/8.3.1/../../../../../H-x86_64-mingw32/nios2-elf/lib\libc.a(lib_a-malign.o)
 .data          0x000000000804cab8        0x0 c:/intelfpga_lite/19.1/nios2eds/bin/gnu/h-x86_64-mingw32/bin/../lib/gcc/nios2-elf/8.3.1/../../../../../H-x86_64-mingw32/nios2-elf/lib\libc.a(lib_a-malignr.o)
 .data          0x000000000804cab8        0x0 c:/intelfpga_lite/19.1/nios2eds/bin/gnu/h-x86_64-mingw32/bin/../lib/gcc/nios2-elf/8.3.1/../../../../../H-x86_64-mingw32/nios2-elf/lib\libc.a(lib_a-malloc.o)
 .data          0x000000000804cab8        0x0 c:/intelfpga_lite/19.1/nios2eds/bin/gnu/h-x86_64-mingw32/bin/../lib/gcc/nios2-elf/8.3.1/../../../../../H-x86_64-mingw32/nios2-elf/lib\libc.a(lib_a-memcmp.o)
 .data          0x000000000804cab8        0x0 c:/intelfpga_lite/19.1/nios2eds/bin/gnu/h-x86_64-mingw32/bin/../lib/gcc/nios2-elf/8.3.1/../../../../../H-x86_64-mingw32/nios2-elf/lib\libc.a(lib_a-sprintf.o)
 .data          0x000000000804cab8        0x0 c:/intelfpga_lite/19.1/nios2eds/bin/gnu/h-x86_64-mingw32/bin/../lib/gcc/nios2-elf/8.3.1/../../../../../H-x86_64-mingw32/nios2-elf/lib\libc.a(lib_a-strchr.o)
 .data          0x000000000804cab8        0x0 c:/intelfpga_lite/19.1/nios2eds/bin/gnu/h-x86_64-mingw32/bin/../lib/gcc/nios2-elf/8.3.1/../../../../../H-x86_64-mingw32/nios2-elf/lib\libc.a(lib_a-strcpy.o)
 .data          0x000000000804cab8        0x0 c:/intelfpga_lite/19.1/nios2eds/bin/gnu/h-x86_64-mingw32/bin/../lib/gcc/nios2-elf/8.3.1/../../../../../H-x86_64-mingw32/nios2-elf/lib\libc.a(lib_a-strncmp.o)
 .data          0x000000000804cab8        0x0 c:/intelfpga_lite/19.1/nios2eds/bin/gnu/h-x86_64-mingw32/bin/../lib/gcc/nios2-elf/8.3.1/../../../../../H-x86_64-mingw32/nios2-elf/lib\libc.a(lib_a-strtol.o)
 .data          0x000000000804cab8        0x0 c:/intelfpga_lite/19.1/nios2eds/bin/gnu/h-x86_64-mingw32/bin/../lib/gcc/nios2-elf/8.3.1/../../../../../H-x86_64-mingw32/nios2-elf/lib\libc.a(lib_a-svfprintf.o)
 .data          0x000000000804cab8        0x0 c:/intelfpga_lite/19.1/nios2eds/bin/gnu/h-x86_64-mingw32/bin/../lib/gcc/nios2-elf/8.3.1/../../../../../H-x86_64-mingw32/nios2-elf/lib\libc.a(lib_a-vprintf.o)
 .data          0x000000000804cab8        0x0 c:/intelfpga_lite/19.1/nios2eds/bin/gnu/h-x86_64-mingw32/bin/../lib/gcc/nios2-elf/8.3.1/../../../../../H-x86_64-mingw32/nios2-elf/lib\libc.a(lib_a-vsprintf.o)
 .data          0x000000000804cab8        0x0 c:/intelfpga_lite/19.1/nios2eds/bin/gnu/h-x86_64-mingw32/bin/../lib/gcc/nios2-elf/8.3.1/../../../../../H-x86_64-mingw32/nios2-elf/lib\libc.a(lib_a-__atexit.o)
 .data          0x000000000804cab8        0x0 c:/intelfpga_lite/19.1/nios2eds/bin/gnu/h-x86_64-mingw32/bin/../lib/gcc/nios2-elf/8.3.1/../../../../../H-x86_64-mingw32/nios2-elf/lib\libc.a(lib_a-__call_atexit.o)
 .data          0x000000000804cab8        0x0 c:/intelfpga_lite/19.1/nios2eds/bin/gnu/h-x86_64-mingw32/bin/../lib/gcc/nios2-elf/8.3.1/../../../../../H-x86_64-mingw32/nios2-elf/lib\libc.a(lib_a-svfiprintf.o)
 .data          0x000000000804cab8        0x0 c:/intelfpga_lite/19.1/nios2eds/bin/gnu/h-x86_64-mingw32/bin/../lib/gcc/nios2-elf/8.3.1/../../../../../H-x86_64-mingw32/nios2-elf/lib\libc.a(lib_a-vfprintfr_1.o)
 .data          0x000000000804cab8        0x0 ../hit_pat_bsp\libucosii_bsp.a(alt_exit.o)
                0x0000000008054ab8                _gp = ABSOLUTE ((. + 0x8000))
                [!provide]                        PROVIDE (gp = _gp)
 *(.rwdata .rwdata.*)
 *(.sdata .sdata.* .gnu.linkonce.s.*)
 .sdata._global_impure_ptr
                0x000000000804cab8        0x4 c:/intelfpga_lite/19.1/nios2eds/bin/gnu/h-x86_64-mingw32/bin/../lib/gcc/nios2-elf/8.3.1/../../../../../H-x86_64-mingw32/nios2-elf/lib\libc.a(lib_a-impure.o)
                0x000000000804cab8                _global_impure_ptr
 .sdata._impure_ptr
                0x000000000804cabc        0x4 c:/intelfpga_lite/19.1/nios2eds/bin/gnu/h-x86_64-mingw32/bin/../lib/gcc/nios2-elf/8.3.1/../../../../../H-x86_64-mingw32/nios2-elf/lib\libc.a(lib_a-impure.o)
                0x000000000804cabc                _impure_ptr
 .sdata.__malloc_sbrk_base
                0x000000000804cac0        0x4 c:/intelfpga_lite/19.1/nios2eds/bin/gnu/h-x86_64-mingw32/bin/../lib/gcc/nios2-elf/8.3.1/../../../../../H-x86_64-mingw32/nios2-elf/lib\libc.a(lib_a-mallocr.o)
                0x000000000804cac0                __malloc_sbrk_base
 .sdata.__malloc_trim_threshold
                0x000000000804cac4        0x4 c:/intelfpga_lite/19.1/nios2eds/bin/gnu/h-x86_64-mingw32/bin/../lib/gcc/nios2-elf/8.3.1/../../../../../H-x86_64-mingw32/nios2-elf/lib\libc.a(lib_a-mallocr.o)
                0x000000000804cac4                __malloc_trim_threshold
 .sdata         0x000000000804cac8        0x8 ../hit_pat_bsp\libucosii_bsp.a(alt_flash_dev.o)
                0x000000000804cac8                alt_flash_dev_list
 .sdata         0x000000000804cad0        0x4 ../hit_pat_bsp\libucosii_bsp.a(alt_sbrk.o)
 .sdata         0x000000000804cad4        0x4 ../hit_pat_bsp\libucosii_bsp.a(alt_env_lock.o)
 .sdata         0x000000000804cad8        0x4 ../hit_pat_bsp\libucosii_bsp.a(alt_malloc_lock.o)
 .sdata         0x000000000804cadc        0x4 ../hit_pat_bsp\libucosii_bsp.a(alt_sys_init.o)
                0x000000000804cadc                eth_tse_name
 .sdata         0x000000000804cae0        0x1 ../hit_pat_bsp\libucosii_bsp.a(altera_avalon_tse.o)
                0x000000000804cae0                max_mac_system
 *fill*         0x000000000804cae1        0x3 
 .sdata         0x000000000804cae4        0x8 ../hit_pat_bsp\libucosii_bsp.a(altera_msgdma.o)
                0x000000000804cae4                alt_msgdma_list
 .sdata         0x000000000804caec        0x8 ../hit_pat_bsp\libucosii_bsp.a(altera_onchip_flash.o)
                0x000000000804caec                altera_onchip_flash_list
 .sdata         0x000000000804caf4        0x8 ../hit_pat_bsp\libucosii_bsp.a(alt_iniche_dev.o)
                0x000000000804caf4                alt_iniche_dev_list
 .sdata         0x000000000804cafc        0x4 ../hit_pat_bsp\libucosii_bsp.a(et_arp.o)
                0x000000000804cafc                arp_ageout
 .sdata         0x000000000804cb00        0x4 ../hit_pat_bsp\libucosii_bsp.a(ipstart.o)
                0x000000000804cb00                ipmcfail_str
 .sdata         0x000000000804cb04        0x4 ../hit_pat_bsp\libucosii_bsp.a(cksum.o)
 .sdata         0x000000000804cb08        0x4 ../hit_pat_bsp\libucosii_bsp.a(netmain.o)
                0x000000000804cb08                num_net_tasks
 .sdata         0x000000000804cb0c        0x4 ../hit_pat_bsp\libucosii_bsp.a(ping.o)
                0x000000000804cb0c                pingdata
 .sdata         0x000000000804cb10       0x10 ../hit_pat_bsp\libucosii_bsp.a(pktalloc.o)
                0x000000000804cb10                lilbufs
                0x000000000804cb14                lilbufsiz
                0x000000000804cb18                bigbufs
                0x000000000804cb1c                bigbufsiz
 .sdata         0x000000000804cb20        0x4 ../hit_pat_bsp\libucosii_bsp.a(brdutils.o)
                0x000000000804cb20                kb_last
 .sdata         0x000000000804cb24        0x4 ../hit_pat_bsp\libucosii_bsp.a(nptcp.o)
                0x000000000804cb24                TCPTV_MSL
 .sdata         0x000000000804cb28        0x2 ../hit_pat_bsp\libucosii_bsp.a(socket.o)
                0x000000000804cb28                socket_defaults
 .sdata         0x000000000804cb2a        0x1 ../hit_pat_bsp\libucosii_bsp.a(tcp_in.o)
                0x000000000804cb2a                tcprexmtthresh
 *fill*         0x000000000804cb2b        0x1 
 .sdata         0x000000000804cb2c        0x4 ../hit_pat_bsp\libucosii_bsp.a(tcp_subr.o)
                0x000000000804cb2c                tcp_ttl
 .sdata         0x000000000804cb30        0x8 ../hit_pat_bsp\libucosii_bsp.a(tcp_timr.o)
                0x000000000804cb30                tcp_keepidle
                0x000000000804cb34                tcp_keepintvl
 .sdata         0x000000000804cb38        0x8 ../hit_pat_bsp\libucosii_bsp.a(tcp_usr.o)
                0x000000000804cb38                tcp_sendspace
                0x000000000804cb3c                tcp_recvspace
 .sdata         0x000000000804cb40       0x14 ../hit_pat_bsp\libucosii_bsp.a(alt_dev.o)
                0x000000000804cb40                alt_fs_list
                0x000000000804cb48                alt_dev_list
                0x000000000804cb50                alt_max_fd
 .sdata         0x000000000804cb54        0x4 ../hit_pat_bsp\libucosii_bsp.a(alt_errno.o)
                0x000000000804cb54                alt_errno
 .sdata         0x000000000804cb58        0x4 ../hit_pat_bsp\libucosii_bsp.a(alt_irq_vars.o)
                0x000000000804cb58                alt_priority_mask
 .sdata         0x000000000804cb5c        0x8 ../hit_pat_bsp\libucosii_bsp.a(alt_tick.o)
                0x000000000804cb5c                alt_alarm_list
 .sdata         0x000000000804cb64       0x10 ../hit_pat_bsp\libucosii_bsp.a(allports.o)
                0x000000000804cb64                name
                0x000000000804cb68                prompt
                0x000000000804cb6c                pingdelay
                0x000000000804cb70                deflength
 .sdata         0x000000000804cb74        0x8 ../hit_pat_bsp\libucosii_bsp.a(ip.o)
                0x000000000804cb78                ipRoutes
 .sdata         0x000000000804cb7c        0x4 ../hit_pat_bsp\libucosii_bsp.a(u_mctest.o)
 .sdata         0x000000000804cb80        0x4 ../hit_pat_bsp\libucosii_bsp.a(memdev.o)
                0x000000000804cb80                mdlist_size
 .sdata         0x000000000804cb84        0x4 ../hit_pat_bsp\libucosii_bsp.a(parseip.o)
                0x000000000804cb84                pton_error
 .sdata         0x000000000804cb88        0x4 ../hit_pat_bsp\libucosii_bsp.a(vfsfiles.o)
                0x000000000804cb88                http_root_path
 *(.sdata2 .sdata2.* .gnu.linkonce.s2.*)
                0x000000000804cb8c                . = ALIGN (0x4)
                0x000000000804cb8c                _edata = ABSOLUTE (.)
                [!provide]                        PROVIDE (edata = ABSOLUTE (.))
                [!provide]                        PROVIDE (__ram_rwdata_end = ABSOLUTE (.))
                [!provide]                        PROVIDE (__flash_rwdata_start = LOADADDR (.rwdata))

.bss            0x000000000804cb8c    0x11a10
                0x000000000804cb8c                __bss_start = ABSOLUTE (.)
                [!provide]                        PROVIDE (__sbss_start = ABSOLUTE (.))
                [!provide]                        PROVIDE (___sbss_start = ABSOLUTE (.))
 *(.dynsbss)
 *(.sbss .sbss.* .gnu.linkonce.sb.*)
 .sbss          0x000000000804cb8c       0x10 obj/default/src/control.o
 .sbss          0x000000000804cb9c        0x1 obj/default/src/control.o
                0x000000000804cb9c                to_controltask
 *fill*         0x000000000804cb9d        0x3 
 .sbss          0x000000000804cba0        0x8 obj/default/src/network_utilities.o
                0x000000000804cba0                last_flash_sector_offset
                0x000000000804cba4                last_flash_sector
 .sbss          0x000000000804cba8        0x5 obj/default/src/socket_server.o
                0x000000000804cbac                to_sslistenertask
 *fill*         0x000000000804cbad        0x1 
 .sbss          0x000000000804cbae        0x6 obj/default/src/utils.o
                0x000000000804cbae                mastermode
                0x000000000804cbb0                delays
 .sbss.__malloc_max_total_mem
                0x000000000804cbb4        0x4 c:/intelfpga_lite/19.1/nios2eds/bin/gnu/h-x86_64-mingw32/bin/../lib/gcc/nios2-elf/8.3.1/../../../../../H-x86_64-mingw32/nios2-elf/lib\libc.a(lib_a-mallocr.o)
                0x000000000804cbb4                __malloc_max_total_mem
 .sbss.__malloc_max_sbrked_mem
                0x000000000804cbb8        0x4 c:/intelfpga_lite/19.1/nios2eds/bin/gnu/h-x86_64-mingw32/bin/../lib/gcc/nios2-elf/8.3.1/../../../../../H-x86_64-mingw32/nios2-elf/lib\libc.a(lib_a-mallocr.o)
                0x000000000804cbb8                __malloc_max_sbrked_mem
 .sbss.__malloc_top_pad
                0x000000000804cbbc        0x4 c:/intelfpga_lite/19.1/nios2eds/bin/gnu/h-x86_64-mingw32/bin/../lib/gcc/nios2-elf/8.3.1/../../../../../H-x86_64-mingw32/nios2-elf/lib\libc.a(lib_a-mallocr.o)
                0x000000000804cbbc                __malloc_top_pad
 .sbss          0x000000000804cbc0        0x4 c:/intelfpga_lite/19.1/nios2eds/bin/gnu/h-x86_64-mingw32/bin/../lib/gcc/nios2-elf/8.3.1/../../../../../H-x86_64-mingw32/nios2-elf/lib\libc.a(lib_a-int_errno.o)
                0x000000000804cbc0                errno
 .sbss._PathLocale
                0x000000000804cbc4        0x4 c:/intelfpga_lite/19.1/nios2eds/bin/gnu/h-x86_64-mingw32/bin/../lib/gcc/nios2-elf/8.3.1/../../../../../H-x86_64-mingw32/nios2-elf/lib\libc.a(lib_a-locale.o)
                0x000000000804cbc4                _PathLocale
 .sbss          0x000000000804cbc8        0xc ../hit_pat_bsp\libucosii_bsp.a(alt_main.o)
                0x000000000804cbc8                alt_argc
                0x000000000804cbcc                alt_argv
                0x000000000804cbd0                alt_envp
 .sbss          0x000000000804cbd4        0x8 ../hit_pat_bsp\libucosii_bsp.a(alt_env_lock.o)
                0x000000000804cbd8                alt_envsem
 .sbss          0x000000000804cbdc        0x8 ../hit_pat_bsp\libucosii_bsp.a(alt_malloc_lock.o)
                0x000000000804cbe0                alt_heapsem
 .sbss          0x000000000804cbe4       0x40 ../hit_pat_bsp\libucosii_bsp.a(os_core.o)
                0x000000000804cbe4                OSLockNesting
                0x000000000804cbe5                OSRunning
                0x000000000804cbe8                OSIdleCtr
                0x000000000804cbec                OSPrioHighRdy
                0x000000000804cbed                OSPrioCur
                0x000000000804cbf0                OSTCBList
                0x000000000804cbf4                OSCtxSwCtr
                0x000000000804cbf8                OSTCBFreeList
                0x000000000804cbfc                OSTaskCtr
                0x000000000804cc00                OSMemFreeList
                0x000000000804cc04                OSTCBHighRdy
                0x000000000804cc08                OSQFreeList
                0x000000000804cc0c                OSRdyGrp
                0x000000000804cc0d                OSRdyTbl
                0x000000000804cc10                OSEventFreeList
                0x000000000804cc14                OSIntNesting
                0x000000000804cc18                OSTCBCur
                0x000000000804cc1c                OSTime
                0x000000000804cc20                OSFlagFreeList
 .sbss          0x000000000804cc24        0x4 ../hit_pat_bsp\libucosii_bsp.a(altera_avalon_tse.o)
                0x000000000804cc24                phy_profile_count
                0x000000000804cc25                mac_group_count
 .sbss          0x000000000804cc28        0x1 ../hit_pat_bsp\libucosii_bsp.a(ins_tse_mac.o)
                0x000000000804cc28                number_of_tse_mac
 *fill*         0x000000000804cc29        0x3 
 .sbss          0x000000000804cc2c       0x1c ../hit_pat_bsp\libucosii_bsp.a(et_arp.o)
                0x000000000804cc30                arpcache
                0x000000000804cc38                arpReqsIn
                0x000000000804cc3c                arpReqsOut
                0x000000000804cc40                arpRepsIn
                0x000000000804cc44                arpRepsOut
 .sbss          0x000000000804cc48        0xc ../hit_pat_bsp\libucosii_bsp.a(ipnet.o)
                0x000000000804cc48                MaxLnh
                0x000000000804cc4c                MaxMtu
                0x000000000804cc50                NDEBUG
 .sbss          0x000000000804cc54        0x8 ../hit_pat_bsp\libucosii_bsp.a(ipstart.o)
                0x000000000804cc54                ifNumber
 .sbss          0x000000000804cc5c       0x10 ../hit_pat_bsp\libucosii_bsp.a(igmp_cmn.o)
                0x000000000804cc5c                igmp_timers_are_running
                0x000000000804cc60                igmp_cticks
                0x000000000804cc64                igmp_all_hosts_group
                0x000000000804cc68                igmp_all_rtrs_group
 .sbss          0x000000000804cc6c        0xe ../hit_pat_bsp\libucosii_bsp.a(netmain.o)
                0x000000000804cc6c                netmain_wakes
                0x000000000804cc70                nettick_wakes
                0x000000000804cc74                iniche_net_ready
                0x000000000804cc78                to_netmain
                0x000000000804cc79                to_nettick
 *fill*         0x000000000804cc7a        0x2 
 .sbss          0x000000000804cc7c        0x4 ../hit_pat_bsp\libucosii_bsp.a(tk_crnos.o)
                0x000000000804cc7c                tcp_sleep_timeout
 .sbss          0x000000000804cc80       0x18 ../hit_pat_bsp\libucosii_bsp.a(brdutils.o)
                0x000000000804cc80                cticks_initialized
                0x000000000804cc84                irq_level
                0x000000000804cc90                cticks_factor
                0x000000000804cc94                OS_TPS
 .sbss          0x000000000804cc98       0x18 ../hit_pat_bsp\libucosii_bsp.a(osportco.o)
                0x000000000804cc98                tcp_sleep_count
                0x000000000804cc9c                tcp_wakeup_count
                0x000000000804cca0                netq_intmask
                0x000000000804cca4                old_mode
                0x000000000804cca8                global_TCPwakeup_setIndx
                0x000000000804ccac                cticks
 .sbss          0x000000000804ccb0        0xc ../hit_pat_bsp\libucosii_bsp.a(targnios.o)
                0x000000000804ccb0                memtrapsize
                0x000000000804ccb4                mheap_sem_ptr
                0x000000000804ccb8                rcvdq_sem_ptr
 .sbss          0x000000000804ccbc       0x12 ../hit_pat_bsp\libucosii_bsp.a(nptcp.o)
                0x000000000804ccbc                nextslow
                0x000000000804ccc4                mbstat
                0x000000000804cccc                select_wait
 *fill*         0x000000000804ccce        0x2 
 .sbss          0x000000000804ccd0        0x8 ../hit_pat_bsp\libucosii_bsp.a(tcp_in.o)
                0x000000000804ccd0                tcpprintfs
                0x000000000804ccd4                dropline
 .sbss          0x000000000804ccd8        0x4 ../hit_pat_bsp\libucosii_bsp.a(tcp_out.o)
                0x000000000804ccd8                tcp_optionbuf
 .sbss          0x000000000804ccdc        0x8 ../hit_pat_bsp\libucosii_bsp.a(tcp_timr.o)
                0x000000000804ccdc                tcp_maxidle
                0x000000000804cce0                tcp_iss
 .sbss          0x000000000804cce4        0x4 ../hit_pat_bsp\libucosii_bsp.a(alt_dev.o)
                0x000000000804cce4                alt_fd_list_lock
 .sbss          0x000000000804cce8        0x4 ../hit_pat_bsp\libucosii_bsp.a(alt_irq_vars.o)
                0x000000000804cce8                alt_irq_active
 .sbss          0x000000000804ccec        0x8 ../hit_pat_bsp\libucosii_bsp.a(alt_tick.o)
                0x000000000804ccec                _alt_tick_rate
                0x000000000804ccf0                _alt_nticks
 .sbss          0x000000000804ccf4        0x8 ../hit_pat_bsp\libucosii_bsp.a(allports.o)
                0x000000000804ccf4                activehost
 .sbss          0x000000000804ccfc        0xc ../hit_pat_bsp\libucosii_bsp.a(timeouts.o)
                0x000000000804ccfc                nextppp
                0x000000000804cd00                port_1s_callout
 .sbss          0x000000000804cd08        0x4 ../hit_pat_bsp\libucosii_bsp.a(icmp.o)
                0x000000000804cd08                icmpdu_hook
 .sbss          0x000000000804cd0c        0x4 ../hit_pat_bsp\libucosii_bsp.a(ip.o)
                0x000000000804cd0c                rt_mib
 .sbss          0x000000000804cd10       0x11 ../hit_pat_bsp\libucosii_bsp.a(ipport.o)
                0x000000000804cd10                port_prep
                0x000000000804cd14                net_system_exit
                0x000000000804cd18                so_evtmap_create
                0x000000000804cd1c                so_evtmap_delete
                0x000000000804cd20                so_evtmap
 *fill*         0x000000000804cd21        0x3 
 .sbss          0x000000000804cd24        0x4 ../hit_pat_bsp\libucosii_bsp.a(ipraw.o)
                0x000000000804cd24                ipraw_eps
 .sbss          0x000000000804cd28        0x4 ../hit_pat_bsp\libucosii_bsp.a(iproute.o)
                0x000000000804cd28                cachedRoute
 .sbss          0x000000000804cd2c        0x2 ../hit_pat_bsp\libucosii_bsp.a(udp.o)
 *fill*         0x000000000804cd2e        0x2 
 .sbss          0x000000000804cd30        0x4 ../hit_pat_bsp\libucosii_bsp.a(udp_open.o)
                0x000000000804cd30                firstudp
 .sbss          0x000000000804cd34        0x8 ../hit_pat_bsp\libucosii_bsp.a(in_pcb.o)
                0x000000000804cd34                inpcb_cachehits
                0x000000000804cd38                inpcb_cachemiss
 .sbss          0x000000000804cd3c       0x20 ../hit_pat_bsp\libucosii_bsp.a(vfsfiles.o)
                0x000000000804cd3c                vfsystems
                0x000000000804cd40                vfiles
                0x000000000804cd44                vfsfiles
                0x000000000804cd48                vfopen_error
                0x000000000804cd4c                vfs_dir_stale
                0x000000000804cd50                vfs_open_files
                0x000000000804cd54                vfs_total_rw_space
                0x000000000804cd58                vfs_total_dyna_files
 .sbss          0x000000000804cd5c        0x4 ../hit_pat_bsp\libucosii_bsp.a(alt_instruction_exception_entry.o)
                0x000000000804cd5c                alt_instruction_exception_handler
 *(.sbss2 .sbss2.* .gnu.linkonce.sb2.*)
 *(.scommon)
                [!provide]                        PROVIDE (__sbss_end = ABSOLUTE (.))
                [!provide]                        PROVIDE (___sbss_end = ABSOLUTE (.))
 *(.dynbss)
 *(.bss .bss.* .gnu.linkonce.b.*)
 .bss           0x000000000804cd60        0x0 d:/hit20v3/software/hit_pat/software/hit_pat_bsp//obj/HAL/src/crt0.o
 .bss           0x000000000804cd60       0x20 obj/default/src/control.o
 .bss           0x000000000804cd80        0x0 obj/default/src/main.o
 .bss           0x000000000804cd80        0x0 obj/default/src/network_utilities.o
 .bss           0x000000000804cd80        0x0 obj/default/src/sensor.o
 .bss           0x000000000804cd80       0x10 obj/default/src/socket_server.o
 .bss           0x000000000804cd90        0x0 obj/default/src/tse_my_system.o
 .bss           0x000000000804cd90        0x0 obj/default/src/udpgen.o
 .bss           0x000000000804cd90        0x0 obj/default/src/utils.o
 .bss           0x000000000804cd90        0x0 c:/intelfpga_lite/19.1/nios2eds/bin/gnu/h-x86_64-mingw32/bin/../lib/gcc/nios2-elf/8.3.1/../../../../../H-x86_64-mingw32/nios2-elf/lib\libc.a(lib_a-ctype_.o)
 .bss           0x000000000804cd90        0x0 c:/intelfpga_lite/19.1/nios2eds/bin/gnu/h-x86_64-mingw32/bin/../lib/gcc/nios2-elf/8.3.1/../../../../../H-x86_64-mingw32/nios2-elf/lib\libc.a(lib_a-getchar.o)
 .bss           0x000000000804cd90        0x0 c:/intelfpga_lite/19.1/nios2eds/bin/gnu/h-x86_64-mingw32/bin/../lib/gcc/nios2-elf/8.3.1/../../../../../H-x86_64-mingw32/nios2-elf/lib\libc.a(lib_a-impure.o)
 .bss           0x000000000804cd90        0x0 c:/intelfpga_lite/19.1/nios2eds/bin/gnu/h-x86_64-mingw32/bin/../lib/gcc/nios2-elf/8.3.1/../../../../../H-x86_64-mingw32/nios2-elf/lib\libc.a(lib_a-printf.o)
 .bss           0x000000000804cd90        0x0 c:/intelfpga_lite/19.1/nios2eds/bin/gnu/h-x86_64-mingw32/bin/../lib/gcc/nios2-elf/8.3.1/../../../../../H-x86_64-mingw32/nios2-elf/lib\libc.a(lib_a-putchar.o)
 .bss           0x000000000804cd90        0x0 c:/intelfpga_lite/19.1/nios2eds/bin/gnu/h-x86_64-mingw32/bin/../lib/gcc/nios2-elf/8.3.1/../../../../../H-x86_64-mingw32/nios2-elf/lib\libc.a(lib_a-puts.o)
 .bss           0x000000000804cd90        0x0 c:/intelfpga_lite/19.1/nios2eds/bin/gnu/h-x86_64-mingw32/bin/../lib/gcc/nios2-elf/8.3.1/../../../../../H-x86_64-mingw32/nios2-elf/lib\libc.a(lib_a-strlen.o)
 .bss           0x000000000804cd90        0x0 c:/intelfpga_lite/19.1/nios2eds/bin/gnu/h-x86_64-mingw32/bin/../lib/gcc/nios2-elf/8.3.1/../../../../../H-x86_64-mingw32/nios2-elf/lib\libc.a(lib_a-vfprintf.o)
 .bss           0x000000000804cd90        0x0 c:/intelfpga_lite/19.1/nios2eds/bin/gnu/h-x86_64-mingw32/bin/../lib/gcc/nios2-elf/8.3.1/../../../../../H-x86_64-mingw32/nios2-elf/lib\libc.a(lib_a-wsetup.o)
 .bss           0x000000000804cd90        0x0 c:/intelfpga_lite/19.1/nios2eds/bin/gnu/h-x86_64-mingw32/bin/../lib/gcc/nios2-elf/8.3.1/../../../../../H-x86_64-mingw32/nios2-elf/lib\libc.a(lib_a-dtoa.o)
 .bss           0x000000000804cd90        0x0 c:/intelfpga_lite/19.1/nios2eds/bin/gnu/h-x86_64-mingw32/bin/../lib/gcc/nios2-elf/8.3.1/../../../../../H-x86_64-mingw32/nios2-elf/lib\libc.a(lib_a-fflush.o)
 .bss           0x000000000804cd90        0x0 c:/intelfpga_lite/19.1/nios2eds/bin/gnu/h-x86_64-mingw32/bin/../lib/gcc/nios2-elf/8.3.1/../../../../../H-x86_64-mingw32/nios2-elf/lib\libc.a(lib_a-findfp.o)
 .bss           0x000000000804cd90        0x0 c:/intelfpga_lite/19.1/nios2eds/bin/gnu/h-x86_64-mingw32/bin/../lib/gcc/nios2-elf/8.3.1/../../../../../H-x86_64-mingw32/nios2-elf/lib\libc.a(lib_a-freer.o)
 .bss           0x000000000804cd90        0x0 c:/intelfpga_lite/19.1/nios2eds/bin/gnu/h-x86_64-mingw32/bin/../lib/gcc/nios2-elf/8.3.1/../../../../../H-x86_64-mingw32/nios2-elf/lib\libc.a(lib_a-fvwrite.o)
 .bss           0x000000000804cd90        0x0 c:/intelfpga_lite/19.1/nios2eds/bin/gnu/h-x86_64-mingw32/bin/../lib/gcc/nios2-elf/8.3.1/../../../../../H-x86_64-mingw32/nios2-elf/lib\libc.a(lib_a-fwalk.o)
 .bss           0x000000000804cd90        0x0 c:/intelfpga_lite/19.1/nios2eds/bin/gnu/h-x86_64-mingw32/bin/../lib/gcc/nios2-elf/8.3.1/../../../../../H-x86_64-mingw32/nios2-elf/lib\libc.a(lib_a-getc.o)
 .bss           0x000000000804cd90        0x0 c:/intelfpga_lite/19.1/nios2eds/bin/gnu/h-x86_64-mingw32/bin/../lib/gcc/nios2-elf/8.3.1/../../../../../H-x86_64-mingw32/nios2-elf/lib\libc.a(lib_a-localeconv.o)
 .bss           0x000000000804cd90        0x0 c:/intelfpga_lite/19.1/nios2eds/bin/gnu/h-x86_64-mingw32/bin/../lib/gcc/nios2-elf/8.3.1/../../../../../H-x86_64-mingw32/nios2-elf/lib\libc.a(lib_a-makebuf.o)
 .bss           0x000000000804cd90        0x0 c:/intelfpga_lite/19.1/nios2eds/bin/gnu/h-x86_64-mingw32/bin/../lib/gcc/nios2-elf/8.3.1/../../../../../H-x86_64-mingw32/nios2-elf/lib\libc.a(lib_a-mallocr.o)
 .bss.__malloc_current_mallinfo
                0x000000000804cd90       0x28 c:/intelfpga_lite/19.1/nios2eds/bin/gnu/h-x86_64-mingw32/bin/../lib/gcc/nios2-elf/8.3.1/../../../../../H-x86_64-mingw32/nios2-elf/lib\libc.a(lib_a-mallocr.o)
                0x000000000804cd90                __malloc_current_mallinfo
 .bss           0x000000000804cdb8        0x0 c:/intelfpga_lite/19.1/nios2eds/bin/gnu/h-x86_64-mingw32/bin/../lib/gcc/nios2-elf/8.3.1/../../../../../H-x86_64-mingw32/nios2-elf/lib\libc.a(lib_a-memchr.o)
 .bss           0x000000000804cdb8        0x0 c:/intelfpga_lite/19.1/nios2eds/bin/gnu/h-x86_64-mingw32/bin/../lib/gcc/nios2-elf/8.3.1/../../../../../H-x86_64-mingw32/nios2-elf/lib\libc.a(lib_a-memcpy.o)
 .bss           0x000000000804cdb8        0x0 c:/intelfpga_lite/19.1/nios2eds/bin/gnu/h-x86_64-mingw32/bin/../lib/gcc/nios2-elf/8.3.1/../../../../../H-x86_64-mingw32/nios2-elf/lib\libc.a(lib_a-memmove.o)
 .bss           0x000000000804cdb8        0x0 c:/intelfpga_lite/19.1/nios2eds/bin/gnu/h-x86_64-mingw32/bin/../lib/gcc/nios2-elf/8.3.1/../../../../../H-x86_64-mingw32/nios2-elf/lib\libc.a(lib_a-memset.o)
 .bss           0x000000000804cdb8        0x0 c:/intelfpga_lite/19.1/nios2eds/bin/gnu/h-x86_64-mingw32/bin/../lib/gcc/nios2-elf/8.3.1/../../../../../H-x86_64-mingw32/nios2-elf/lib\libc.a(lib_a-mprec.o)
 .bss           0x000000000804cdb8        0x0 c:/intelfpga_lite/19.1/nios2eds/bin/gnu/h-x86_64-mingw32/bin/../lib/gcc/nios2-elf/8.3.1/../../../../../H-x86_64-mingw32/nios2-elf/lib\libc.a(lib_a-putc.o)
 .bss           0x000000000804cdb8        0x0 c:/intelfpga_lite/19.1/nios2eds/bin/gnu/h-x86_64-mingw32/bin/../lib/gcc/nios2-elf/8.3.1/../../../../../H-x86_64-mingw32/nios2-elf/lib\libc.a(lib_a-reallocr.o)
 .bss           0x000000000804cdb8        0x0 c:/intelfpga_lite/19.1/nios2eds/bin/gnu/h-x86_64-mingw32/bin/../lib/gcc/nios2-elf/8.3.1/../../../../../H-x86_64-mingw32/nios2-elf/lib\libc.a(lib_a-rget.o)
 .bss           0x000000000804cdb8        0x0 c:/intelfpga_lite/19.1/nios2eds/bin/gnu/h-x86_64-mingw32/bin/../lib/gcc/nios2-elf/8.3.1/../../../../../H-x86_64-mingw32/nios2-elf/lib\libc.a(lib_a-sbrkr.o)
 .bss           0x000000000804cdb8        0x0 c:/intelfpga_lite/19.1/nios2eds/bin/gnu/h-x86_64-mingw32/bin/../lib/gcc/nios2-elf/8.3.1/../../../../../H-x86_64-mingw32/nios2-elf/lib\libc.a(lib_a-stdio.o)
 .bss           0x000000000804cdb8        0x0 c:/intelfpga_lite/19.1/nios2eds/bin/gnu/h-x86_64-mingw32/bin/../lib/gcc/nios2-elf/8.3.1/../../../../../H-x86_64-mingw32/nios2-elf/lib\libc.a(lib_a-vfiprintf.o)
 .bss           0x000000000804cdb8        0x0 c:/intelfpga_lite/19.1/nios2eds/bin/gnu/h-x86_64-mingw32/bin/../lib/gcc/nios2-elf/8.3.1/../../../../../H-x86_64-mingw32/nios2-elf/lib\libc.a(lib_a-wbuf.o)
 .bss           0x000000000804cdb8        0x0 c:/intelfpga_lite/19.1/nios2eds/bin/gnu/h-x86_64-mingw32/bin/../lib/gcc/nios2-elf/8.3.1/../../../../../H-x86_64-mingw32/nios2-elf/lib\libc.a(lib_a-writer.o)
 .bss           0x000000000804cdb8        0x0 c:/intelfpga_lite/19.1/nios2eds/bin/gnu/h-x86_64-mingw32/bin/../lib/gcc/nios2-elf/8.3.1/../../../../../H-x86_64-mingw32/nios2-elf/lib\libc.a(closer.o)
 .bss           0x000000000804cdb8        0x0 c:/intelfpga_lite/19.1/nios2eds/bin/gnu/h-x86_64-mingw32/bin/../lib/gcc/nios2-elf/8.3.1/../../../../../H-x86_64-mingw32/nios2-elf/lib\libc.a(lib_a-callocr.o)
 .bss           0x000000000804cdb8        0x0 c:/intelfpga_lite/19.1/nios2eds/bin/gnu/h-x86_64-mingw32/bin/../lib/gcc/nios2-elf/8.3.1/../../../../../H-x86_64-mingw32/nios2-elf/lib\libc.a(lib_a-fclose.o)
 .bss           0x000000000804cdb8        0x0 c:/intelfpga_lite/19.1/nios2eds/bin/gnu/h-x86_64-mingw32/bin/../lib/gcc/nios2-elf/8.3.1/../../../../../H-x86_64-mingw32/nios2-elf/lib\libc.a(lib_a-fputwc.o)
 .bss           0x000000000804cdb8        0x0 c:/intelfpga_lite/19.1/nios2eds/bin/gnu/h-x86_64-mingw32/bin/../lib/gcc/nios2-elf/8.3.1/../../../../../H-x86_64-mingw32/nios2-elf/lib\libc.a(lib_a-fstatr.o)
 .bss           0x000000000804cdb8        0x0 c:/intelfpga_lite/19.1/nios2eds/bin/gnu/h-x86_64-mingw32/bin/../lib/gcc/nios2-elf/8.3.1/../../../../../H-x86_64-mingw32/nios2-elf/lib\libc.a(lib_a-int_errno.o)
 .bss           0x000000000804cdb8        0x0 c:/intelfpga_lite/19.1/nios2eds/bin/gnu/h-x86_64-mingw32/bin/../lib/gcc/nios2-elf/8.3.1/../../../../../H-x86_64-mingw32/nios2-elf/lib\libc.a(lib_a-isattyr.o)
 .bss           0x000000000804cdb8        0x0 c:/intelfpga_lite/19.1/nios2eds/bin/gnu/h-x86_64-mingw32/bin/../lib/gcc/nios2-elf/8.3.1/../../../../../H-x86_64-mingw32/nios2-elf/lib\libc.a(lib_a-locale.o)
 .bss           0x000000000804cdb8        0x0 c:/intelfpga_lite/19.1/nios2eds/bin/gnu/h-x86_64-mingw32/bin/../lib/gcc/nios2-elf/8.3.1/../../../../../H-x86_64-mingw32/nios2-elf/lib\libc.a(lib_a-lseekr.o)
 .bss           0x000000000804cdb8        0x0 c:/intelfpga_lite/19.1/nios2eds/bin/gnu/h-x86_64-mingw32/bin/../lib/gcc/nios2-elf/8.3.1/../../../../../H-x86_64-mingw32/nios2-elf/lib\libc.a(lib_a-mbtowc_r.o)
 .bss           0x000000000804cdb8        0x0 c:/intelfpga_lite/19.1/nios2eds/bin/gnu/h-x86_64-mingw32/bin/../lib/gcc/nios2-elf/8.3.1/../../../../../H-x86_64-mingw32/nios2-elf/lib\libc.a(lib_a-readr.o)
 .bss           0x000000000804cdb8        0x0 c:/intelfpga_lite/19.1/nios2eds/bin/gnu/h-x86_64-mingw32/bin/../lib/gcc/nios2-elf/8.3.1/../../../../../H-x86_64-mingw32/nios2-elf/lib\libc.a(lib_a-refill.o)
 .bss           0x000000000804cdb8        0x0 c:/intelfpga_lite/19.1/nios2eds/bin/gnu/h-x86_64-mingw32/bin/../lib/gcc/nios2-elf/8.3.1/../../../../../H-x86_64-mingw32/nios2-elf/lib\libc.a(lib_a-strcmp.o)
 .bss           0x000000000804cdb8        0x0 c:/intelfpga_lite/19.1/nios2eds/bin/gnu/h-x86_64-mingw32/bin/../lib/gcc/nios2-elf/8.3.1/../../../../../H-x86_64-mingw32/nios2-elf/lib\libc.a(lib_a-wcrtomb.o)
 .bss           0x000000000804cdb8        0x0 c:/intelfpga_lite/19.1/nios2eds/bin/gnu/h-x86_64-mingw32/bin/../lib/gcc/nios2-elf/8.3.1/../../../../../H-x86_64-mingw32/nios2-elf/lib\libc.a(lib_a-wctomb_r.o)
 .bss           0x000000000804cdb8        0x0 c:/intelfpga_lite/19.1/nios2eds/bin/gnu/h-x86_64-mingw32/bin/../lib/gcc/nios2-elf/8.3.1\libgcc.a(_udivdi3.o)
 .bss           0x000000000804cdb8        0x0 c:/intelfpga_lite/19.1/nios2eds/bin/gnu/h-x86_64-mingw32/bin/../lib/gcc/nios2-elf/8.3.1\libgcc.a(_umoddi3.o)
 .bss           0x000000000804cdb8        0x0 c:/intelfpga_lite/19.1/nios2eds/bin/gnu/h-x86_64-mingw32/bin/../lib/gcc/nios2-elf/8.3.1\libgcc.a(lib2-divmod.o)
 .bss           0x000000000804cdb8        0x0 c:/intelfpga_lite/19.1/nios2eds/bin/gnu/h-x86_64-mingw32/bin/../lib/gcc/nios2-elf/8.3.1\libgcc.a(adddf3.o)
 .bss           0x000000000804cdb8        0x0 c:/intelfpga_lite/19.1/nios2eds/bin/gnu/h-x86_64-mingw32/bin/../lib/gcc/nios2-elf/8.3.1\libgcc.a(divdf3.o)
 .bss           0x000000000804cdb8        0x0 c:/intelfpga_lite/19.1/nios2eds/bin/gnu/h-x86_64-mingw32/bin/../lib/gcc/nios2-elf/8.3.1\libgcc.a(eqdf2.o)
 .bss           0x000000000804cdb8        0x0 c:/intelfpga_lite/19.1/nios2eds/bin/gnu/h-x86_64-mingw32/bin/../lib/gcc/nios2-elf/8.3.1\libgcc.a(gedf2.o)
 .bss           0x000000000804cdb8        0x0 c:/intelfpga_lite/19.1/nios2eds/bin/gnu/h-x86_64-mingw32/bin/../lib/gcc/nios2-elf/8.3.1\libgcc.a(ledf2.o)
 .bss           0x000000000804cdb8        0x0 c:/intelfpga_lite/19.1/nios2eds/bin/gnu/h-x86_64-mingw32/bin/../lib/gcc/nios2-elf/8.3.1\libgcc.a(muldf3.o)
 .bss           0x000000000804cdb8        0x0 c:/intelfpga_lite/19.1/nios2eds/bin/gnu/h-x86_64-mingw32/bin/../lib/gcc/nios2-elf/8.3.1\libgcc.a(subdf3.o)
 .bss           0x000000000804cdb8        0x0 c:/intelfpga_lite/19.1/nios2eds/bin/gnu/h-x86_64-mingw32/bin/../lib/gcc/nios2-elf/8.3.1\libgcc.a(unorddf2.o)
 .bss           0x000000000804cdb8        0x0 c:/intelfpga_lite/19.1/nios2eds/bin/gnu/h-x86_64-mingw32/bin/../lib/gcc/nios2-elf/8.3.1\libgcc.a(fixdfsi.o)
 .bss           0x000000000804cdb8        0x0 c:/intelfpga_lite/19.1/nios2eds/bin/gnu/h-x86_64-mingw32/bin/../lib/gcc/nios2-elf/8.3.1\libgcc.a(floatsidf.o)
 .bss           0x000000000804cdb8        0x0 c:/intelfpga_lite/19.1/nios2eds/bin/gnu/h-x86_64-mingw32/bin/../lib/gcc/nios2-elf/8.3.1\libgcc.a(floatunsidf.o)
 .bss           0x000000000804cdb8        0x0 c:/intelfpga_lite/19.1/nios2eds/bin/gnu/h-x86_64-mingw32/bin/../lib/gcc/nios2-elf/8.3.1\libgcc.a(_clz.o)
 .bss           0x000000000804cdb8        0x0 c:/intelfpga_lite/19.1/nios2eds/bin/gnu/h-x86_64-mingw32/bin/../lib/gcc/nios2-elf/8.3.1\libgcc.a(_clzsi2.o)
 .bss           0x000000000804cdb8        0x0 ../hit_pat_bsp\libucosii_bsp.a(alt_flash_dev.o)
 .bss           0x000000000804cdb8        0x0 ../hit_pat_bsp\libucosii_bsp.a(alt_fstat.o)
 .bss           0x000000000804cdb8        0x0 ../hit_pat_bsp\libucosii_bsp.a(alt_isatty.o)
 .bss           0x000000000804cdb8        0x0 ../hit_pat_bsp\libucosii_bsp.a(alt_lseek.o)
 .bss           0x000000000804cdb8        0x0 ../hit_pat_bsp\libucosii_bsp.a(alt_main.o)
 .bss           0x000000000804cdb8        0x0 ../hit_pat_bsp\libucosii_bsp.a(alt_sbrk.o)
 .bss           0x000000000804cdb8        0x0 ../hit_pat_bsp\libucosii_bsp.a(alt_env_lock.o)
 .bss           0x000000000804cdb8        0x0 ../hit_pat_bsp\libucosii_bsp.a(alt_malloc_lock.o)
 .bss           0x000000000804cdb8        0x0 ../hit_pat_bsp\libucosii_bsp.a(os_core.o)
 .bss           0x000000000804cdb8        0x0 ../hit_pat_bsp\libucosii_bsp.a(os_flag.o)
 .bss           0x000000000804cdb8        0x0 ../hit_pat_bsp\libucosii_bsp.a(os_mem.o)
 .bss           0x000000000804cdb8        0x0 ../hit_pat_bsp\libucosii_bsp.a(os_mutex.o)
 .bss           0x000000000804cdb8        0x0 ../hit_pat_bsp\libucosii_bsp.a(os_q.o)
 .bss           0x000000000804cdb8        0x0 ../hit_pat_bsp\libucosii_bsp.a(os_sem.o)
 .bss           0x000000000804cdb8        0x0 ../hit_pat_bsp\libucosii_bsp.a(os_task.o)
 .bss           0x000000000804cdb8        0x0 ../hit_pat_bsp\libucosii_bsp.a(os_time.o)
 .bss           0x000000000804cdb8        0x0 ../hit_pat_bsp\libucosii_bsp.a(alt_sys_init.o)
 .bss           0x000000000804cdb8        0x0 ../hit_pat_bsp\libucosii_bsp.a(altera_avalon_timer_sc.o)
 .bss           0x000000000804cdb8        0x0 ../hit_pat_bsp\libucosii_bsp.a(altera_avalon_tse.o)
 .bss           0x000000000804cdb8        0x0 ../hit_pat_bsp\libucosii_bsp.a(altera_avalon_uart_fd.o)
 .bss           0x000000000804cdb8        0x0 ../hit_pat_bsp\libucosii_bsp.a(altera_avalon_uart_init.o)
 .bss           0x000000000804cdb8        0x0 ../hit_pat_bsp\libucosii_bsp.a(altera_avalon_uart_read.o)
 .bss           0x000000000804cdb8        0x0 ../hit_pat_bsp\libucosii_bsp.a(altera_avalon_uart_write.o)
 .bss           0x000000000804cdb8        0x0 ../hit_pat_bsp\libucosii_bsp.a(altera_generic_quad_spi_controller.o)
 .bss           0x000000000804cdb8        0x0 ../hit_pat_bsp\libucosii_bsp.a(altera_msgdma.o)
 .bss           0x000000000804cdb8        0x0 ../hit_pat_bsp\libucosii_bsp.a(altera_onchip_flash.o)
 .bss           0x000000000804cdb8        0x0 ../hit_pat_bsp\libucosii_bsp.a(ins_tse_mac.o)
 .bss           0x000000000804cdb8        0x0 ../hit_pat_bsp\libucosii_bsp.a(alt_iniche_close.o)
 .bss           0x000000000804cdb8        0x0 ../hit_pat_bsp\libucosii_bsp.a(alt_iniche_dev.o)
 .bss           0x000000000804cdb8        0x0 ../hit_pat_bsp\libucosii_bsp.a(alt_iniche_read.o)
 .bss           0x000000000804cdb8        0x0 ../hit_pat_bsp\libucosii_bsp.a(alt_iniche_write.o)
 .bss           0x000000000804cdb8        0x0 ../hit_pat_bsp\libucosii_bsp.a(et_arp.o)
 .bss           0x000000000804cdb8        0x0 ../hit_pat_bsp\libucosii_bsp.a(iface.o)
 .bss           0x000000000804cdb8        0x0 ../hit_pat_bsp\libucosii_bsp.a(ipnet.o)
 .bss           0x000000000804cdb8       0x3c ../hit_pat_bsp\libucosii_bsp.a(ipstart.o)
 .bss           0x000000000804cdf4        0x0 ../hit_pat_bsp\libucosii_bsp.a(igmp_cmn.o)
 .bss           0x000000000804cdf4        0x0 ../hit_pat_bsp\libucosii_bsp.a(bsdsock.o)
 .bss           0x000000000804cdf4        0x0 ../hit_pat_bsp\libucosii_bsp.a(cksum.o)
 .bss           0x000000000804cdf4       0x18 ../hit_pat_bsp\libucosii_bsp.a(in_utils.o)
 .bss           0x000000000804ce0c        0x0 ../hit_pat_bsp\libucosii_bsp.a(netmain.o)
 .bss           0x000000000804ce0c        0x0 ../hit_pat_bsp\libucosii_bsp.a(tk_crnos.o)
 .bss           0x000000000804ce0c        0x0 ../hit_pat_bsp\libucosii_bsp.a(ping.o)
 .bss           0x000000000804ce0c        0x0 ../hit_pat_bsp\libucosii_bsp.a(pktalloc.o)
 .bss           0x000000000804ce0c        0x0 ../hit_pat_bsp\libucosii_bsp.a(q.o)
 .bss           0x000000000804ce0c        0x0 ../hit_pat_bsp\libucosii_bsp.a(asm_cksum.o)
 .bss           0x000000000804ce0c        0x0 ../hit_pat_bsp\libucosii_bsp.a(brdutils.o)
 .bss           0x000000000804ce0c        0x0 ../hit_pat_bsp\libucosii_bsp.a(osportco.o)
 .bss           0x000000000804ce0c        0x0 ../hit_pat_bsp\libucosii_bsp.a(targnios.o)
 .bss           0x000000000804ce0c        0x0 ../hit_pat_bsp\libucosii_bsp.a(nptcp.o)
 .bss           0x000000000804ce0c        0x0 ../hit_pat_bsp\libucosii_bsp.a(rawsock.o)
 .bss           0x000000000804ce0c        0x0 ../hit_pat_bsp\libucosii_bsp.a(sockcall.o)
 .bss           0x000000000804ce0c        0x0 ../hit_pat_bsp\libucosii_bsp.a(socket.o)
 .bss           0x000000000804ce0c        0x0 ../hit_pat_bsp\libucosii_bsp.a(socket2.o)
 .bss           0x000000000804ce0c        0x0 ../hit_pat_bsp\libucosii_bsp.a(soselect.o)
 .bss           0x000000000804ce0c        0x0 ../hit_pat_bsp\libucosii_bsp.a(tcp_in.o)
 .bss           0x000000000804ce0c        0x0 ../hit_pat_bsp\libucosii_bsp.a(tcp_out.o)
 .bss           0x000000000804ce0c        0x0 ../hit_pat_bsp\libucosii_bsp.a(tcp_subr.o)
 .bss           0x000000000804ce0c        0x0 ../hit_pat_bsp\libucosii_bsp.a(tcp_timr.o)
 .bss           0x000000000804ce0c        0x0 ../hit_pat_bsp\libucosii_bsp.a(tcp_usr.o)
 .bss           0x000000000804ce0c        0x0 ../hit_pat_bsp\libucosii_bsp.a(tcpport.o)
 .bss           0x000000000804ce0c        0x0 ../hit_pat_bsp\libucosii_bsp.a(udpsock.o)
 .bss           0x000000000804ce0c        0x0 ../hit_pat_bsp\libucosii_bsp.a(alt_busy_sleep.o)
 .bss           0x000000000804ce0c        0x0 ../hit_pat_bsp\libucosii_bsp.a(alt_close.o)
 .bss           0x000000000804ce0c        0x0 ../hit_pat_bsp\libucosii_bsp.a(alt_dcache_flush.o)
 .bss           0x000000000804ce0c        0x0 ../hit_pat_bsp\libucosii_bsp.a(alt_dev.o)
 .bss           0x000000000804ce0c        0x0 ../hit_pat_bsp\libucosii_bsp.a(alt_dev_llist_insert.o)
 .bss           0x000000000804ce0c        0x0 ../hit_pat_bsp\libucosii_bsp.a(alt_do_ctors.o)
 .bss           0x000000000804ce0c        0x0 ../hit_pat_bsp\libucosii_bsp.a(alt_do_dtors.o)
 .bss           0x000000000804ce0c        0x0 ../hit_pat_bsp\libucosii_bsp.a(alt_errno.o)
 .bss           0x000000000804ce0c        0x0 ../hit_pat_bsp\libucosii_bsp.a(alt_find_dev.o)
 .bss           0x000000000804ce0c        0x0 ../hit_pat_bsp\libucosii_bsp.a(alt_iic.o)
 .bss           0x000000000804ce0c        0x0 ../hit_pat_bsp\libucosii_bsp.a(alt_iic_isr_register.o)
 .bss           0x000000000804ce0c        0x0 ../hit_pat_bsp\libucosii_bsp.a(alt_io_redirect.o)
 .bss           0x000000000804ce0c        0x0 ../hit_pat_bsp\libucosii_bsp.a(alt_irq_entry.o)
 .bss           0x000000000804ce0c        0x0 ../hit_pat_bsp\libucosii_bsp.a(alt_irq_handler.o)
 .bss           0x000000000804ce0c        0x0 ../hit_pat_bsp\libucosii_bsp.a(alt_irq_vars.o)
 .bss           0x000000000804ce0c        0x0 ../hit_pat_bsp\libucosii_bsp.a(alt_open.o)
 .bss           0x000000000804ce0c        0x0 ../hit_pat_bsp\libucosii_bsp.a(alt_printf.o)
 .bss           0x000000000804ce0c        0x0 ../hit_pat_bsp\libucosii_bsp.a(alt_putchar.o)
 .bss           0x000000000804ce0c        0x0 ../hit_pat_bsp\libucosii_bsp.a(alt_read.o)
 .bss           0x000000000804ce0c        0x0 ../hit_pat_bsp\libucosii_bsp.a(alt_release_fd.o)
 .bss           0x000000000804ce0c        0x0 ../hit_pat_bsp\libucosii_bsp.a(alt_remap_cached.o)
 .bss           0x000000000804ce0c        0x0 ../hit_pat_bsp\libucosii_bsp.a(alt_tick.o)
 .bss           0x000000000804ce0c        0x0 ../hit_pat_bsp\libucosii_bsp.a(alt_uncached_free.o)
 .bss           0x000000000804ce0c        0x0 ../hit_pat_bsp\libucosii_bsp.a(alt_uncached_malloc.o)
 .bss           0x000000000804ce0c        0x0 ../hit_pat_bsp\libucosii_bsp.a(alt_usleep.o)
 .bss           0x000000000804ce0c        0x0 ../hit_pat_bsp\libucosii_bsp.a(alt_write.o)
 .bss           0x000000000804ce0c        0x0 ../hit_pat_bsp\libucosii_bsp.a(altera_nios2_gen2_irq.o)
 .bss           0x000000000804ce0c        0x0 ../hit_pat_bsp\libucosii_bsp.a(os_cpu_a.o)
 .bss           0x000000000804ce0c        0x0 ../hit_pat_bsp\libucosii_bsp.a(os_cpu_c.o)
 .bss           0x000000000804ce0c        0x0 ../hit_pat_bsp\libucosii_bsp.a(allports.o)
 .bss           0x000000000804ce0c        0x0 ../hit_pat_bsp\libucosii_bsp.a(timeouts.o)
 .bss           0x000000000804ce0c        0x0 ../hit_pat_bsp\libucosii_bsp.a(tk_misc.o)
 .bss           0x000000000804ce0c        0x0 ../hit_pat_bsp\libucosii_bsp.a(alt_iniche_fcntl.o)
 .bss           0x000000000804ce0c        0x0 ../hit_pat_bsp\libucosii_bsp.a(icmp.o)
 .bss           0x000000000804ce0c        0x0 ../hit_pat_bsp\libucosii_bsp.a(ip.o)
 .bss           0x000000000804ce0c        0x0 ../hit_pat_bsp\libucosii_bsp.a(ipdemux.o)
 .bss           0x000000000804ce0c        0x0 ../hit_pat_bsp\libucosii_bsp.a(ipmc.o)
 .bss           0x000000000804ce0c        0x0 ../hit_pat_bsp\libucosii_bsp.a(ipport.o)
 .bss           0x000000000804ce0c        0x0 ../hit_pat_bsp\libucosii_bsp.a(ipraw.o)
 .bss           0x000000000804ce0c        0x0 ../hit_pat_bsp\libucosii_bsp.a(iproute.o)
 .bss           0x000000000804ce0c        0x0 ../hit_pat_bsp\libucosii_bsp.a(udp.o)
 .bss           0x000000000804ce0c        0x0 ../hit_pat_bsp\libucosii_bsp.a(igmp.o)
 .bss           0x000000000804ce0c        0x0 ../hit_pat_bsp\libucosii_bsp.a(igmp2.o)
 .bss           0x000000000804ce0c        0x0 ../hit_pat_bsp\libucosii_bsp.a(ipopt.o)
 .bss           0x000000000804ce0c        0x0 ../hit_pat_bsp\libucosii_bsp.a(u_mctest.o)
 .bss           0x000000000804ce0c        0x0 ../hit_pat_bsp\libucosii_bsp.a(memdev.o)
 .bss           0x000000000804ce0c       0x1e ../hit_pat_bsp\libucosii_bsp.a(parseip.o)
 .bss           0x000000000804ce2a        0x0 ../hit_pat_bsp\libucosii_bsp.a(tcpcksum.o)
 .bss           0x000000000804ce2a        0x0 ../hit_pat_bsp\libucosii_bsp.a(udp_open.o)
 .bss           0x000000000804ce2a        0x0 ../hit_pat_bsp\libucosii_bsp.a(in_pcb.o)
 .bss           0x000000000804ce2a        0x0 ../hit_pat_bsp\libucosii_bsp.a(vfsfiles.o)
 .bss           0x000000000804ce2a        0x0 ../hit_pat_bsp\libucosii_bsp.a(vfsport.o)
 .bss           0x000000000804ce2a        0x0 ../hit_pat_bsp\libucosii_bsp.a(alt_exception_entry.o)
 .bss           0x000000000804ce2a        0x0 ../hit_pat_bsp\libucosii_bsp.a(alt_fcntl.o)
 .bss           0x000000000804ce2a        0x0 ../hit_pat_bsp\libucosii_bsp.a(alt_find_file.o)
 .bss           0x000000000804ce2a        0x0 ../hit_pat_bsp\libucosii_bsp.a(alt_get_fd.o)
 .bss           0x000000000804ce2a        0x0 ../hit_pat_bsp\libucosii_bsp.a(alt_instruction_exception_entry.o)
 .bss           0x000000000804ce2a        0x0 c:/intelfpga_lite/19.1/nios2eds/bin/gnu/h-x86_64-mingw32/bin/../lib/gcc/nios2-elf/8.3.1/../../../../../H-x86_64-mingw32/nios2-elf/lib\libc.a(lib_a-atexit.o)
 .bss           0x000000000804ce2a        0x0 c:/intelfpga_lite/19.1/nios2eds/bin/gnu/h-x86_64-mingw32/bin/../lib/gcc/nios2-elf/8.3.1/../../../../../H-x86_64-mingw32/nios2-elf/lib\libc.a(lib_a-atoi.o)
 .bss           0x000000000804ce2a        0x0 c:/intelfpga_lite/19.1/nios2eds/bin/gnu/h-x86_64-mingw32/bin/../lib/gcc/nios2-elf/8.3.1/../../../../../H-x86_64-mingw32/nios2-elf/lib\libc.a(lib_a-exit.o)
 .bss           0x000000000804ce2a        0x0 c:/intelfpga_lite/19.1/nios2eds/bin/gnu/h-x86_64-mingw32/bin/../lib/gcc/nios2-elf/8.3.1/../../../../../H-x86_64-mingw32/nios2-elf/lib\libc.a(lib_a-malign.o)
 .bss           0x000000000804ce2a        0x0 c:/intelfpga_lite/19.1/nios2eds/bin/gnu/h-x86_64-mingw32/bin/../lib/gcc/nios2-elf/8.3.1/../../../../../H-x86_64-mingw32/nios2-elf/lib\libc.a(lib_a-malignr.o)
 .bss           0x000000000804ce2a        0x0 c:/intelfpga_lite/19.1/nios2eds/bin/gnu/h-x86_64-mingw32/bin/../lib/gcc/nios2-elf/8.3.1/../../../../../H-x86_64-mingw32/nios2-elf/lib\libc.a(lib_a-malloc.o)
 .bss           0x000000000804ce2a        0x0 c:/intelfpga_lite/19.1/nios2eds/bin/gnu/h-x86_64-mingw32/bin/../lib/gcc/nios2-elf/8.3.1/../../../../../H-x86_64-mingw32/nios2-elf/lib\libc.a(lib_a-memcmp.o)
 .bss           0x000000000804ce2a        0x0 c:/intelfpga_lite/19.1/nios2eds/bin/gnu/h-x86_64-mingw32/bin/../lib/gcc/nios2-elf/8.3.1/../../../../../H-x86_64-mingw32/nios2-elf/lib\libc.a(lib_a-sprintf.o)
 .bss           0x000000000804ce2a        0x0 c:/intelfpga_lite/19.1/nios2eds/bin/gnu/h-x86_64-mingw32/bin/../lib/gcc/nios2-elf/8.3.1/../../../../../H-x86_64-mingw32/nios2-elf/lib\libc.a(lib_a-strchr.o)
 .bss           0x000000000804ce2a        0x0 c:/intelfpga_lite/19.1/nios2eds/bin/gnu/h-x86_64-mingw32/bin/../lib/gcc/nios2-elf/8.3.1/../../../../../H-x86_64-mingw32/nios2-elf/lib\libc.a(lib_a-strcpy.o)
 .bss           0x000000000804ce2a        0x0 c:/intelfpga_lite/19.1/nios2eds/bin/gnu/h-x86_64-mingw32/bin/../lib/gcc/nios2-elf/8.3.1/../../../../../H-x86_64-mingw32/nios2-elf/lib\libc.a(lib_a-strncmp.o)
 .bss           0x000000000804ce2a        0x0 c:/intelfpga_lite/19.1/nios2eds/bin/gnu/h-x86_64-mingw32/bin/../lib/gcc/nios2-elf/8.3.1/../../../../../H-x86_64-mingw32/nios2-elf/lib\libc.a(lib_a-strtol.o)
 .bss           0x000000000804ce2a        0x0 c:/intelfpga_lite/19.1/nios2eds/bin/gnu/h-x86_64-mingw32/bin/../lib/gcc/nios2-elf/8.3.1/../../../../../H-x86_64-mingw32/nios2-elf/lib\libc.a(lib_a-svfprintf.o)
 .bss           0x000000000804ce2a        0x0 c:/intelfpga_lite/19.1/nios2eds/bin/gnu/h-x86_64-mingw32/bin/../lib/gcc/nios2-elf/8.3.1/../../../../../H-x86_64-mingw32/nios2-elf/lib\libc.a(lib_a-vprintf.o)
 .bss           0x000000000804ce2a        0x0 c:/intelfpga_lite/19.1/nios2eds/bin/gnu/h-x86_64-mingw32/bin/../lib/gcc/nios2-elf/8.3.1/../../../../../H-x86_64-mingw32/nios2-elf/lib\libc.a(lib_a-vsprintf.o)
 .bss           0x000000000804ce2a        0x0 c:/intelfpga_lite/19.1/nios2eds/bin/gnu/h-x86_64-mingw32/bin/../lib/gcc/nios2-elf/8.3.1/../../../../../H-x86_64-mingw32/nios2-elf/lib\libc.a(lib_a-__atexit.o)
 .bss           0x000000000804ce2a        0x0 c:/intelfpga_lite/19.1/nios2eds/bin/gnu/h-x86_64-mingw32/bin/../lib/gcc/nios2-elf/8.3.1/../../../../../H-x86_64-mingw32/nios2-elf/lib\libc.a(lib_a-__call_atexit.o)
 .bss           0x000000000804ce2a        0x0 c:/intelfpga_lite/19.1/nios2eds/bin/gnu/h-x86_64-mingw32/bin/../lib/gcc/nios2-elf/8.3.1/../../../../../H-x86_64-mingw32/nios2-elf/lib\libc.a(lib_a-svfiprintf.o)
 .bss           0x000000000804ce2a        0x0 c:/intelfpga_lite/19.1/nios2eds/bin/gnu/h-x86_64-mingw32/bin/../lib/gcc/nios2-elf/8.3.1/../../../../../H-x86_64-mingw32/nios2-elf/lib\libc.a(lib_a-vfprintfr_1.o)
 .bss           0x000000000804ce2a        0x0 ../hit_pat_bsp\libucosii_bsp.a(alt_exit.o)
 *(COMMON)
 *fill*         0x000000000804ce2a        0x2 
 COMMON         0x000000000804ce2c     0xe000 obj/default/src/main.o
                0x000000000804ce2c                InitialTaskStk
 COMMON         0x000000000805ae2c     0x279c ../hit_pat_bsp\libucosii_bsp.a(os_core.o)
                0x000000000805ae2c                OSFlagTbl
                0x000000000805b19c                OSMemTbl
                0x000000000805bdcc                OSQTbl
                0x000000000805bfac                OSTaskIdleStk
                0x000000000805c7ac                OSEventTbl
                0x000000000805d2ec                OSTCBTbl
                0x000000000805d574                OSTCBPrioTbl
 COMMON         0x000000000805d5c8       0xe0 ../hit_pat_bsp\libucosii_bsp.a(alt_sys_init.o)
                0x000000000805d5c8                eth_tse_if
 COMMON         0x000000000805d6a8       0x30 ../hit_pat_bsp\libucosii_bsp.a(altera_avalon_tse.o)
                0x000000000805d6a8                pmac_groups
                0x000000000805d6b8                pphy_profiles
 COMMON         0x000000000805d6d8      0x2c0 ../hit_pat_bsp\libucosii_bsp.a(ins_tse_mac.o)
                0x000000000805d6d8                tse_iniche_dev_driver_data
                0x000000000805d708                tse
 COMMON         0x000000000805d998      0x100 ../hit_pat_bsp\libucosii_bsp.a(et_arp.o)
                0x000000000805d998                arp_table
 COMMON         0x000000000805da98       0x14 ../hit_pat_bsp\libucosii_bsp.a(iface.o)
                0x000000000805da98                netlist
 COMMON         0x000000000805daac       0x14 ../hit_pat_bsp\libucosii_bsp.a(ipnet.o)
                0x000000000805daac                rcvdq
 COMMON         0x000000000805dac0      0x310 ../hit_pat_bsp\libucosii_bsp.a(ipstart.o)
                0x000000000805dac0                netstatic
                0x000000000805ddc0                nets
 COMMON         0x000000000805ddd0       0x64 ../hit_pat_bsp\libucosii_bsp.a(igmp_cmn.o)
                0x000000000805ddd0                igmpstats
 COMMON         0x000000000805de34       0x24 ../hit_pat_bsp\libucosii_bsp.a(in_utils.o)
                0x000000000805de34                eth_prt_buf
                0x000000000805de46                ipreturn
 COMMON         0x000000000805de58      0x128 ../hit_pat_bsp\libucosii_bsp.a(pktalloc.o)
                0x000000000805de58                lilfreeq
                0x000000000805de6c                memestats
                0x000000000805de7c                pktlog
                0x000000000805df6c                bigfreeq
 COMMON         0x000000000805df80      0x1ec ../hit_pat_bsp\libucosii_bsp.a(osportco.o)
                0x000000000805df80                global_tcb_ext
                0x000000000805e07c                global_TCPwakeup_set
 COMMON         0x000000000805e16c       0x58 ../hit_pat_bsp\libucosii_bsp.a(targnios.o)
                0x000000000805e16c                resid_semaphore
                0x000000000805e1ac                app_semaphore
 COMMON         0x000000000805e1c4       0x78 ../hit_pat_bsp\libucosii_bsp.a(nptcp.o)
                0x000000000805e1c4                soq
                0x000000000805e1d8                tcpmib
                0x000000000805e214                mbufq
                0x000000000805e228                mfreeq
 COMMON         0x000000000805e23c       0x28 ../hit_pat_bsp\libucosii_bsp.a(tcp_in.o)
                0x000000000805e23c                tcp_saveti
 COMMON         0x000000000805e264      0x10c ../hit_pat_bsp\libucosii_bsp.a(tcp_subr.o)
                0x000000000805e264                tcb
                0x000000000805e290                tcpstat
 COMMON         0x000000000805e370      0x100 ../hit_pat_bsp\libucosii_bsp.a(alt_irq_handler.o)
                0x000000000805e370                alt_irq
 COMMON         0x000000000805e470       0x64 ../hit_pat_bsp\libucosii_bsp.a(timeouts.o)
                0x000000000805e470                intimers
 COMMON         0x000000000805e4d4       0x68 ../hit_pat_bsp\libucosii_bsp.a(icmp.o)
                0x000000000805e4d4                icmp_mib
 COMMON         0x000000000805e53c       0x50 ../hit_pat_bsp\libucosii_bsp.a(ip.o)
                0x000000000805e53c                ip_mib
 COMMON         0x000000000805e58c       0x10 ../hit_pat_bsp\libucosii_bsp.a(udp.o)
                0x000000000805e58c                udp_mib
                0x000000000805e59c                . = ALIGN (0x4)
                0x000000000805e59c                __bss_end = ABSOLUTE (.)

.ddr3_ram       0x000000000805e59c        0x0
                [!provide]                        PROVIDE (_alt_partition_ddr3_ram_start = ABSOLUTE (.))
 *(.ddr3_ram .ddr3_ram. ddr3_ram.*)
                0x000000000805e59c                . = ALIGN (0x4)
                [!provide]                        PROVIDE (_alt_partition_ddr3_ram_end = ABSOLUTE (.))
                0x000000000805e59c                _end = ABSOLUTE (.)
                0x000000000805e59c                end = ABSOLUTE (.)
                0x000000000805e59c                __alt_stack_base = ABSOLUTE (.)
                [!provide]                        PROVIDE (_alt_partition_ddr3_ram_load_addr = LOADADDR (.ddr3_ram))

.ext_flash_avl_mem
                0x0000000014000020        0x0
                [!provide]                        PROVIDE (_alt_partition_ext_flash_avl_mem_start = ABSOLUTE (.))
 *(.ext_flash_avl_mem .ext_flash_avl_mem. ext_flash_avl_mem.*)
                0x0000000014000020                . = ALIGN (0x4)
                [!provide]                        PROVIDE (_alt_partition_ext_flash_avl_mem_end = ABSOLUTE (.))
                [!provide]                        PROVIDE (_alt_partition_ext_flash_avl_mem_load_addr = LOADADDR (.ext_flash_avl_mem))

.onchip_flash_data
                0x0000000018200000        0x0
                [!provide]                        PROVIDE (_alt_partition_onchip_flash_data_start = ABSOLUTE (.))
 *(.onchip_flash_data .onchip_flash_data. onchip_flash_data.*)
                0x0000000018200000                . = ALIGN (0x4)
                [!provide]                        PROVIDE (_alt_partition_onchip_flash_data_end = ABSOLUTE (.))
                [!provide]                        PROVIDE (_alt_partition_onchip_flash_data_load_addr = LOADADDR (.onchip_flash_data))

.descriptor_memory
                0x0000000018400000        0x0
                [!provide]                        PROVIDE (_alt_partition_descriptor_memory_start = ABSOLUTE (.))
 *(.descriptor_memory .descriptor_memory. descriptor_memory.*)
                0x0000000018400000                . = ALIGN (0x4)
                [!provide]                        PROVIDE (_alt_partition_descriptor_memory_end = ABSOLUTE (.))
                [!provide]                        PROVIDE (_alt_partition_descriptor_memory_load_addr = LOADADDR (.descriptor_memory))

.calibration_ram
                0x0000000018403400        0x0
                [!provide]                        PROVIDE (_alt_partition_calibration_ram_start = ABSOLUTE (.))
 *(.calibration_ram .calibration_ram. calibration_ram.*)
                0x0000000018403400                . = ALIGN (0x4)
                [!provide]                        PROVIDE (_alt_partition_calibration_ram_end = ABSOLUTE (.))
                [!provide]                        PROVIDE (_alt_partition_calibration_ram_load_addr = LOADADDR (.calibration_ram))

.stab
 *(.stab)

.stabstr
 *(.stabstr)

.stab.excl
 *(.stab.excl)

.stab.exclstr
 *(.stab.exclstr)

.stab.index
 *(.stab.index)

.stab.indexstr
 *(.stab.indexstr)

.comment        0x0000000000000000       0x2c
 *(.comment)
 .comment       0x0000000000000000       0x2c obj/default/src/control.o
                                         0x2d (size before relaxing)
 .comment       0x000000000000002c       0x2d obj/default/src/main.o
 .comment       0x000000000000002c       0x2d obj/default/src/network_utilities.o
 .comment       0x000000000000002c       0x2d obj/default/src/sensor.o
 .comment       0x000000000000002c       0x2d obj/default/src/socket_server.o
 .comment       0x000000000000002c       0x2d obj/default/src/tse_my_system.o
 .comment       0x000000000000002c       0x2d obj/default/src/udpgen.o
 .comment       0x000000000000002c       0x2d obj/default/src/utils.o
 .comment       0x000000000000002c       0x2d c:/intelfpga_lite/19.1/nios2eds/bin/gnu/h-x86_64-mingw32/bin/../lib/gcc/nios2-elf/8.3.1/../../../../../H-x86_64-mingw32/nios2-elf/lib\libc.a(lib_a-ctype_.o)
 .comment       0x000000000000002c       0x2d c:/intelfpga_lite/19.1/nios2eds/bin/gnu/h-x86_64-mingw32/bin/../lib/gcc/nios2-elf/8.3.1/../../../../../H-x86_64-mingw32/nios2-elf/lib\libc.a(lib_a-getchar.o)
 .comment       0x000000000000002c       0x2d c:/intelfpga_lite/19.1/nios2eds/bin/gnu/h-x86_64-mingw32/bin/../lib/gcc/nios2-elf/8.3.1/../../../../../H-x86_64-mingw32/nios2-elf/lib\libc.a(lib_a-impure.o)
 .comment       0x000000000000002c       0x2d c:/intelfpga_lite/19.1/nios2eds/bin/gnu/h-x86_64-mingw32/bin/../lib/gcc/nios2-elf/8.3.1/../../../../../H-x86_64-mingw32/nios2-elf/lib\libc.a(lib_a-printf.o)
 .comment       0x000000000000002c       0x2d c:/intelfpga_lite/19.1/nios2eds/bin/gnu/h-x86_64-mingw32/bin/../lib/gcc/nios2-elf/8.3.1/../../../../../H-x86_64-mingw32/nios2-elf/lib\libc.a(lib_a-putchar.o)
 .comment       0x000000000000002c       0x2d c:/intelfpga_lite/19.1/nios2eds/bin/gnu/h-x86_64-mingw32/bin/../lib/gcc/nios2-elf/8.3.1/../../../../../H-x86_64-mingw32/nios2-elf/lib\libc.a(lib_a-puts.o)
 .comment       0x000000000000002c       0x2d c:/intelfpga_lite/19.1/nios2eds/bin/gnu/h-x86_64-mingw32/bin/../lib/gcc/nios2-elf/8.3.1/../../../../../H-x86_64-mingw32/nios2-elf/lib\libc.a(lib_a-strlen.o)
 .comment       0x000000000000002c       0x2d c:/intelfpga_lite/19.1/nios2eds/bin/gnu/h-x86_64-mingw32/bin/../lib/gcc/nios2-elf/8.3.1/../../../../../H-x86_64-mingw32/nios2-elf/lib\libc.a(lib_a-vfprintf.o)
 .comment       0x000000000000002c       0x2d c:/intelfpga_lite/19.1/nios2eds/bin/gnu/h-x86_64-mingw32/bin/../lib/gcc/nios2-elf/8.3.1/../../../../../H-x86_64-mingw32/nios2-elf/lib\libc.a(lib_a-wsetup.o)
 .comment       0x000000000000002c       0x2d c:/intelfpga_lite/19.1/nios2eds/bin/gnu/h-x86_64-mingw32/bin/../lib/gcc/nios2-elf/8.3.1/../../../../../H-x86_64-mingw32/nios2-elf/lib\libc.a(lib_a-dtoa.o)
 .comment       0x000000000000002c       0x2d c:/intelfpga_lite/19.1/nios2eds/bin/gnu/h-x86_64-mingw32/bin/../lib/gcc/nios2-elf/8.3.1/../../../../../H-x86_64-mingw32/nios2-elf/lib\libc.a(lib_a-fflush.o)
 .comment       0x000000000000002c       0x2d c:/intelfpga_lite/19.1/nios2eds/bin/gnu/h-x86_64-mingw32/bin/../lib/gcc/nios2-elf/8.3.1/../../../../../H-x86_64-mingw32/nios2-elf/lib\libc.a(lib_a-findfp.o)
 .comment       0x000000000000002c       0x2d c:/intelfpga_lite/19.1/nios2eds/bin/gnu/h-x86_64-mingw32/bin/../lib/gcc/nios2-elf/8.3.1/../../../../../H-x86_64-mingw32/nios2-elf/lib\libc.a(lib_a-freer.o)
 .comment       0x000000000000002c       0x2d c:/intelfpga_lite/19.1/nios2eds/bin/gnu/h-x86_64-mingw32/bin/../lib/gcc/nios2-elf/8.3.1/../../../../../H-x86_64-mingw32/nios2-elf/lib\libc.a(lib_a-fvwrite.o)
 .comment       0x000000000000002c       0x2d c:/intelfpga_lite/19.1/nios2eds/bin/gnu/h-x86_64-mingw32/bin/../lib/gcc/nios2-elf/8.3.1/../../../../../H-x86_64-mingw32/nios2-elf/lib\libc.a(lib_a-fwalk.o)
 .comment       0x000000000000002c       0x2d c:/intelfpga_lite/19.1/nios2eds/bin/gnu/h-x86_64-mingw32/bin/../lib/gcc/nios2-elf/8.3.1/../../../../../H-x86_64-mingw32/nios2-elf/lib\libc.a(lib_a-getc.o)
 .comment       0x000000000000002c       0x2d c:/intelfpga_lite/19.1/nios2eds/bin/gnu/h-x86_64-mingw32/bin/../lib/gcc/nios2-elf/8.3.1/../../../../../H-x86_64-mingw32/nios2-elf/lib\libc.a(lib_a-localeconv.o)
 .comment       0x000000000000002c       0x2d c:/intelfpga_lite/19.1/nios2eds/bin/gnu/h-x86_64-mingw32/bin/../lib/gcc/nios2-elf/8.3.1/../../../../../H-x86_64-mingw32/nios2-elf/lib\libc.a(lib_a-makebuf.o)
 .comment       0x000000000000002c       0x2d c:/intelfpga_lite/19.1/nios2eds/bin/gnu/h-x86_64-mingw32/bin/../lib/gcc/nios2-elf/8.3.1/../../../../../H-x86_64-mingw32/nios2-elf/lib\libc.a(lib_a-mallocr.o)
 .comment       0x000000000000002c       0x2d c:/intelfpga_lite/19.1/nios2eds/bin/gnu/h-x86_64-mingw32/bin/../lib/gcc/nios2-elf/8.3.1/../../../../../H-x86_64-mingw32/nios2-elf/lib\libc.a(lib_a-memchr.o)
 .comment       0x000000000000002c       0x2d c:/intelfpga_lite/19.1/nios2eds/bin/gnu/h-x86_64-mingw32/bin/../lib/gcc/nios2-elf/8.3.1/../../../../../H-x86_64-mingw32/nios2-elf/lib\libc.a(lib_a-memcpy.o)
 .comment       0x000000000000002c       0x2d c:/intelfpga_lite/19.1/nios2eds/bin/gnu/h-x86_64-mingw32/bin/../lib/gcc/nios2-elf/8.3.1/../../../../../H-x86_64-mingw32/nios2-elf/lib\libc.a(lib_a-memmove.o)
 .comment       0x000000000000002c       0x2d c:/intelfpga_lite/19.1/nios2eds/bin/gnu/h-x86_64-mingw32/bin/../lib/gcc/nios2-elf/8.3.1/../../../../../H-x86_64-mingw32/nios2-elf/lib\libc.a(lib_a-memset.o)
 .comment       0x000000000000002c       0x2d c:/intelfpga_lite/19.1/nios2eds/bin/gnu/h-x86_64-mingw32/bin/../lib/gcc/nios2-elf/8.3.1/../../../../../H-x86_64-mingw32/nios2-elf/lib\libc.a(lib_a-mprec.o)
 .comment       0x000000000000002c       0x2d c:/intelfpga_lite/19.1/nios2eds/bin/gnu/h-x86_64-mingw32/bin/../lib/gcc/nios2-elf/8.3.1/../../../../../H-x86_64-mingw32/nios2-elf/lib\libc.a(lib_a-putc.o)
 .comment       0x000000000000002c       0x2d c:/intelfpga_lite/19.1/nios2eds/bin/gnu/h-x86_64-mingw32/bin/../lib/gcc/nios2-elf/8.3.1/../../../../../H-x86_64-mingw32/nios2-elf/lib\libc.a(lib_a-reallocr.o)
 .comment       0x000000000000002c       0x2d c:/intelfpga_lite/19.1/nios2eds/bin/gnu/h-x86_64-mingw32/bin/../lib/gcc/nios2-elf/8.3.1/../../../../../H-x86_64-mingw32/nios2-elf/lib\libc.a(lib_a-rget.o)
 .comment       0x000000000000002c       0x2d c:/intelfpga_lite/19.1/nios2eds/bin/gnu/h-x86_64-mingw32/bin/../lib/gcc/nios2-elf/8.3.1/../../../../../H-x86_64-mingw32/nios2-elf/lib\libc.a(lib_a-sbrkr.o)
 .comment       0x000000000000002c       0x2d c:/intelfpga_lite/19.1/nios2eds/bin/gnu/h-x86_64-mingw32/bin/../lib/gcc/nios2-elf/8.3.1/../../../../../H-x86_64-mingw32/nios2-elf/lib\libc.a(lib_a-stdio.o)
 .comment       0x000000000000002c       0x2d c:/intelfpga_lite/19.1/nios2eds/bin/gnu/h-x86_64-mingw32/bin/../lib/gcc/nios2-elf/8.3.1/../../../../../H-x86_64-mingw32/nios2-elf/lib\libc.a(lib_a-vfiprintf.o)
 .comment       0x000000000000002c       0x2d c:/intelfpga_lite/19.1/nios2eds/bin/gnu/h-x86_64-mingw32/bin/../lib/gcc/nios2-elf/8.3.1/../../../../../H-x86_64-mingw32/nios2-elf/lib\libc.a(lib_a-wbuf.o)
 .comment       0x000000000000002c       0x2d c:/intelfpga_lite/19.1/nios2eds/bin/gnu/h-x86_64-mingw32/bin/../lib/gcc/nios2-elf/8.3.1/../../../../../H-x86_64-mingw32/nios2-elf/lib\libc.a(lib_a-writer.o)
 .comment       0x000000000000002c       0x2d c:/intelfpga_lite/19.1/nios2eds/bin/gnu/h-x86_64-mingw32/bin/../lib/gcc/nios2-elf/8.3.1/../../../../../H-x86_64-mingw32/nios2-elf/lib\libc.a(closer.o)
 .comment       0x000000000000002c       0x2d c:/intelfpga_lite/19.1/nios2eds/bin/gnu/h-x86_64-mingw32/bin/../lib/gcc/nios2-elf/8.3.1/../../../../../H-x86_64-mingw32/nios2-elf/lib\libc.a(lib_a-callocr.o)
 .comment       0x000000000000002c       0x2d c:/intelfpga_lite/19.1/nios2eds/bin/gnu/h-x86_64-mingw32/bin/../lib/gcc/nios2-elf/8.3.1/../../../../../H-x86_64-mingw32/nios2-elf/lib\libc.a(lib_a-fclose.o)
 .comment       0x000000000000002c       0x2d c:/intelfpga_lite/19.1/nios2eds/bin/gnu/h-x86_64-mingw32/bin/../lib/gcc/nios2-elf/8.3.1/../../../../../H-x86_64-mingw32/nios2-elf/lib\libc.a(lib_a-fputwc.o)
 .comment       0x000000000000002c       0x2d c:/intelfpga_lite/19.1/nios2eds/bin/gnu/h-x86_64-mingw32/bin/../lib/gcc/nios2-elf/8.3.1/../../../../../H-x86_64-mingw32/nios2-elf/lib\libc.a(lib_a-fstatr.o)
 .comment       0x000000000000002c       0x2d c:/intelfpga_lite/19.1/nios2eds/bin/gnu/h-x86_64-mingw32/bin/../lib/gcc/nios2-elf/8.3.1/../../../../../H-x86_64-mingw32/nios2-elf/lib\libc.a(lib_a-int_errno.o)
 .comment       0x000000000000002c       0x2d c:/intelfpga_lite/19.1/nios2eds/bin/gnu/h-x86_64-mingw32/bin/../lib/gcc/nios2-elf/8.3.1/../../../../../H-x86_64-mingw32/nios2-elf/lib\libc.a(lib_a-isattyr.o)
 .comment       0x000000000000002c       0x2d c:/intelfpga_lite/19.1/nios2eds/bin/gnu/h-x86_64-mingw32/bin/../lib/gcc/nios2-elf/8.3.1/../../../../../H-x86_64-mingw32/nios2-elf/lib\libc.a(lib_a-locale.o)
 .comment       0x000000000000002c       0x2d c:/intelfpga_lite/19.1/nios2eds/bin/gnu/h-x86_64-mingw32/bin/../lib/gcc/nios2-elf/8.3.1/../../../../../H-x86_64-mingw32/nios2-elf/lib\libc.a(lib_a-lseekr.o)
 .comment       0x000000000000002c       0x2d c:/intelfpga_lite/19.1/nios2eds/bin/gnu/h-x86_64-mingw32/bin/../lib/gcc/nios2-elf/8.3.1/../../../../../H-x86_64-mingw32/nios2-elf/lib\libc.a(lib_a-mbtowc_r.o)
 .comment       0x000000000000002c       0x2d c:/intelfpga_lite/19.1/nios2eds/bin/gnu/h-x86_64-mingw32/bin/../lib/gcc/nios2-elf/8.3.1/../../../../../H-x86_64-mingw32/nios2-elf/lib\libc.a(lib_a-readr.o)
 .comment       0x000000000000002c       0x2d c:/intelfpga_lite/19.1/nios2eds/bin/gnu/h-x86_64-mingw32/bin/../lib/gcc/nios2-elf/8.3.1/../../../../../H-x86_64-mingw32/nios2-elf/lib\libc.a(lib_a-refill.o)
 .comment       0x000000000000002c       0x2d c:/intelfpga_lite/19.1/nios2eds/bin/gnu/h-x86_64-mingw32/bin/../lib/gcc/nios2-elf/8.3.1/../../../../../H-x86_64-mingw32/nios2-elf/lib\libc.a(lib_a-strcmp.o)
 .comment       0x000000000000002c       0x2d c:/intelfpga_lite/19.1/nios2eds/bin/gnu/h-x86_64-mingw32/bin/../lib/gcc/nios2-elf/8.3.1/../../../../../H-x86_64-mingw32/nios2-elf/lib\libc.a(lib_a-wcrtomb.o)
 .comment       0x000000000000002c       0x2d c:/intelfpga_lite/19.1/nios2eds/bin/gnu/h-x86_64-mingw32/bin/../lib/gcc/nios2-elf/8.3.1/../../../../../H-x86_64-mingw32/nios2-elf/lib\libc.a(lib_a-wctomb_r.o)
 .comment       0x000000000000002c       0x2d c:/intelfpga_lite/19.1/nios2eds/bin/gnu/h-x86_64-mingw32/bin/../lib/gcc/nios2-elf/8.3.1\libgcc.a(_udivdi3.o)
 .comment       0x000000000000002c       0x2d c:/intelfpga_lite/19.1/nios2eds/bin/gnu/h-x86_64-mingw32/bin/../lib/gcc/nios2-elf/8.3.1\libgcc.a(_umoddi3.o)
 .comment       0x000000000000002c       0x2d c:/intelfpga_lite/19.1/nios2eds/bin/gnu/h-x86_64-mingw32/bin/../lib/gcc/nios2-elf/8.3.1\libgcc.a(lib2-divmod.o)
 .comment       0x000000000000002c       0x2d c:/intelfpga_lite/19.1/nios2eds/bin/gnu/h-x86_64-mingw32/bin/../lib/gcc/nios2-elf/8.3.1\libgcc.a(adddf3.o)
 .comment       0x000000000000002c       0x2d c:/intelfpga_lite/19.1/nios2eds/bin/gnu/h-x86_64-mingw32/bin/../lib/gcc/nios2-elf/8.3.1\libgcc.a(divdf3.o)
 .comment       0x000000000000002c       0x2d c:/intelfpga_lite/19.1/nios2eds/bin/gnu/h-x86_64-mingw32/bin/../lib/gcc/nios2-elf/8.3.1\libgcc.a(eqdf2.o)
 .comment       0x000000000000002c       0x2d c:/intelfpga_lite/19.1/nios2eds/bin/gnu/h-x86_64-mingw32/bin/../lib/gcc/nios2-elf/8.3.1\libgcc.a(gedf2.o)
 .comment       0x000000000000002c       0x2d c:/intelfpga_lite/19.1/nios2eds/bin/gnu/h-x86_64-mingw32/bin/../lib/gcc/nios2-elf/8.3.1\libgcc.a(ledf2.o)
 .comment       0x000000000000002c       0x2d c:/intelfpga_lite/19.1/nios2eds/bin/gnu/h-x86_64-mingw32/bin/../lib/gcc/nios2-elf/8.3.1\libgcc.a(muldf3.o)
 .comment       0x000000000000002c       0x2d c:/intelfpga_lite/19.1/nios2eds/bin/gnu/h-x86_64-mingw32/bin/../lib/gcc/nios2-elf/8.3.1\libgcc.a(subdf3.o)
 .comment       0x000000000000002c       0x2d c:/intelfpga_lite/19.1/nios2eds/bin/gnu/h-x86_64-mingw32/bin/../lib/gcc/nios2-elf/8.3.1\libgcc.a(unorddf2.o)
 .comment       0x000000000000002c       0x2d c:/intelfpga_lite/19.1/nios2eds/bin/gnu/h-x86_64-mingw32/bin/../lib/gcc/nios2-elf/8.3.1\libgcc.a(fixdfsi.o)
 .comment       0x000000000000002c       0x2d c:/intelfpga_lite/19.1/nios2eds/bin/gnu/h-x86_64-mingw32/bin/../lib/gcc/nios2-elf/8.3.1\libgcc.a(floatsidf.o)
 .comment       0x000000000000002c       0x2d c:/intelfpga_lite/19.1/nios2eds/bin/gnu/h-x86_64-mingw32/bin/../lib/gcc/nios2-elf/8.3.1\libgcc.a(floatunsidf.o)
 .comment       0x000000000000002c       0x2d c:/intelfpga_lite/19.1/nios2eds/bin/gnu/h-x86_64-mingw32/bin/../lib/gcc/nios2-elf/8.3.1\libgcc.a(_clz.o)
 .comment       0x000000000000002c       0x2d c:/intelfpga_lite/19.1/nios2eds/bin/gnu/h-x86_64-mingw32/bin/../lib/gcc/nios2-elf/8.3.1\libgcc.a(_clzsi2.o)
 .comment       0x000000000000002c       0x2d ../hit_pat_bsp\libucosii_bsp.a(alt_flash_dev.o)
 .comment       0x000000000000002c       0x2d ../hit_pat_bsp\libucosii_bsp.a(alt_fstat.o)
 .comment       0x000000000000002c       0x2d ../hit_pat_bsp\libucosii_bsp.a(alt_isatty.o)
 .comment       0x000000000000002c       0x2d ../hit_pat_bsp\libucosii_bsp.a(alt_lseek.o)
 .comment       0x000000000000002c       0x2d ../hit_pat_bsp\libucosii_bsp.a(alt_main.o)
 .comment       0x000000000000002c       0x2d ../hit_pat_bsp\libucosii_bsp.a(alt_sbrk.o)
 .comment       0x000000000000002c       0x2d ../hit_pat_bsp\libucosii_bsp.a(alt_env_lock.o)
 .comment       0x000000000000002c       0x2d ../hit_pat_bsp\libucosii_bsp.a(alt_malloc_lock.o)
 .comment       0x000000000000002c       0x2d ../hit_pat_bsp\libucosii_bsp.a(os_core.o)
 .comment       0x000000000000002c       0x2d ../hit_pat_bsp\libucosii_bsp.a(os_flag.o)
 .comment       0x000000000000002c       0x2d ../hit_pat_bsp\libucosii_bsp.a(os_mem.o)
 .comment       0x000000000000002c       0x2d ../hit_pat_bsp\libucosii_bsp.a(os_mutex.o)
 .comment       0x000000000000002c       0x2d ../hit_pat_bsp\libucosii_bsp.a(os_q.o)
 .comment       0x000000000000002c       0x2d ../hit_pat_bsp\libucosii_bsp.a(os_sem.o)
 .comment       0x000000000000002c       0x2d ../hit_pat_bsp\libucosii_bsp.a(os_task.o)
 .comment       0x000000000000002c       0x2d ../hit_pat_bsp\libucosii_bsp.a(os_time.o)
 .comment       0x000000000000002c       0x2d ../hit_pat_bsp\libucosii_bsp.a(alt_sys_init.o)
 .comment       0x000000000000002c       0x2d ../hit_pat_bsp\libucosii_bsp.a(altera_avalon_timer_sc.o)
 .comment       0x000000000000002c       0x2d ../hit_pat_bsp\libucosii_bsp.a(altera_avalon_tse.o)
 .comment       0x000000000000002c       0x2d ../hit_pat_bsp\libucosii_bsp.a(altera_avalon_uart_fd.o)
 .comment       0x000000000000002c       0x2d ../hit_pat_bsp\libucosii_bsp.a(altera_avalon_uart_init.o)
 .comment       0x000000000000002c       0x2d ../hit_pat_bsp\libucosii_bsp.a(altera_avalon_uart_read.o)
 .comment       0x000000000000002c       0x2d ../hit_pat_bsp\libucosii_bsp.a(altera_avalon_uart_write.o)
 .comment       0x000000000000002c       0x2d ../hit_pat_bsp\libucosii_bsp.a(altera_generic_quad_spi_controller.o)
 .comment       0x000000000000002c       0x2d ../hit_pat_bsp\libucosii_bsp.a(altera_msgdma.o)
 .comment       0x000000000000002c       0x2d ../hit_pat_bsp\libucosii_bsp.a(altera_onchip_flash.o)
 .comment       0x000000000000002c       0x2d ../hit_pat_bsp\libucosii_bsp.a(ins_tse_mac.o)
 .comment       0x000000000000002c       0x2d ../hit_pat_bsp\libucosii_bsp.a(alt_iniche_close.o)
 .comment       0x000000000000002c       0x2d ../hit_pat_bsp\libucosii_bsp.a(alt_iniche_dev.o)
 .comment       0x000000000000002c       0x2d ../hit_pat_bsp\libucosii_bsp.a(alt_iniche_read.o)
 .comment       0x000000000000002c       0x2d ../hit_pat_bsp\libucosii_bsp.a(alt_iniche_write.o)
 .comment       0x000000000000002c       0x2d ../hit_pat_bsp\libucosii_bsp.a(et_arp.o)
 .comment       0x000000000000002c       0x2d ../hit_pat_bsp\libucosii_bsp.a(iface.o)
 .comment       0x000000000000002c       0x2d ../hit_pat_bsp\libucosii_bsp.a(ipnet.o)
 .comment       0x000000000000002c       0x2d ../hit_pat_bsp\libucosii_bsp.a(ipstart.o)
 .comment       0x000000000000002c       0x2d ../hit_pat_bsp\libucosii_bsp.a(igmp_cmn.o)
 .comment       0x000000000000002c       0x2d ../hit_pat_bsp\libucosii_bsp.a(bsdsock.o)
 .comment       0x000000000000002c       0x2d ../hit_pat_bsp\libucosii_bsp.a(cksum.o)
 .comment       0x000000000000002c       0x2d ../hit_pat_bsp\libucosii_bsp.a(in_utils.o)
 .comment       0x000000000000002c       0x2d ../hit_pat_bsp\libucosii_bsp.a(netmain.o)
 .comment       0x000000000000002c       0x2d ../hit_pat_bsp\libucosii_bsp.a(tk_crnos.o)
 .comment       0x000000000000002c       0x2d ../hit_pat_bsp\libucosii_bsp.a(ping.o)
 .comment       0x000000000000002c       0x2d ../hit_pat_bsp\libucosii_bsp.a(pktalloc.o)
 .comment       0x000000000000002c       0x2d ../hit_pat_bsp\libucosii_bsp.a(q.o)
 .comment       0x000000000000002c       0x2d ../hit_pat_bsp\libucosii_bsp.a(brdutils.o)
 .comment       0x000000000000002c       0x2d ../hit_pat_bsp\libucosii_bsp.a(osportco.o)
 .comment       0x000000000000002c       0x2d ../hit_pat_bsp\libucosii_bsp.a(targnios.o)
 .comment       0x000000000000002c       0x2d ../hit_pat_bsp\libucosii_bsp.a(nptcp.o)
 .comment       0x000000000000002c       0x2d ../hit_pat_bsp\libucosii_bsp.a(rawsock.o)
 .comment       0x000000000000002c       0x2d ../hit_pat_bsp\libucosii_bsp.a(sockcall.o)
 .comment       0x000000000000002c       0x2d ../hit_pat_bsp\libucosii_bsp.a(socket.o)
 .comment       0x000000000000002c       0x2d ../hit_pat_bsp\libucosii_bsp.a(socket2.o)
 .comment       0x000000000000002c       0x2d ../hit_pat_bsp\libucosii_bsp.a(soselect.o)
 .comment       0x000000000000002c       0x2d ../hit_pat_bsp\libucosii_bsp.a(tcp_in.o)
 .comment       0x000000000000002c       0x2d ../hit_pat_bsp\libucosii_bsp.a(tcp_out.o)
 .comment       0x000000000000002c       0x2d ../hit_pat_bsp\libucosii_bsp.a(tcp_subr.o)
 .comment       0x000000000000002c       0x2d ../hit_pat_bsp\libucosii_bsp.a(tcp_timr.o)
 .comment       0x000000000000002c       0x2d ../hit_pat_bsp\libucosii_bsp.a(tcp_usr.o)
 .comment       0x000000000000002c       0x2d ../hit_pat_bsp\libucosii_bsp.a(tcpport.o)
 .comment       0x000000000000002c       0x2d ../hit_pat_bsp\libucosii_bsp.a(udpsock.o)
 .comment       0x000000000000002c       0x2d ../hit_pat_bsp\libucosii_bsp.a(alt_busy_sleep.o)
 .comment       0x000000000000002c       0x2d ../hit_pat_bsp\libucosii_bsp.a(alt_close.o)
 .comment       0x000000000000002c       0x2d ../hit_pat_bsp\libucosii_bsp.a(alt_dcache_flush.o)
 .comment       0x000000000000002c       0x2d ../hit_pat_bsp\libucosii_bsp.a(alt_dev.o)
 .comment       0x000000000000002c       0x2d ../hit_pat_bsp\libucosii_bsp.a(alt_dev_llist_insert.o)
 .comment       0x000000000000002c       0x2d ../hit_pat_bsp\libucosii_bsp.a(alt_do_ctors.o)
 .comment       0x000000000000002c       0x2d ../hit_pat_bsp\libucosii_bsp.a(alt_do_dtors.o)
 .comment       0x000000000000002c       0x2d ../hit_pat_bsp\libucosii_bsp.a(alt_errno.o)
 .comment       0x000000000000002c       0x2d ../hit_pat_bsp\libucosii_bsp.a(alt_find_dev.o)
 .comment       0x000000000000002c       0x2d ../hit_pat_bsp\libucosii_bsp.a(alt_iic.o)
 .comment       0x000000000000002c       0x2d ../hit_pat_bsp\libucosii_bsp.a(alt_iic_isr_register.o)
 .comment       0x000000000000002c       0x2d ../hit_pat_bsp\libucosii_bsp.a(alt_io_redirect.o)
 .comment       0x000000000000002c       0x2d ../hit_pat_bsp\libucosii_bsp.a(alt_irq_handler.o)
 .comment       0x000000000000002c       0x2d ../hit_pat_bsp\libucosii_bsp.a(alt_irq_vars.o)
 .comment       0x000000000000002c       0x2d ../hit_pat_bsp\libucosii_bsp.a(alt_open.o)
 .comment       0x000000000000002c       0x2d ../hit_pat_bsp\libucosii_bsp.a(alt_printf.o)
 .comment       0x000000000000002c       0x2d ../hit_pat_bsp\libucosii_bsp.a(alt_putchar.o)
 .comment       0x000000000000002c       0x2d ../hit_pat_bsp\libucosii_bsp.a(alt_read.o)
 .comment       0x000000000000002c       0x2d ../hit_pat_bsp\libucosii_bsp.a(alt_release_fd.o)
 .comment       0x000000000000002c       0x2d ../hit_pat_bsp\libucosii_bsp.a(alt_remap_cached.o)
 .comment       0x000000000000002c       0x2d ../hit_pat_bsp\libucosii_bsp.a(alt_tick.o)
 .comment       0x000000000000002c       0x2d ../hit_pat_bsp\libucosii_bsp.a(alt_uncached_free.o)
 .comment       0x000000000000002c       0x2d ../hit_pat_bsp\libucosii_bsp.a(alt_uncached_malloc.o)
 .comment       0x000000000000002c       0x2d ../hit_pat_bsp\libucosii_bsp.a(alt_usleep.o)
 .comment       0x000000000000002c       0x2d ../hit_pat_bsp\libucosii_bsp.a(alt_write.o)
 .comment       0x000000000000002c       0x2d ../hit_pat_bsp\libucosii_bsp.a(altera_nios2_gen2_irq.o)
 .comment       0x000000000000002c       0x2d ../hit_pat_bsp\libucosii_bsp.a(os_cpu_c.o)
 .comment       0x000000000000002c       0x2d ../hit_pat_bsp\libucosii_bsp.a(allports.o)
 .comment       0x000000000000002c       0x2d ../hit_pat_bsp\libucosii_bsp.a(timeouts.o)
 .comment       0x000000000000002c       0x2d ../hit_pat_bsp\libucosii_bsp.a(tk_misc.o)
 .comment       0x000000000000002c       0x2d ../hit_pat_bsp\libucosii_bsp.a(alt_iniche_fcntl.o)
 .comment       0x000000000000002c       0x2d ../hit_pat_bsp\libucosii_bsp.a(icmp.o)
 .comment       0x000000000000002c       0x2d ../hit_pat_bsp\libucosii_bsp.a(ip.o)
 .comment       0x000000000000002c       0x2d ../hit_pat_bsp\libucosii_bsp.a(ipdemux.o)
 .comment       0x000000000000002c       0x2d ../hit_pat_bsp\libucosii_bsp.a(ipmc.o)
 .comment       0x000000000000002c       0x2d ../hit_pat_bsp\libucosii_bsp.a(ipport.o)
 .comment       0x000000000000002c       0x2d ../hit_pat_bsp\libucosii_bsp.a(ipraw.o)
 .comment       0x000000000000002c       0x2d ../hit_pat_bsp\libucosii_bsp.a(iproute.o)
 .comment       0x000000000000002c       0x2d ../hit_pat_bsp\libucosii_bsp.a(udp.o)
 .comment       0x000000000000002c       0x2d ../hit_pat_bsp\libucosii_bsp.a(igmp.o)
 .comment       0x000000000000002c       0x2d ../hit_pat_bsp\libucosii_bsp.a(igmp2.o)
 .comment       0x000000000000002c       0x2d ../hit_pat_bsp\libucosii_bsp.a(ipopt.o)
 .comment       0x000000000000002c       0x2d ../hit_pat_bsp\libucosii_bsp.a(u_mctest.o)
 .comment       0x000000000000002c       0x2d ../hit_pat_bsp\libucosii_bsp.a(memdev.o)
 .comment       0x000000000000002c       0x2d ../hit_pat_bsp\libucosii_bsp.a(parseip.o)
 .comment       0x000000000000002c       0x2d ../hit_pat_bsp\libucosii_bsp.a(tcpcksum.o)
 .comment       0x000000000000002c       0x2d ../hit_pat_bsp\libucosii_bsp.a(udp_open.o)
 .comment       0x000000000000002c       0x2d ../hit_pat_bsp\libucosii_bsp.a(in_pcb.o)
 .comment       0x000000000000002c       0x2d ../hit_pat_bsp\libucosii_bsp.a(vfsfiles.o)
 .comment       0x000000000000002c       0x2d ../hit_pat_bsp\libucosii_bsp.a(vfsport.o)
 .comment       0x000000000000002c       0x2d ../hit_pat_bsp\libucosii_bsp.a(alt_fcntl.o)
 .comment       0x000000000000002c       0x2d ../hit_pat_bsp\libucosii_bsp.a(alt_find_file.o)
 .comment       0x000000000000002c       0x2d ../hit_pat_bsp\libucosii_bsp.a(alt_get_fd.o)
 .comment       0x000000000000002c       0x2d ../hit_pat_bsp\libucosii_bsp.a(alt_instruction_exception_entry.o)
 .comment       0x000000000000002c       0x2d c:/intelfpga_lite/19.1/nios2eds/bin/gnu/h-x86_64-mingw32/bin/../lib/gcc/nios2-elf/8.3.1/../../../../../H-x86_64-mingw32/nios2-elf/lib\libc.a(lib_a-atexit.o)
 .comment       0x000000000000002c       0x2d c:/intelfpga_lite/19.1/nios2eds/bin/gnu/h-x86_64-mingw32/bin/../lib/gcc/nios2-elf/8.3.1/../../../../../H-x86_64-mingw32/nios2-elf/lib\libc.a(lib_a-atoi.o)
 .comment       0x000000000000002c       0x2d c:/intelfpga_lite/19.1/nios2eds/bin/gnu/h-x86_64-mingw32/bin/../lib/gcc/nios2-elf/8.3.1/../../../../../H-x86_64-mingw32/nios2-elf/lib\libc.a(lib_a-exit.o)
 .comment       0x000000000000002c       0x2d c:/intelfpga_lite/19.1/nios2eds/bin/gnu/h-x86_64-mingw32/bin/../lib/gcc/nios2-elf/8.3.1/../../../../../H-x86_64-mingw32/nios2-elf/lib\libc.a(lib_a-malign.o)
 .comment       0x000000000000002c       0x2d c:/intelfpga_lite/19.1/nios2eds/bin/gnu/h-x86_64-mingw32/bin/../lib/gcc/nios2-elf/8.3.1/../../../../../H-x86_64-mingw32/nios2-elf/lib\libc.a(lib_a-malignr.o)
 .comment       0x000000000000002c       0x2d c:/intelfpga_lite/19.1/nios2eds/bin/gnu/h-x86_64-mingw32/bin/../lib/gcc/nios2-elf/8.3.1/../../../../../H-x86_64-mingw32/nios2-elf/lib\libc.a(lib_a-malloc.o)
 .comment       0x000000000000002c       0x2d c:/intelfpga_lite/19.1/nios2eds/bin/gnu/h-x86_64-mingw32/bin/../lib/gcc/nios2-elf/8.3.1/../../../../../H-x86_64-mingw32/nios2-elf/lib\libc.a(lib_a-memcmp.o)
 .comment       0x000000000000002c       0x2d c:/intelfpga_lite/19.1/nios2eds/bin/gnu/h-x86_64-mingw32/bin/../lib/gcc/nios2-elf/8.3.1/../../../../../H-x86_64-mingw32/nios2-elf/lib\libc.a(lib_a-sprintf.o)
 .comment       0x000000000000002c       0x2d c:/intelfpga_lite/19.1/nios2eds/bin/gnu/h-x86_64-mingw32/bin/../lib/gcc/nios2-elf/8.3.1/../../../../../H-x86_64-mingw32/nios2-elf/lib\libc.a(lib_a-strchr.o)
 .comment       0x000000000000002c       0x2d c:/intelfpga_lite/19.1/nios2eds/bin/gnu/h-x86_64-mingw32/bin/../lib/gcc/nios2-elf/8.3.1/../../../../../H-x86_64-mingw32/nios2-elf/lib\libc.a(lib_a-strcpy.o)
 .comment       0x000000000000002c       0x2d c:/intelfpga_lite/19.1/nios2eds/bin/gnu/h-x86_64-mingw32/bin/../lib/gcc/nios2-elf/8.3.1/../../../../../H-x86_64-mingw32/nios2-elf/lib\libc.a(lib_a-strncmp.o)
 .comment       0x000000000000002c       0x2d c:/intelfpga_lite/19.1/nios2eds/bin/gnu/h-x86_64-mingw32/bin/../lib/gcc/nios2-elf/8.3.1/../../../../../H-x86_64-mingw32/nios2-elf/lib\libc.a(lib_a-strtol.o)
 .comment       0x000000000000002c       0x2d c:/intelfpga_lite/19.1/nios2eds/bin/gnu/h-x86_64-mingw32/bin/../lib/gcc/nios2-elf/8.3.1/../../../../../H-x86_64-mingw32/nios2-elf/lib\libc.a(lib_a-svfprintf.o)
 .comment       0x000000000000002c       0x2d c:/intelfpga_lite/19.1/nios2eds/bin/gnu/h-x86_64-mingw32/bin/../lib/gcc/nios2-elf/8.3.1/../../../../../H-x86_64-mingw32/nios2-elf/lib\libc.a(lib_a-vprintf.o)
 .comment       0x000000000000002c       0x2d c:/intelfpga_lite/19.1/nios2eds/bin/gnu/h-x86_64-mingw32/bin/../lib/gcc/nios2-elf/8.3.1/../../../../../H-x86_64-mingw32/nios2-elf/lib\libc.a(lib_a-vsprintf.o)
 .comment       0x000000000000002c       0x2d c:/intelfpga_lite/19.1/nios2eds/bin/gnu/h-x86_64-mingw32/bin/../lib/gcc/nios2-elf/8.3.1/../../../../../H-x86_64-mingw32/nios2-elf/lib\libc.a(lib_a-__atexit.o)
 .comment       0x000000000000002c       0x2d c:/intelfpga_lite/19.1/nios2eds/bin/gnu/h-x86_64-mingw32/bin/../lib/gcc/nios2-elf/8.3.1/../../../../../H-x86_64-mingw32/nios2-elf/lib\libc.a(lib_a-__call_atexit.o)
 .comment       0x000000000000002c       0x2d c:/intelfpga_lite/19.1/nios2eds/bin/gnu/h-x86_64-mingw32/bin/../lib/gcc/nios2-elf/8.3.1/../../../../../H-x86_64-mingw32/nios2-elf/lib\libc.a(lib_a-svfiprintf.o)
 .comment       0x000000000000002c       0x2d c:/intelfpga_lite/19.1/nios2eds/bin/gnu/h-x86_64-mingw32/bin/../lib/gcc/nios2-elf/8.3.1/../../../../../H-x86_64-mingw32/nios2-elf/lib\libc.a(lib_a-vfprintfr_1.o)
 .comment       0x000000000000002c       0x2d ../hit_pat_bsp\libucosii_bsp.a(alt_exit.o)

.debug
 *(.debug)

.line
 *(.line)

.debug_srcinfo
 *(.debug_srcinfo)

.debug_sfnames
 *(.debug_sfnames)

.debug_aranges  0x0000000000000000     0x1c78
 *(.debug_aranges)
 .debug_aranges
                0x0000000000000000       0x28 d:/hit20v3/software/hit_pat/software/hit_pat_bsp//obj/HAL/src/crt0.o
 .debug_aranges
                0x0000000000000028       0x20 obj/default/src/control.o
 .debug_aranges
                0x0000000000000048       0x20 obj/default/src/main.o
 .debug_aranges
                0x0000000000000068       0x20 obj/default/src/network_utilities.o
 .debug_aranges
                0x0000000000000088       0x20 obj/default/src/sensor.o
 .debug_aranges
                0x00000000000000a8       0x20 obj/default/src/socket_server.o
 .debug_aranges
                0x00000000000000c8       0x18 obj/default/src/tse_my_system.o
 .debug_aranges
                0x00000000000000e0       0x20 obj/default/src/udpgen.o
 .debug_aranges
                0x0000000000000100       0x20 obj/default/src/utils.o
 .debug_aranges
                0x0000000000000120       0x18 c:/intelfpga_lite/19.1/nios2eds/bin/gnu/h-x86_64-mingw32/bin/../lib/gcc/nios2-elf/8.3.1/../../../../../H-x86_64-mingw32/nios2-elf/lib\libc.a(lib_a-ctype_.o)
 .debug_aranges
                0x0000000000000138       0x28 c:/intelfpga_lite/19.1/nios2eds/bin/gnu/h-x86_64-mingw32/bin/../lib/gcc/nios2-elf/8.3.1/../../../../../H-x86_64-mingw32/nios2-elf/lib\libc.a(lib_a-getchar.o)
 .debug_aranges
                0x0000000000000160       0x18 c:/intelfpga_lite/19.1/nios2eds/bin/gnu/h-x86_64-mingw32/bin/../lib/gcc/nios2-elf/8.3.1/../../../../../H-x86_64-mingw32/nios2-elf/lib\libc.a(lib_a-impure.o)
 .debug_aranges
                0x0000000000000178       0x28 c:/intelfpga_lite/19.1/nios2eds/bin/gnu/h-x86_64-mingw32/bin/../lib/gcc/nios2-elf/8.3.1/../../../../../H-x86_64-mingw32/nios2-elf/lib\libc.a(lib_a-printf.o)
 .debug_aranges
                0x00000000000001a0       0x28 c:/intelfpga_lite/19.1/nios2eds/bin/gnu/h-x86_64-mingw32/bin/../lib/gcc/nios2-elf/8.3.1/../../../../../H-x86_64-mingw32/nios2-elf/lib\libc.a(lib_a-putchar.o)
 .debug_aranges
                0x00000000000001c8       0x28 c:/intelfpga_lite/19.1/nios2eds/bin/gnu/h-x86_64-mingw32/bin/../lib/gcc/nios2-elf/8.3.1/../../../../../H-x86_64-mingw32/nios2-elf/lib\libc.a(lib_a-puts.o)
 .debug_aranges
                0x00000000000001f0       0x20 c:/intelfpga_lite/19.1/nios2eds/bin/gnu/h-x86_64-mingw32/bin/../lib/gcc/nios2-elf/8.3.1/../../../../../H-x86_64-mingw32/nios2-elf/lib\libc.a(lib_a-strlen.o)
 .debug_aranges
                0x0000000000000210       0x30 c:/intelfpga_lite/19.1/nios2eds/bin/gnu/h-x86_64-mingw32/bin/../lib/gcc/nios2-elf/8.3.1/../../../../../H-x86_64-mingw32/nios2-elf/lib\libc.a(lib_a-vfprintf.o)
 .debug_aranges
                0x0000000000000240       0x20 c:/intelfpga_lite/19.1/nios2eds/bin/gnu/h-x86_64-mingw32/bin/../lib/gcc/nios2-elf/8.3.1/../../../../../H-x86_64-mingw32/nios2-elf/lib\libc.a(lib_a-wsetup.o)
 .debug_aranges
                0x0000000000000260       0x28 c:/intelfpga_lite/19.1/nios2eds/bin/gnu/h-x86_64-mingw32/bin/../lib/gcc/nios2-elf/8.3.1/../../../../../H-x86_64-mingw32/nios2-elf/lib\libc.a(lib_a-dtoa.o)
 .debug_aranges
                0x0000000000000288       0x30 c:/intelfpga_lite/19.1/nios2eds/bin/gnu/h-x86_64-mingw32/bin/../lib/gcc/nios2-elf/8.3.1/../../../../../H-x86_64-mingw32/nios2-elf/lib\libc.a(lib_a-fflush.o)
 .debug_aranges
                0x00000000000002b8       0x68 c:/intelfpga_lite/19.1/nios2eds/bin/gnu/h-x86_64-mingw32/bin/../lib/gcc/nios2-elf/8.3.1/../../../../../H-x86_64-mingw32/nios2-elf/lib\libc.a(lib_a-findfp.o)
 .debug_aranges
                0x0000000000000320       0x28 c:/intelfpga_lite/19.1/nios2eds/bin/gnu/h-x86_64-mingw32/bin/../lib/gcc/nios2-elf/8.3.1/../../../../../H-x86_64-mingw32/nios2-elf/lib\libc.a(lib_a-freer.o)
 .debug_aranges
                0x0000000000000348       0x20 c:/intelfpga_lite/19.1/nios2eds/bin/gnu/h-x86_64-mingw32/bin/../lib/gcc/nios2-elf/8.3.1/../../../../../H-x86_64-mingw32/nios2-elf/lib\libc.a(lib_a-fvwrite.o)
 .debug_aranges
                0x0000000000000368       0x28 c:/intelfpga_lite/19.1/nios2eds/bin/gnu/h-x86_64-mingw32/bin/../lib/gcc/nios2-elf/8.3.1/../../../../../H-x86_64-mingw32/nios2-elf/lib\libc.a(lib_a-fwalk.o)
 .debug_aranges
                0x0000000000000390       0x28 c:/intelfpga_lite/19.1/nios2eds/bin/gnu/h-x86_64-mingw32/bin/../lib/gcc/nios2-elf/8.3.1/../../../../../H-x86_64-mingw32/nios2-elf/lib\libc.a(lib_a-getc.o)
 .debug_aranges
                0x00000000000003b8       0x30 c:/intelfpga_lite/19.1/nios2eds/bin/gnu/h-x86_64-mingw32/bin/../lib/gcc/nios2-elf/8.3.1/../../../../../H-x86_64-mingw32/nios2-elf/lib\libc.a(lib_a-localeconv.o)
 .debug_aranges
                0x00000000000003e8       0x28 c:/intelfpga_lite/19.1/nios2eds/bin/gnu/h-x86_64-mingw32/bin/../lib/gcc/nios2-elf/8.3.1/../../../../../H-x86_64-mingw32/nios2-elf/lib\libc.a(lib_a-makebuf.o)
 .debug_aranges
                0x0000000000000410       0x20 c:/intelfpga_lite/19.1/nios2eds/bin/gnu/h-x86_64-mingw32/bin/../lib/gcc/nios2-elf/8.3.1/../../../../../H-x86_64-mingw32/nios2-elf/lib\libc.a(lib_a-mallocr.o)
 .debug_aranges
                0x0000000000000430       0x20 c:/intelfpga_lite/19.1/nios2eds/bin/gnu/h-x86_64-mingw32/bin/../lib/gcc/nios2-elf/8.3.1/../../../../../H-x86_64-mingw32/nios2-elf/lib\libc.a(lib_a-memchr.o)
 .debug_aranges
                0x0000000000000450       0x20 c:/intelfpga_lite/19.1/nios2eds/bin/gnu/h-x86_64-mingw32/bin/../lib/gcc/nios2-elf/8.3.1/../../../../../H-x86_64-mingw32/nios2-elf/lib\libc.a(lib_a-memcpy.o)
 .debug_aranges
                0x0000000000000470       0x20 c:/intelfpga_lite/19.1/nios2eds/bin/gnu/h-x86_64-mingw32/bin/../lib/gcc/nios2-elf/8.3.1/../../../../../H-x86_64-mingw32/nios2-elf/lib\libc.a(lib_a-memmove.o)
 .debug_aranges
                0x0000000000000490       0x20 c:/intelfpga_lite/19.1/nios2eds/bin/gnu/h-x86_64-mingw32/bin/../lib/gcc/nios2-elf/8.3.1/../../../../../H-x86_64-mingw32/nios2-elf/lib\libc.a(lib_a-memset.o)
 .debug_aranges
                0x00000000000004b0       0xb0 c:/intelfpga_lite/19.1/nios2eds/bin/gnu/h-x86_64-mingw32/bin/../lib/gcc/nios2-elf/8.3.1/../../../../../H-x86_64-mingw32/nios2-elf/lib\libc.a(lib_a-mprec.o)
 .debug_aranges
                0x0000000000000560       0x28 c:/intelfpga_lite/19.1/nios2eds/bin/gnu/h-x86_64-mingw32/bin/../lib/gcc/nios2-elf/8.3.1/../../../../../H-x86_64-mingw32/nios2-elf/lib\libc.a(lib_a-putc.o)
 .debug_aranges
                0x0000000000000588       0x20 c:/intelfpga_lite/19.1/nios2eds/bin/gnu/h-x86_64-mingw32/bin/../lib/gcc/nios2-elf/8.3.1/../../../../../H-x86_64-mingw32/nios2-elf/lib\libc.a(lib_a-reallocr.o)
 .debug_aranges
                0x00000000000005a8       0x28 c:/intelfpga_lite/19.1/nios2eds/bin/gnu/h-x86_64-mingw32/bin/../lib/gcc/nios2-elf/8.3.1/../../../../../H-x86_64-mingw32/nios2-elf/lib\libc.a(lib_a-rget.o)
 .debug_aranges
                0x00000000000005d0       0x20 c:/intelfpga_lite/19.1/nios2eds/bin/gnu/h-x86_64-mingw32/bin/../lib/gcc/nios2-elf/8.3.1/../../../../../H-x86_64-mingw32/nios2-elf/lib\libc.a(lib_a-sbrkr.o)
 .debug_aranges
                0x00000000000005f0       0x40 c:/intelfpga_lite/19.1/nios2eds/bin/gnu/h-x86_64-mingw32/bin/../lib/gcc/nios2-elf/8.3.1/../../../../../H-x86_64-mingw32/nios2-elf/lib\libc.a(lib_a-stdio.o)
 .debug_aranges
                0x0000000000000630       0x40 c:/intelfpga_lite/19.1/nios2eds/bin/gnu/h-x86_64-mingw32/bin/../lib/gcc/nios2-elf/8.3.1/../../../../../H-x86_64-mingw32/nios2-elf/lib\libc.a(lib_a-vfiprintf.o)
 .debug_aranges
                0x0000000000000670       0x28 c:/intelfpga_lite/19.1/nios2eds/bin/gnu/h-x86_64-mingw32/bin/../lib/gcc/nios2-elf/8.3.1/../../../../../H-x86_64-mingw32/nios2-elf/lib\libc.a(lib_a-wbuf.o)
 .debug_aranges
                0x0000000000000698       0x20 c:/intelfpga_lite/19.1/nios2eds/bin/gnu/h-x86_64-mingw32/bin/../lib/gcc/nios2-elf/8.3.1/../../../../../H-x86_64-mingw32/nios2-elf/lib\libc.a(lib_a-writer.o)
 .debug_aranges
                0x00000000000006b8       0x20 c:/intelfpga_lite/19.1/nios2eds/bin/gnu/h-x86_64-mingw32/bin/../lib/gcc/nios2-elf/8.3.1/../../../../../H-x86_64-mingw32/nios2-elf/lib\libc.a(closer.o)
 .debug_aranges
                0x00000000000006d8       0x20 c:/intelfpga_lite/19.1/nios2eds/bin/gnu/h-x86_64-mingw32/bin/../lib/gcc/nios2-elf/8.3.1/../../../../../H-x86_64-mingw32/nios2-elf/lib\libc.a(lib_a-callocr.o)
 .debug_aranges
                0x00000000000006f8       0x28 c:/intelfpga_lite/19.1/nios2eds/bin/gnu/h-x86_64-mingw32/bin/../lib/gcc/nios2-elf/8.3.1/../../../../../H-x86_64-mingw32/nios2-elf/lib\libc.a(lib_a-fclose.o)
 .debug_aranges
                0x0000000000000720       0x30 c:/intelfpga_lite/19.1/nios2eds/bin/gnu/h-x86_64-mingw32/bin/../lib/gcc/nios2-elf/8.3.1/../../../../../H-x86_64-mingw32/nios2-elf/lib\libc.a(lib_a-fputwc.o)
 .debug_aranges
                0x0000000000000750       0x20 c:/intelfpga_lite/19.1/nios2eds/bin/gnu/h-x86_64-mingw32/bin/../lib/gcc/nios2-elf/8.3.1/../../../../../H-x86_64-mingw32/nios2-elf/lib\libc.a(lib_a-fstatr.o)
 .debug_aranges
                0x0000000000000770       0x18 c:/intelfpga_lite/19.1/nios2eds/bin/gnu/h-x86_64-mingw32/bin/../lib/gcc/nios2-elf/8.3.1/../../../../../H-x86_64-mingw32/nios2-elf/lib\libc.a(lib_a-int_errno.o)
 .debug_aranges
                0x0000000000000788       0x20 c:/intelfpga_lite/19.1/nios2eds/bin/gnu/h-x86_64-mingw32/bin/../lib/gcc/nios2-elf/8.3.1/../../../../../H-x86_64-mingw32/nios2-elf/lib\libc.a(lib_a-isattyr.o)
 .debug_aranges
                0x00000000000007a8       0x30 c:/intelfpga_lite/19.1/nios2eds/bin/gnu/h-x86_64-mingw32/bin/../lib/gcc/nios2-elf/8.3.1/../../../../../H-x86_64-mingw32/nios2-elf/lib\libc.a(lib_a-locale.o)
 .debug_aranges
                0x00000000000007d8       0x20 c:/intelfpga_lite/19.1/nios2eds/bin/gnu/h-x86_64-mingw32/bin/../lib/gcc/nios2-elf/8.3.1/../../../../../H-x86_64-mingw32/nios2-elf/lib\libc.a(lib_a-lseekr.o)
 .debug_aranges
                0x00000000000007f8       0x28 c:/intelfpga_lite/19.1/nios2eds/bin/gnu/h-x86_64-mingw32/bin/../lib/gcc/nios2-elf/8.3.1/../../../../../H-x86_64-mingw32/nios2-elf/lib\libc.a(lib_a-mbtowc_r.o)
 .debug_aranges
                0x0000000000000820       0x20 c:/intelfpga_lite/19.1/nios2eds/bin/gnu/h-x86_64-mingw32/bin/../lib/gcc/nios2-elf/8.3.1/../../../../../H-x86_64-mingw32/nios2-elf/lib\libc.a(lib_a-readr.o)
 .debug_aranges
                0x0000000000000840       0x28 c:/intelfpga_lite/19.1/nios2eds/bin/gnu/h-x86_64-mingw32/bin/../lib/gcc/nios2-elf/8.3.1/../../../../../H-x86_64-mingw32/nios2-elf/lib\libc.a(lib_a-refill.o)
 .debug_aranges
                0x0000000000000868       0x20 c:/intelfpga_lite/19.1/nios2eds/bin/gnu/h-x86_64-mingw32/bin/../lib/gcc/nios2-elf/8.3.1/../../../../../H-x86_64-mingw32/nios2-elf/lib\libc.a(lib_a-strcmp.o)
 .debug_aranges
                0x0000000000000888       0x28 c:/intelfpga_lite/19.1/nios2eds/bin/gnu/h-x86_64-mingw32/bin/../lib/gcc/nios2-elf/8.3.1/../../../../../H-x86_64-mingw32/nios2-elf/lib\libc.a(lib_a-wcrtomb.o)
 .debug_aranges
                0x00000000000008b0       0x28 c:/intelfpga_lite/19.1/nios2eds/bin/gnu/h-x86_64-mingw32/bin/../lib/gcc/nios2-elf/8.3.1/../../../../../H-x86_64-mingw32/nios2-elf/lib\libc.a(lib_a-wctomb_r.o)
 .debug_aranges
                0x00000000000008d8       0x20 c:/intelfpga_lite/19.1/nios2eds/bin/gnu/h-x86_64-mingw32/bin/../lib/gcc/nios2-elf/8.3.1\libgcc.a(_udivdi3.o)
 .debug_aranges
                0x00000000000008f8       0x20 c:/intelfpga_lite/19.1/nios2eds/bin/gnu/h-x86_64-mingw32/bin/../lib/gcc/nios2-elf/8.3.1\libgcc.a(_umoddi3.o)
 .debug_aranges
                0x0000000000000918       0x20 c:/intelfpga_lite/19.1/nios2eds/bin/gnu/h-x86_64-mingw32/bin/../lib/gcc/nios2-elf/8.3.1\libgcc.a(lib2-divmod.o)
 .debug_aranges
                0x0000000000000938       0x20 c:/intelfpga_lite/19.1/nios2eds/bin/gnu/h-x86_64-mingw32/bin/../lib/gcc/nios2-elf/8.3.1\libgcc.a(adddf3.o)
 .debug_aranges
                0x0000000000000958       0x20 c:/intelfpga_lite/19.1/nios2eds/bin/gnu/h-x86_64-mingw32/bin/../lib/gcc/nios2-elf/8.3.1\libgcc.a(divdf3.o)
 .debug_aranges
                0x0000000000000978       0x20 c:/intelfpga_lite/19.1/nios2eds/bin/gnu/h-x86_64-mingw32/bin/../lib/gcc/nios2-elf/8.3.1\libgcc.a(eqdf2.o)
 .debug_aranges
                0x0000000000000998       0x20 c:/intelfpga_lite/19.1/nios2eds/bin/gnu/h-x86_64-mingw32/bin/../lib/gcc/nios2-elf/8.3.1\libgcc.a(gedf2.o)
 .debug_aranges
                0x00000000000009b8       0x20 c:/intelfpga_lite/19.1/nios2eds/bin/gnu/h-x86_64-mingw32/bin/../lib/gcc/nios2-elf/8.3.1\libgcc.a(ledf2.o)
 .debug_aranges
                0x00000000000009d8       0x20 c:/intelfpga_lite/19.1/nios2eds/bin/gnu/h-x86_64-mingw32/bin/../lib/gcc/nios2-elf/8.3.1\libgcc.a(muldf3.o)
 .debug_aranges
                0x00000000000009f8       0x20 c:/intelfpga_lite/19.1/nios2eds/bin/gnu/h-x86_64-mingw32/bin/../lib/gcc/nios2-elf/8.3.1\libgcc.a(subdf3.o)
 .debug_aranges
                0x0000000000000a18       0x20 c:/intelfpga_lite/19.1/nios2eds/bin/gnu/h-x86_64-mingw32/bin/../lib/gcc/nios2-elf/8.3.1\libgcc.a(unorddf2.o)
 .debug_aranges
                0x0000000000000a38       0x20 c:/intelfpga_lite/19.1/nios2eds/bin/gnu/h-x86_64-mingw32/bin/../lib/gcc/nios2-elf/8.3.1\libgcc.a(fixdfsi.o)
 .debug_aranges
                0x0000000000000a58       0x20 c:/intelfpga_lite/19.1/nios2eds/bin/gnu/h-x86_64-mingw32/bin/../lib/gcc/nios2-elf/8.3.1\libgcc.a(floatsidf.o)
 .debug_aranges
                0x0000000000000a78       0x20 c:/intelfpga_lite/19.1/nios2eds/bin/gnu/h-x86_64-mingw32/bin/../lib/gcc/nios2-elf/8.3.1\libgcc.a(floatunsidf.o)
 .debug_aranges
                0x0000000000000a98       0x18 c:/intelfpga_lite/19.1/nios2eds/bin/gnu/h-x86_64-mingw32/bin/../lib/gcc/nios2-elf/8.3.1\libgcc.a(_clz.o)
 .debug_aranges
                0x0000000000000ab0       0x20 c:/intelfpga_lite/19.1/nios2eds/bin/gnu/h-x86_64-mingw32/bin/../lib/gcc/nios2-elf/8.3.1\libgcc.a(_clzsi2.o)
 .debug_aranges
                0x0000000000000ad0       0x20 ../hit_pat_bsp\libucosii_bsp.a(alt_flash_dev.o)
 .debug_aranges
                0x0000000000000af0       0x20 ../hit_pat_bsp\libucosii_bsp.a(alt_fstat.o)
 .debug_aranges
                0x0000000000000b10       0x20 ../hit_pat_bsp\libucosii_bsp.a(alt_isatty.o)
 .debug_aranges
                0x0000000000000b30       0x20 ../hit_pat_bsp\libucosii_bsp.a(alt_lseek.o)
 .debug_aranges
                0x0000000000000b50       0x20 ../hit_pat_bsp\libucosii_bsp.a(alt_main.o)
 .debug_aranges
                0x0000000000000b70       0x20 ../hit_pat_bsp\libucosii_bsp.a(alt_sbrk.o)
 .debug_aranges
                0x0000000000000b90       0x20 ../hit_pat_bsp\libucosii_bsp.a(alt_env_lock.o)
 .debug_aranges
                0x0000000000000bb0       0x20 ../hit_pat_bsp\libucosii_bsp.a(alt_malloc_lock.o)
 .debug_aranges
                0x0000000000000bd0       0x20 ../hit_pat_bsp\libucosii_bsp.a(os_core.o)
 .debug_aranges
                0x0000000000000bf0       0x20 ../hit_pat_bsp\libucosii_bsp.a(os_flag.o)
 .debug_aranges
                0x0000000000000c10       0x20 ../hit_pat_bsp\libucosii_bsp.a(os_mem.o)
 .debug_aranges
                0x0000000000000c30       0x20 ../hit_pat_bsp\libucosii_bsp.a(os_mutex.o)
 .debug_aranges
                0x0000000000000c50       0x20 ../hit_pat_bsp\libucosii_bsp.a(os_q.o)
 .debug_aranges
                0x0000000000000c70       0x20 ../hit_pat_bsp\libucosii_bsp.a(os_sem.o)
 .debug_aranges
                0x0000000000000c90       0x20 ../hit_pat_bsp\libucosii_bsp.a(os_task.o)
 .debug_aranges
                0x0000000000000cb0       0x20 ../hit_pat_bsp\libucosii_bsp.a(os_time.o)
 .debug_aranges
                0x0000000000000cd0       0x20 ../hit_pat_bsp\libucosii_bsp.a(alt_sys_init.o)
 .debug_aranges
                0x0000000000000cf0       0x20 ../hit_pat_bsp\libucosii_bsp.a(altera_avalon_timer_sc.o)
 .debug_aranges
                0x0000000000000d10       0x20 ../hit_pat_bsp\libucosii_bsp.a(altera_avalon_tse.o)
 .debug_aranges
                0x0000000000000d30       0x20 ../hit_pat_bsp\libucosii_bsp.a(altera_avalon_uart_fd.o)
 .debug_aranges
                0x0000000000000d50       0x20 ../hit_pat_bsp\libucosii_bsp.a(altera_avalon_uart_init.o)
 .debug_aranges
                0x0000000000000d70       0x20 ../hit_pat_bsp\libucosii_bsp.a(altera_avalon_uart_read.o)
 .debug_aranges
                0x0000000000000d90       0x20 ../hit_pat_bsp\libucosii_bsp.a(altera_avalon_uart_write.o)
 .debug_aranges
                0x0000000000000db0       0x20 ../hit_pat_bsp\libucosii_bsp.a(altera_generic_quad_spi_controller.o)
 .debug_aranges
                0x0000000000000dd0       0x20 ../hit_pat_bsp\libucosii_bsp.a(altera_msgdma.o)
 .debug_aranges
                0x0000000000000df0       0x20 ../hit_pat_bsp\libucosii_bsp.a(altera_onchip_flash.o)
 .debug_aranges
                0x0000000000000e10       0x20 ../hit_pat_bsp\libucosii_bsp.a(ins_tse_mac.o)
 .debug_aranges
                0x0000000000000e30       0x20 ../hit_pat_bsp\libucosii_bsp.a(alt_iniche_close.o)
 .debug_aranges
                0x0000000000000e50       0x20 ../hit_pat_bsp\libucosii_bsp.a(alt_iniche_dev.o)
 .debug_aranges
                0x0000000000000e70       0x20 ../hit_pat_bsp\libucosii_bsp.a(alt_iniche_read.o)
 .debug_aranges
                0x0000000000000e90       0x20 ../hit_pat_bsp\libucosii_bsp.a(alt_iniche_write.o)
 .debug_aranges
                0x0000000000000eb0       0x20 ../hit_pat_bsp\libucosii_bsp.a(et_arp.o)
 .debug_aranges
                0x0000000000000ed0       0x20 ../hit_pat_bsp\libucosii_bsp.a(iface.o)
 .debug_aranges
                0x0000000000000ef0       0x20 ../hit_pat_bsp\libucosii_bsp.a(ipnet.o)
 .debug_aranges
                0x0000000000000f10       0x20 ../hit_pat_bsp\libucosii_bsp.a(ipstart.o)
 .debug_aranges
                0x0000000000000f30       0x20 ../hit_pat_bsp\libucosii_bsp.a(igmp_cmn.o)
 .debug_aranges
                0x0000000000000f50       0x20 ../hit_pat_bsp\libucosii_bsp.a(bsdsock.o)
 .debug_aranges
                0x0000000000000f70       0x20 ../hit_pat_bsp\libucosii_bsp.a(cksum.o)
 .debug_aranges
                0x0000000000000f90       0x20 ../hit_pat_bsp\libucosii_bsp.a(in_utils.o)
 .debug_aranges
                0x0000000000000fb0       0x20 ../hit_pat_bsp\libucosii_bsp.a(netmain.o)
 .debug_aranges
                0x0000000000000fd0       0x20 ../hit_pat_bsp\libucosii_bsp.a(tk_crnos.o)
 .debug_aranges
                0x0000000000000ff0       0x20 ../hit_pat_bsp\libucosii_bsp.a(ping.o)
 .debug_aranges
                0x0000000000001010       0x20 ../hit_pat_bsp\libucosii_bsp.a(pktalloc.o)
 .debug_aranges
                0x0000000000001030       0x20 ../hit_pat_bsp\libucosii_bsp.a(q.o)
 .debug_aranges
                0x0000000000001050       0x20 ../hit_pat_bsp\libucosii_bsp.a(asm_cksum.o)
 .debug_aranges
                0x0000000000001070       0x20 ../hit_pat_bsp\libucosii_bsp.a(brdutils.o)
 .debug_aranges
                0x0000000000001090       0x20 ../hit_pat_bsp\libucosii_bsp.a(osportco.o)
 .debug_aranges
                0x00000000000010b0       0x20 ../hit_pat_bsp\libucosii_bsp.a(targnios.o)
 .debug_aranges
                0x00000000000010d0       0x20 ../hit_pat_bsp\libucosii_bsp.a(nptcp.o)
 .debug_aranges
                0x00000000000010f0       0x20 ../hit_pat_bsp\libucosii_bsp.a(rawsock.o)
 .debug_aranges
                0x0000000000001110       0x20 ../hit_pat_bsp\libucosii_bsp.a(sockcall.o)
 .debug_aranges
                0x0000000000001130       0x20 ../hit_pat_bsp\libucosii_bsp.a(socket.o)
 .debug_aranges
                0x0000000000001150       0x20 ../hit_pat_bsp\libucosii_bsp.a(socket2.o)
 .debug_aranges
                0x0000000000001170       0x20 ../hit_pat_bsp\libucosii_bsp.a(soselect.o)
 .debug_aranges
                0x0000000000001190       0x20 ../hit_pat_bsp\libucosii_bsp.a(tcp_in.o)
 .debug_aranges
                0x00000000000011b0       0x20 ../hit_pat_bsp\libucosii_bsp.a(tcp_out.o)
 .debug_aranges
                0x00000000000011d0       0x20 ../hit_pat_bsp\libucosii_bsp.a(tcp_subr.o)
 .debug_aranges
                0x00000000000011f0       0x20 ../hit_pat_bsp\libucosii_bsp.a(tcp_timr.o)
 .debug_aranges
                0x0000000000001210       0x20 ../hit_pat_bsp\libucosii_bsp.a(tcp_usr.o)
 .debug_aranges
                0x0000000000001230       0x20 ../hit_pat_bsp\libucosii_bsp.a(tcpport.o)
 .debug_aranges
                0x0000000000001250       0x20 ../hit_pat_bsp\libucosii_bsp.a(udpsock.o)
 .debug_aranges
                0x0000000000001270       0x20 ../hit_pat_bsp\libucosii_bsp.a(alt_busy_sleep.o)
 .debug_aranges
                0x0000000000001290       0x20 ../hit_pat_bsp\libucosii_bsp.a(alt_close.o)
 .debug_aranges
                0x00000000000012b0       0x20 ../hit_pat_bsp\libucosii_bsp.a(alt_dcache_flush.o)
 .debug_aranges
                0x00000000000012d0       0x20 ../hit_pat_bsp\libucosii_bsp.a(alt_dev.o)
 .debug_aranges
                0x00000000000012f0       0x20 ../hit_pat_bsp\libucosii_bsp.a(alt_dev_llist_insert.o)
 .debug_aranges
                0x0000000000001310       0x20 ../hit_pat_bsp\libucosii_bsp.a(alt_do_ctors.o)
 .debug_aranges
                0x0000000000001330       0x20 ../hit_pat_bsp\libucosii_bsp.a(alt_do_dtors.o)
 .debug_aranges
                0x0000000000001350       0x18 ../hit_pat_bsp\libucosii_bsp.a(alt_errno.o)
 .debug_aranges
                0x0000000000001368       0x20 ../hit_pat_bsp\libucosii_bsp.a(alt_find_dev.o)
 .debug_aranges
                0x0000000000001388       0x20 ../hit_pat_bsp\libucosii_bsp.a(alt_iic.o)
 .debug_aranges
                0x00000000000013a8       0x20 ../hit_pat_bsp\libucosii_bsp.a(alt_iic_isr_register.o)
 .debug_aranges
                0x00000000000013c8       0x20 ../hit_pat_bsp\libucosii_bsp.a(alt_io_redirect.o)
 .debug_aranges
                0x00000000000013e8       0x30 ../hit_pat_bsp\libucosii_bsp.a(alt_irq_entry.o)
 .debug_aranges
                0x0000000000001418       0x20 ../hit_pat_bsp\libucosii_bsp.a(alt_irq_handler.o)
 .debug_aranges
                0x0000000000001438       0x18 ../hit_pat_bsp\libucosii_bsp.a(alt_irq_vars.o)
 .debug_aranges
                0x0000000000001450       0x20 ../hit_pat_bsp\libucosii_bsp.a(alt_open.o)
 .debug_aranges
                0x0000000000001470       0x20 ../hit_pat_bsp\libucosii_bsp.a(alt_printf.o)
 .debug_aranges
                0x0000000000001490       0x20 ../hit_pat_bsp\libucosii_bsp.a(alt_putchar.o)
 .debug_aranges
                0x00000000000014b0       0x20 ../hit_pat_bsp\libucosii_bsp.a(alt_read.o)
 .debug_aranges
                0x00000000000014d0       0x20 ../hit_pat_bsp\libucosii_bsp.a(alt_release_fd.o)
 .debug_aranges
                0x00000000000014f0       0x20 ../hit_pat_bsp\libucosii_bsp.a(alt_remap_cached.o)
 .debug_aranges
                0x0000000000001510       0x20 ../hit_pat_bsp\libucosii_bsp.a(alt_tick.o)
 .debug_aranges
                0x0000000000001530       0x20 ../hit_pat_bsp\libucosii_bsp.a(alt_uncached_free.o)
 .debug_aranges
                0x0000000000001550       0x20 ../hit_pat_bsp\libucosii_bsp.a(alt_uncached_malloc.o)
 .debug_aranges
                0x0000000000001570       0x20 ../hit_pat_bsp\libucosii_bsp.a(alt_usleep.o)
 .debug_aranges
                0x0000000000001590       0x20 ../hit_pat_bsp\libucosii_bsp.a(alt_write.o)
 .debug_aranges
                0x00000000000015b0       0x20 ../hit_pat_bsp\libucosii_bsp.a(altera_nios2_gen2_irq.o)
 .debug_aranges
                0x00000000000015d0       0x20 ../hit_pat_bsp\libucosii_bsp.a(os_cpu_a.o)
 .debug_aranges
                0x00000000000015f0       0x20 ../hit_pat_bsp\libucosii_bsp.a(os_cpu_c.o)
 .debug_aranges
                0x0000000000001610       0x20 ../hit_pat_bsp\libucosii_bsp.a(allports.o)
 .debug_aranges
                0x0000000000001630       0x20 ../hit_pat_bsp\libucosii_bsp.a(timeouts.o)
 .debug_aranges
                0x0000000000001650       0x20 ../hit_pat_bsp\libucosii_bsp.a(tk_misc.o)
 .debug_aranges
                0x0000000000001670       0x20 ../hit_pat_bsp\libucosii_bsp.a(alt_iniche_fcntl.o)
 .debug_aranges
                0x0000000000001690       0x20 ../hit_pat_bsp\libucosii_bsp.a(icmp.o)
 .debug_aranges
                0x00000000000016b0       0x20 ../hit_pat_bsp\libucosii_bsp.a(ip.o)
 .debug_aranges
                0x00000000000016d0       0x20 ../hit_pat_bsp\libucosii_bsp.a(ipdemux.o)
 .debug_aranges
                0x00000000000016f0       0x20 ../hit_pat_bsp\libucosii_bsp.a(ipmc.o)
 .debug_aranges
                0x0000000000001710       0x20 ../hit_pat_bsp\libucosii_bsp.a(ipport.o)
 .debug_aranges
                0x0000000000001730       0x20 ../hit_pat_bsp\libucosii_bsp.a(ipraw.o)
 .debug_aranges
                0x0000000000001750       0x20 ../hit_pat_bsp\libucosii_bsp.a(iproute.o)
 .debug_aranges
                0x0000000000001770       0x20 ../hit_pat_bsp\libucosii_bsp.a(udp.o)
 .debug_aranges
                0x0000000000001790       0x20 ../hit_pat_bsp\libucosii_bsp.a(igmp.o)
 .debug_aranges
                0x00000000000017b0       0x20 ../hit_pat_bsp\libucosii_bsp.a(igmp2.o)
 .debug_aranges
                0x00000000000017d0       0x20 ../hit_pat_bsp\libucosii_bsp.a(ipopt.o)
 .debug_aranges
                0x00000000000017f0       0x20 ../hit_pat_bsp\libucosii_bsp.a(u_mctest.o)
 .debug_aranges
                0x0000000000001810       0x20 ../hit_pat_bsp\libucosii_bsp.a(memdev.o)
 .debug_aranges
                0x0000000000001830       0x20 ../hit_pat_bsp\libucosii_bsp.a(parseip.o)
 .debug_aranges
                0x0000000000001850       0x20 ../hit_pat_bsp\libucosii_bsp.a(tcpcksum.o)
 .debug_aranges
                0x0000000000001870       0x20 ../hit_pat_bsp\libucosii_bsp.a(udp_open.o)
 .debug_aranges
                0x0000000000001890       0x20 ../hit_pat_bsp\libucosii_bsp.a(in_pcb.o)
 .debug_aranges
                0x00000000000018b0       0x20 ../hit_pat_bsp\libucosii_bsp.a(vfsfiles.o)
 .debug_aranges
                0x00000000000018d0       0x20 ../hit_pat_bsp\libucosii_bsp.a(vfsport.o)
 .debug_aranges
                0x00000000000018f0       0x38 ../hit_pat_bsp\libucosii_bsp.a(alt_exception_entry.o)
 .debug_aranges
                0x0000000000001928       0x20 ../hit_pat_bsp\libucosii_bsp.a(alt_fcntl.o)
 .debug_aranges
                0x0000000000001948       0x20 ../hit_pat_bsp\libucosii_bsp.a(alt_find_file.o)
 .debug_aranges
                0x0000000000001968       0x20 ../hit_pat_bsp\libucosii_bsp.a(alt_get_fd.o)
 .debug_aranges
                0x0000000000001988       0x28 ../hit_pat_bsp\libucosii_bsp.a(alt_instruction_exception_entry.o)
 .debug_aranges
                0x00000000000019b0       0x20 c:/intelfpga_lite/19.1/nios2eds/bin/gnu/h-x86_64-mingw32/bin/../lib/gcc/nios2-elf/8.3.1/../../../../../H-x86_64-mingw32/nios2-elf/lib\libc.a(lib_a-atexit.o)
 .debug_aranges
                0x00000000000019d0       0x28 c:/intelfpga_lite/19.1/nios2eds/bin/gnu/h-x86_64-mingw32/bin/../lib/gcc/nios2-elf/8.3.1/../../../../../H-x86_64-mingw32/nios2-elf/lib\libc.a(lib_a-atoi.o)
 .debug_aranges
                0x00000000000019f8       0x20 c:/intelfpga_lite/19.1/nios2eds/bin/gnu/h-x86_64-mingw32/bin/../lib/gcc/nios2-elf/8.3.1/../../../../../H-x86_64-mingw32/nios2-elf/lib\libc.a(lib_a-exit.o)
 .debug_aranges
                0x0000000000001a18       0x20 c:/intelfpga_lite/19.1/nios2eds/bin/gnu/h-x86_64-mingw32/bin/../lib/gcc/nios2-elf/8.3.1/../../../../../H-x86_64-mingw32/nios2-elf/lib\libc.a(lib_a-malign.o)
 .debug_aranges
                0x0000000000001a38       0x20 c:/intelfpga_lite/19.1/nios2eds/bin/gnu/h-x86_64-mingw32/bin/../lib/gcc/nios2-elf/8.3.1/../../../../../H-x86_64-mingw32/nios2-elf/lib\libc.a(lib_a-malignr.o)
 .debug_aranges
                0x0000000000001a58       0x28 c:/intelfpga_lite/19.1/nios2eds/bin/gnu/h-x86_64-mingw32/bin/../lib/gcc/nios2-elf/8.3.1/../../../../../H-x86_64-mingw32/nios2-elf/lib\libc.a(lib_a-malloc.o)
 .debug_aranges
                0x0000000000001a80       0x20 c:/intelfpga_lite/19.1/nios2eds/bin/gnu/h-x86_64-mingw32/bin/../lib/gcc/nios2-elf/8.3.1/../../../../../H-x86_64-mingw32/nios2-elf/lib\libc.a(lib_a-memcmp.o)
 .debug_aranges
                0x0000000000001aa0       0x28 c:/intelfpga_lite/19.1/nios2eds/bin/gnu/h-x86_64-mingw32/bin/../lib/gcc/nios2-elf/8.3.1/../../../../../H-x86_64-mingw32/nios2-elf/lib\libc.a(lib_a-sprintf.o)
 .debug_aranges
                0x0000000000001ac8       0x20 c:/intelfpga_lite/19.1/nios2eds/bin/gnu/h-x86_64-mingw32/bin/../lib/gcc/nios2-elf/8.3.1/../../../../../H-x86_64-mingw32/nios2-elf/lib\libc.a(lib_a-strchr.o)
 .debug_aranges
                0x0000000000001ae8       0x20 c:/intelfpga_lite/19.1/nios2eds/bin/gnu/h-x86_64-mingw32/bin/../lib/gcc/nios2-elf/8.3.1/../../../../../H-x86_64-mingw32/nios2-elf/lib\libc.a(lib_a-strcpy.o)
 .debug_aranges
                0x0000000000001b08       0x20 c:/intelfpga_lite/19.1/nios2eds/bin/gnu/h-x86_64-mingw32/bin/../lib/gcc/nios2-elf/8.3.1/../../../../../H-x86_64-mingw32/nios2-elf/lib\libc.a(lib_a-strncmp.o)
 .debug_aranges
                0x0000000000001b28       0x38 c:/intelfpga_lite/19.1/nios2eds/bin/gnu/h-x86_64-mingw32/bin/../lib/gcc/nios2-elf/8.3.1/../../../../../H-x86_64-mingw32/nios2-elf/lib\libc.a(lib_a-strtol.o)
 .debug_aranges
                0x0000000000001b60       0x20 c:/intelfpga_lite/19.1/nios2eds/bin/gnu/h-x86_64-mingw32/bin/../lib/gcc/nios2-elf/8.3.1/../../../../../H-x86_64-mingw32/nios2-elf/lib\libc.a(lib_a-svfprintf.o)
 .debug_aranges
                0x0000000000001b80       0x28 c:/intelfpga_lite/19.1/nios2eds/bin/gnu/h-x86_64-mingw32/bin/../lib/gcc/nios2-elf/8.3.1/../../../../../H-x86_64-mingw32/nios2-elf/lib\libc.a(lib_a-vprintf.o)
 .debug_aranges
                0x0000000000001ba8       0x28 c:/intelfpga_lite/19.1/nios2eds/bin/gnu/h-x86_64-mingw32/bin/../lib/gcc/nios2-elf/8.3.1/../../../../../H-x86_64-mingw32/nios2-elf/lib\libc.a(lib_a-vsprintf.o)
 .debug_aranges
                0x0000000000001bd0       0x20 c:/intelfpga_lite/19.1/nios2eds/bin/gnu/h-x86_64-mingw32/bin/../lib/gcc/nios2-elf/8.3.1/../../../../../H-x86_64-mingw32/nios2-elf/lib\libc.a(lib_a-__atexit.o)
 .debug_aranges
                0x0000000000001bf0       0x20 c:/intelfpga_lite/19.1/nios2eds/bin/gnu/h-x86_64-mingw32/bin/../lib/gcc/nios2-elf/8.3.1/../../../../../H-x86_64-mingw32/nios2-elf/lib\libc.a(lib_a-__call_atexit.o)
 .debug_aranges
                0x0000000000001c10       0x28 c:/intelfpga_lite/19.1/nios2eds/bin/gnu/h-x86_64-mingw32/bin/../lib/gcc/nios2-elf/8.3.1/../../../../../H-x86_64-mingw32/nios2-elf/lib\libc.a(lib_a-svfiprintf.o)
 .debug_aranges
                0x0000000000001c38       0x20 c:/intelfpga_lite/19.1/nios2eds/bin/gnu/h-x86_64-mingw32/bin/../lib/gcc/nios2-elf/8.3.1/../../../../../H-x86_64-mingw32/nios2-elf/lib\libc.a(lib_a-vfprintfr_1.o)
 .debug_aranges
                0x0000000000001c58       0x20 ../hit_pat_bsp\libucosii_bsp.a(alt_exit.o)

.debug_pubnames
 *(.debug_pubnames)

.debug_info     0x0000000000000000   0x10e51e
 *(.debug_info .gnu.linkonce.wi.*)
 .debug_info    0x0000000000000000       0x22 d:/hit20v3/software/hit_pat/software/hit_pat_bsp//obj/HAL/src/crt0.o
 .debug_info    0x0000000000000022     0x2983 obj/default/src/control.o
 .debug_info    0x00000000000029a5     0x2357 obj/default/src/main.o
 .debug_info    0x0000000000004cfc     0x26c5 obj/default/src/network_utilities.o
 .debug_info    0x00000000000073c1     0x232d obj/default/src/sensor.o
 .debug_info    0x00000000000096ee     0x2b66 obj/default/src/socket_server.o
 .debug_info    0x000000000000c254     0x1993 obj/default/src/tse_my_system.o
 .debug_info    0x000000000000dbe7     0x23a7 obj/default/src/udpgen.o
 .debug_info    0x000000000000ff8e     0x2538 obj/default/src/utils.o
 .debug_info    0x00000000000124c6      0xeb4 c:/intelfpga_lite/19.1/nios2eds/bin/gnu/h-x86_64-mingw32/bin/../lib/gcc/nios2-elf/8.3.1/../../../../../H-x86_64-mingw32/nios2-elf/lib\libc.a(lib_a-ctype_.o)
 .debug_info    0x000000000001337a      0xb8b c:/intelfpga_lite/19.1/nios2eds/bin/gnu/h-x86_64-mingw32/bin/../lib/gcc/nios2-elf/8.3.1/../../../../../H-x86_64-mingw32/nios2-elf/lib\libc.a(lib_a-getchar.o)
 .debug_info    0x0000000000013f05      0x933 c:/intelfpga_lite/19.1/nios2eds/bin/gnu/h-x86_64-mingw32/bin/../lib/gcc/nios2-elf/8.3.1/../../../../../H-x86_64-mingw32/nios2-elf/lib\libc.a(lib_a-impure.o)
 .debug_info    0x0000000000014838      0xc44 c:/intelfpga_lite/19.1/nios2eds/bin/gnu/h-x86_64-mingw32/bin/../lib/gcc/nios2-elf/8.3.1/../../../../../H-x86_64-mingw32/nios2-elf/lib\libc.a(lib_a-printf.o)
 .debug_info    0x000000000001547c      0xbbf c:/intelfpga_lite/19.1/nios2eds/bin/gnu/h-x86_64-mingw32/bin/../lib/gcc/nios2-elf/8.3.1/../../../../../H-x86_64-mingw32/nios2-elf/lib\libc.a(lib_a-putchar.o)
 .debug_info    0x000000000001603b      0xcea c:/intelfpga_lite/19.1/nios2eds/bin/gnu/h-x86_64-mingw32/bin/../lib/gcc/nios2-elf/8.3.1/../../../../../H-x86_64-mingw32/nios2-elf/lib\libc.a(lib_a-puts.o)
 .debug_info    0x0000000000016d25      0x97c c:/intelfpga_lite/19.1/nios2eds/bin/gnu/h-x86_64-mingw32/bin/../lib/gcc/nios2-elf/8.3.1/../../../../../H-x86_64-mingw32/nios2-elf/lib\libc.a(lib_a-strlen.o)
 .debug_info    0x00000000000176a1     0x2051 c:/intelfpga_lite/19.1/nios2eds/bin/gnu/h-x86_64-mingw32/bin/../lib/gcc/nios2-elf/8.3.1/../../../../../H-x86_64-mingw32/nios2-elf/lib\libc.a(lib_a-vfprintf.o)
 .debug_info    0x00000000000196f2      0xbfc c:/intelfpga_lite/19.1/nios2eds/bin/gnu/h-x86_64-mingw32/bin/../lib/gcc/nios2-elf/8.3.1/../../../../../H-x86_64-mingw32/nios2-elf/lib\libc.a(lib_a-wsetup.o)
 .debug_info    0x000000000001a2ee     0x1a04 c:/intelfpga_lite/19.1/nios2eds/bin/gnu/h-x86_64-mingw32/bin/../lib/gcc/nios2-elf/8.3.1/../../../../../H-x86_64-mingw32/nios2-elf/lib\libc.a(lib_a-dtoa.o)
 .debug_info    0x000000000001bcf2      0xd7e c:/intelfpga_lite/19.1/nios2eds/bin/gnu/h-x86_64-mingw32/bin/../lib/gcc/nios2-elf/8.3.1/../../../../../H-x86_64-mingw32/nios2-elf/lib\libc.a(lib_a-fflush.o)
 .debug_info    0x000000000001ca70     0x10c3 c:/intelfpga_lite/19.1/nios2eds/bin/gnu/h-x86_64-mingw32/bin/../lib/gcc/nios2-elf/8.3.1/../../../../../H-x86_64-mingw32/nios2-elf/lib\libc.a(lib_a-findfp.o)
 .debug_info    0x000000000001db33      0xda3 c:/intelfpga_lite/19.1/nios2eds/bin/gnu/h-x86_64-mingw32/bin/../lib/gcc/nios2-elf/8.3.1/../../../../../H-x86_64-mingw32/nios2-elf/lib\libc.a(lib_a-freer.o)
 .debug_info    0x000000000001e8d6      0xeee c:/intelfpga_lite/19.1/nios2eds/bin/gnu/h-x86_64-mingw32/bin/../lib/gcc/nios2-elf/8.3.1/../../../../../H-x86_64-mingw32/nios2-elf/lib\libc.a(lib_a-fvwrite.o)
 .debug_info    0x000000000001f7c4      0xcad c:/intelfpga_lite/19.1/nios2eds/bin/gnu/h-x86_64-mingw32/bin/../lib/gcc/nios2-elf/8.3.1/../../../../../H-x86_64-mingw32/nios2-elf/lib\libc.a(lib_a-fwalk.o)
 .debug_info    0x0000000000020471      0xc54 c:/intelfpga_lite/19.1/nios2eds/bin/gnu/h-x86_64-mingw32/bin/../lib/gcc/nios2-elf/8.3.1/../../../../../H-x86_64-mingw32/nios2-elf/lib\libc.a(lib_a-getc.o)
 .debug_info    0x00000000000210c5      0xf46 c:/intelfpga_lite/19.1/nios2eds/bin/gnu/h-x86_64-mingw32/bin/../lib/gcc/nios2-elf/8.3.1/../../../../../H-x86_64-mingw32/nios2-elf/lib\libc.a(lib_a-localeconv.o)
 .debug_info    0x000000000002200b      0xf87 c:/intelfpga_lite/19.1/nios2eds/bin/gnu/h-x86_64-mingw32/bin/../lib/gcc/nios2-elf/8.3.1/../../../../../H-x86_64-mingw32/nios2-elf/lib\libc.a(lib_a-makebuf.o)
 .debug_info    0x0000000000022f92      0xf22 c:/intelfpga_lite/19.1/nios2eds/bin/gnu/h-x86_64-mingw32/bin/../lib/gcc/nios2-elf/8.3.1/../../../../../H-x86_64-mingw32/nios2-elf/lib\libc.a(lib_a-mallocr.o)
 .debug_info    0x0000000000023eb4      0x9ec c:/intelfpga_lite/19.1/nios2eds/bin/gnu/h-x86_64-mingw32/bin/../lib/gcc/nios2-elf/8.3.1/../../../../../H-x86_64-mingw32/nios2-elf/lib\libc.a(lib_a-memchr.o)
 .debug_info    0x00000000000248a0      0xf44 c:/intelfpga_lite/19.1/nios2eds/bin/gnu/h-x86_64-mingw32/bin/../lib/gcc/nios2-elf/8.3.1/../../../../../H-x86_64-mingw32/nios2-elf/lib\libc.a(lib_a-memcpy.o)
 .debug_info    0x00000000000257e4      0xf3a c:/intelfpga_lite/19.1/nios2eds/bin/gnu/h-x86_64-mingw32/bin/../lib/gcc/nios2-elf/8.3.1/../../../../../H-x86_64-mingw32/nios2-elf/lib\libc.a(lib_a-memmove.o)
 .debug_info    0x000000000002671e      0xf2a c:/intelfpga_lite/19.1/nios2eds/bin/gnu/h-x86_64-mingw32/bin/../lib/gcc/nios2-elf/8.3.1/../../../../../H-x86_64-mingw32/nios2-elf/lib\libc.a(lib_a-memset.o)
 .debug_info    0x0000000000027648     0x205d c:/intelfpga_lite/19.1/nios2eds/bin/gnu/h-x86_64-mingw32/bin/../lib/gcc/nios2-elf/8.3.1/../../../../../H-x86_64-mingw32/nios2-elf/lib\libc.a(lib_a-mprec.o)
 .debug_info    0x00000000000296a5      0xc71 c:/intelfpga_lite/19.1/nios2eds/bin/gnu/h-x86_64-mingw32/bin/../lib/gcc/nios2-elf/8.3.1/../../../../../H-x86_64-mingw32/nios2-elf/lib\libc.a(lib_a-putc.o)
 .debug_info    0x000000000002a316      0xf4c c:/intelfpga_lite/19.1/nios2eds/bin/gnu/h-x86_64-mingw32/bin/../lib/gcc/nios2-elf/8.3.1/../../../../../H-x86_64-mingw32/nios2-elf/lib\libc.a(lib_a-reallocr.o)
 .debug_info    0x000000000002b262      0xc1b c:/intelfpga_lite/19.1/nios2eds/bin/gnu/h-x86_64-mingw32/bin/../lib/gcc/nios2-elf/8.3.1/../../../../../H-x86_64-mingw32/nios2-elf/lib\libc.a(lib_a-rget.o)
 .debug_info    0x000000000002be7d      0xa03 c:/intelfpga_lite/19.1/nios2eds/bin/gnu/h-x86_64-mingw32/bin/../lib/gcc/nios2-elf/8.3.1/../../../../../H-x86_64-mingw32/nios2-elf/lib\libc.a(lib_a-sbrkr.o)
 .debug_info    0x000000000002c880      0xe6a c:/intelfpga_lite/19.1/nios2eds/bin/gnu/h-x86_64-mingw32/bin/../lib/gcc/nios2-elf/8.3.1/../../../../../H-x86_64-mingw32/nios2-elf/lib\libc.a(lib_a-stdio.o)
 .debug_info    0x000000000002d6ea     0x1f7c c:/intelfpga_lite/19.1/nios2eds/bin/gnu/h-x86_64-mingw32/bin/../lib/gcc/nios2-elf/8.3.1/../../../../../H-x86_64-mingw32/nios2-elf/lib\libc.a(lib_a-vfiprintf.o)
 .debug_info    0x000000000002f666      0xc99 c:/intelfpga_lite/19.1/nios2eds/bin/gnu/h-x86_64-mingw32/bin/../lib/gcc/nios2-elf/8.3.1/../../../../../H-x86_64-mingw32/nios2-elf/lib\libc.a(lib_a-wbuf.o)
 .debug_info    0x00000000000302ff      0xa35 c:/intelfpga_lite/19.1/nios2eds/bin/gnu/h-x86_64-mingw32/bin/../lib/gcc/nios2-elf/8.3.1/../../../../../H-x86_64-mingw32/nios2-elf/lib\libc.a(lib_a-writer.o)
 .debug_info    0x0000000000030d34      0x9e0 c:/intelfpga_lite/19.1/nios2eds/bin/gnu/h-x86_64-mingw32/bin/../lib/gcc/nios2-elf/8.3.1/../../../../../H-x86_64-mingw32/nios2-elf/lib\libc.a(closer.o)
 .debug_info    0x0000000000031714      0xc36 c:/intelfpga_lite/19.1/nios2eds/bin/gnu/h-x86_64-mingw32/bin/../lib/gcc/nios2-elf/8.3.1/../../../../../H-x86_64-mingw32/nios2-elf/lib\libc.a(lib_a-callocr.o)
 .debug_info    0x000000000003234a      0xcde c:/intelfpga_lite/19.1/nios2eds/bin/gnu/h-x86_64-mingw32/bin/../lib/gcc/nios2-elf/8.3.1/../../../../../H-x86_64-mingw32/nios2-elf/lib\libc.a(lib_a-fclose.o)
 .debug_info    0x0000000000033028      0xdec c:/intelfpga_lite/19.1/nios2eds/bin/gnu/h-x86_64-mingw32/bin/../lib/gcc/nios2-elf/8.3.1/../../../../../H-x86_64-mingw32/nios2-elf/lib\libc.a(lib_a-fputwc.o)
 .debug_info    0x0000000000033e14      0xc2c c:/intelfpga_lite/19.1/nios2eds/bin/gnu/h-x86_64-mingw32/bin/../lib/gcc/nios2-elf/8.3.1/../../../../../H-x86_64-mingw32/nios2-elf/lib\libc.a(lib_a-fstatr.o)
 .debug_info    0x0000000000034a40      0x929 c:/intelfpga_lite/19.1/nios2eds/bin/gnu/h-x86_64-mingw32/bin/../lib/gcc/nios2-elf/8.3.1/../../../../../H-x86_64-mingw32/nios2-elf/lib\libc.a(lib_a-int_errno.o)
 .debug_info    0x0000000000035369      0x9e0 c:/intelfpga_lite/19.1/nios2eds/bin/gnu/h-x86_64-mingw32/bin/../lib/gcc/nios2-elf/8.3.1/../../../../../H-x86_64-mingw32/nios2-elf/lib\libc.a(lib_a-isattyr.o)
 .debug_info    0x0000000000035d49     0x10c4 c:/intelfpga_lite/19.1/nios2eds/bin/gnu/h-x86_64-mingw32/bin/../lib/gcc/nios2-elf/8.3.1/../../../../../H-x86_64-mingw32/nios2-elf/lib\libc.a(lib_a-locale.o)
 .debug_info    0x0000000000036e0d      0xa16 c:/intelfpga_lite/19.1/nios2eds/bin/gnu/h-x86_64-mingw32/bin/../lib/gcc/nios2-elf/8.3.1/../../../../../H-x86_64-mingw32/nios2-elf/lib\libc.a(lib_a-lseekr.o)
 .debug_info    0x0000000000037823     0x103e c:/intelfpga_lite/19.1/nios2eds/bin/gnu/h-x86_64-mingw32/bin/../lib/gcc/nios2-elf/8.3.1/../../../../../H-x86_64-mingw32/nios2-elf/lib\libc.a(lib_a-mbtowc_r.o)
 .debug_info    0x0000000000038861      0xa2e c:/intelfpga_lite/19.1/nios2eds/bin/gnu/h-x86_64-mingw32/bin/../lib/gcc/nios2-elf/8.3.1/../../../../../H-x86_64-mingw32/nios2-elf/lib\libc.a(lib_a-readr.o)
 .debug_info    0x000000000003928f      0xcdd c:/intelfpga_lite/19.1/nios2eds/bin/gnu/h-x86_64-mingw32/bin/../lib/gcc/nios2-elf/8.3.1/../../../../../H-x86_64-mingw32/nios2-elf/lib\libc.a(lib_a-refill.o)
 .debug_info    0x0000000000039f6c      0x980 c:/intelfpga_lite/19.1/nios2eds/bin/gnu/h-x86_64-mingw32/bin/../lib/gcc/nios2-elf/8.3.1/../../../../../H-x86_64-mingw32/nios2-elf/lib\libc.a(lib_a-strcmp.o)
 .debug_info    0x000000000003a8ec     0x10ac c:/intelfpga_lite/19.1/nios2eds/bin/gnu/h-x86_64-mingw32/bin/../lib/gcc/nios2-elf/8.3.1/../../../../../H-x86_64-mingw32/nios2-elf/lib\libc.a(lib_a-wcrtomb.o)
 .debug_info    0x000000000003b998      0xffa c:/intelfpga_lite/19.1/nios2eds/bin/gnu/h-x86_64-mingw32/bin/../lib/gcc/nios2-elf/8.3.1/../../../../../H-x86_64-mingw32/nios2-elf/lib\libc.a(lib_a-wctomb_r.o)
 .debug_info    0x000000000003c992      0x91e c:/intelfpga_lite/19.1/nios2eds/bin/gnu/h-x86_64-mingw32/bin/../lib/gcc/nios2-elf/8.3.1\libgcc.a(_udivdi3.o)
 .debug_info    0x000000000003d2b0      0x98e c:/intelfpga_lite/19.1/nios2eds/bin/gnu/h-x86_64-mingw32/bin/../lib/gcc/nios2-elf/8.3.1\libgcc.a(_umoddi3.o)
 .debug_info    0x000000000003dc3e      0x368 c:/intelfpga_lite/19.1/nios2eds/bin/gnu/h-x86_64-mingw32/bin/../lib/gcc/nios2-elf/8.3.1\libgcc.a(lib2-divmod.o)
 .debug_info    0x000000000003dfa6      0x641 c:/intelfpga_lite/19.1/nios2eds/bin/gnu/h-x86_64-mingw32/bin/../lib/gcc/nios2-elf/8.3.1\libgcc.a(adddf3.o)
 .debug_info    0x000000000003e5e7      0x824 c:/intelfpga_lite/19.1/nios2eds/bin/gnu/h-x86_64-mingw32/bin/../lib/gcc/nios2-elf/8.3.1\libgcc.a(divdf3.o)
 .debug_info    0x000000000003ee0b      0x29f c:/intelfpga_lite/19.1/nios2eds/bin/gnu/h-x86_64-mingw32/bin/../lib/gcc/nios2-elf/8.3.1\libgcc.a(eqdf2.o)
 .debug_info    0x000000000003f0aa      0x2a7 c:/intelfpga_lite/19.1/nios2eds/bin/gnu/h-x86_64-mingw32/bin/../lib/gcc/nios2-elf/8.3.1\libgcc.a(gedf2.o)
 .debug_info    0x000000000003f351      0x2a7 c:/intelfpga_lite/19.1/nios2eds/bin/gnu/h-x86_64-mingw32/bin/../lib/gcc/nios2-elf/8.3.1\libgcc.a(ledf2.o)
 .debug_info    0x000000000003f5f8      0x858 c:/intelfpga_lite/19.1/nios2eds/bin/gnu/h-x86_64-mingw32/bin/../lib/gcc/nios2-elf/8.3.1\libgcc.a(muldf3.o)
 .debug_info    0x000000000003fe50      0x641 c:/intelfpga_lite/19.1/nios2eds/bin/gnu/h-x86_64-mingw32/bin/../lib/gcc/nios2-elf/8.3.1\libgcc.a(subdf3.o)
 .debug_info    0x0000000000040491      0x277 c:/intelfpga_lite/19.1/nios2eds/bin/gnu/h-x86_64-mingw32/bin/../lib/gcc/nios2-elf/8.3.1\libgcc.a(unorddf2.o)
 .debug_info    0x0000000000040708      0x222 c:/intelfpga_lite/19.1/nios2eds/bin/gnu/h-x86_64-mingw32/bin/../lib/gcc/nios2-elf/8.3.1\libgcc.a(fixdfsi.o)
 .debug_info    0x000000000004092a      0x2e4 c:/intelfpga_lite/19.1/nios2eds/bin/gnu/h-x86_64-mingw32/bin/../lib/gcc/nios2-elf/8.3.1\libgcc.a(floatsidf.o)
 .debug_info    0x0000000000040c0e      0x2d7 c:/intelfpga_lite/19.1/nios2eds/bin/gnu/h-x86_64-mingw32/bin/../lib/gcc/nios2-elf/8.3.1\libgcc.a(floatunsidf.o)
 .debug_info    0x0000000000040ee5      0x179 c:/intelfpga_lite/19.1/nios2eds/bin/gnu/h-x86_64-mingw32/bin/../lib/gcc/nios2-elf/8.3.1\libgcc.a(_clz.o)
 .debug_info    0x000000000004105e      0x1ea c:/intelfpga_lite/19.1/nios2eds/bin/gnu/h-x86_64-mingw32/bin/../lib/gcc/nios2-elf/8.3.1\libgcc.a(_clzsi2.o)
 .debug_info    0x0000000000041248     0x15cc ../hit_pat_bsp\libucosii_bsp.a(alt_flash_dev.o)
 .debug_info    0x0000000000042814     0x1559 ../hit_pat_bsp\libucosii_bsp.a(alt_fstat.o)
 .debug_info    0x0000000000043d6d     0x155c ../hit_pat_bsp\libucosii_bsp.a(alt_isatty.o)
 .debug_info    0x00000000000452c9     0x13b7 ../hit_pat_bsp\libucosii_bsp.a(alt_lseek.o)
 .debug_info    0x0000000000046680     0x15e9 ../hit_pat_bsp\libucosii_bsp.a(alt_main.o)
 .debug_info    0x0000000000047c69      0xa72 ../hit_pat_bsp\libucosii_bsp.a(alt_sbrk.o)
 .debug_info    0x00000000000486db     0x1194 ../hit_pat_bsp\libucosii_bsp.a(alt_env_lock.o)
 .debug_info    0x000000000004986f     0x12cd ../hit_pat_bsp\libucosii_bsp.a(alt_malloc_lock.o)
 .debug_info    0x000000000004ab3c     0x1d83 ../hit_pat_bsp\libucosii_bsp.a(os_core.o)
 .debug_info    0x000000000004c8bf     0x1bee ../hit_pat_bsp\libucosii_bsp.a(os_flag.o)
 .debug_info    0x000000000004e4ad     0x1545 ../hit_pat_bsp\libucosii_bsp.a(os_mem.o)
 .debug_info    0x000000000004f9f2     0x172a ../hit_pat_bsp\libucosii_bsp.a(os_mutex.o)
 .debug_info    0x000000000005111c     0x19ba ../hit_pat_bsp\libucosii_bsp.a(os_q.o)
 .debug_info    0x0000000000052ad6     0x16a5 ../hit_pat_bsp\libucosii_bsp.a(os_sem.o)
 .debug_info    0x000000000005417b     0x1bff ../hit_pat_bsp\libucosii_bsp.a(os_task.o)
 .debug_info    0x0000000000055d7a     0x1342 ../hit_pat_bsp\libucosii_bsp.a(os_time.o)
 .debug_info    0x00000000000570bc     0x2b6c ../hit_pat_bsp\libucosii_bsp.a(alt_sys_init.o)
 .debug_info    0x0000000000059c28      0xb12 ../hit_pat_bsp\libucosii_bsp.a(altera_avalon_timer_sc.o)
 .debug_info    0x000000000005a73a     0x3896 ../hit_pat_bsp\libucosii_bsp.a(altera_avalon_tse.o)
 .debug_info    0x000000000005dfd0     0x1445 ../hit_pat_bsp\libucosii_bsp.a(altera_avalon_uart_fd.o)
 .debug_info    0x000000000005f415     0x14ce ../hit_pat_bsp\libucosii_bsp.a(altera_avalon_uart_init.o)
 .debug_info    0x00000000000608e3     0x1444 ../hit_pat_bsp\libucosii_bsp.a(altera_avalon_uart_read.o)
 .debug_info    0x0000000000061d27     0x1444 ../hit_pat_bsp\libucosii_bsp.a(altera_avalon_uart_write.o)
 .debug_info    0x000000000006316b     0x1221 ../hit_pat_bsp\libucosii_bsp.a(altera_generic_quad_spi_controller.o)
 .debug_info    0x000000000006438c     0x2b11 ../hit_pat_bsp\libucosii_bsp.a(altera_msgdma.o)
 .debug_info    0x0000000000066e9d     0x12ae ../hit_pat_bsp\libucosii_bsp.a(altera_onchip_flash.o)
 .debug_info    0x000000000006814b     0x37bd ../hit_pat_bsp\libucosii_bsp.a(ins_tse_mac.o)
 .debug_info    0x000000000006b908     0x1fc1 ../hit_pat_bsp\libucosii_bsp.a(alt_iniche_close.o)
 .debug_info    0x000000000006d8c9     0x20df ../hit_pat_bsp\libucosii_bsp.a(alt_iniche_dev.o)
 .debug_info    0x000000000006f9a8     0x1feb ../hit_pat_bsp\libucosii_bsp.a(alt_iniche_read.o)
 .debug_info    0x0000000000071993     0x1ff2 ../hit_pat_bsp\libucosii_bsp.a(alt_iniche_write.o)
 .debug_info    0x0000000000073985     0x245c ../hit_pat_bsp\libucosii_bsp.a(et_arp.o)
 .debug_info    0x0000000000075de1     0x2244 ../hit_pat_bsp\libucosii_bsp.a(iface.o)
 .debug_info    0x0000000000078025     0x1ecb ../hit_pat_bsp\libucosii_bsp.a(ipnet.o)
 .debug_info    0x0000000000079ef0     0x21de ../hit_pat_bsp\libucosii_bsp.a(ipstart.o)
 .debug_info    0x000000000007c0ce     0x266b ../hit_pat_bsp\libucosii_bsp.a(igmp_cmn.o)
 .debug_info    0x000000000007e739     0x2604 ../hit_pat_bsp\libucosii_bsp.a(bsdsock.o)
 .debug_info    0x0000000000080d3d     0x123a ../hit_pat_bsp\libucosii_bsp.a(cksum.o)
 .debug_info    0x0000000000081f77     0x2524 ../hit_pat_bsp\libucosii_bsp.a(in_utils.o)
 .debug_info    0x000000000008449b     0x23b5 ../hit_pat_bsp\libucosii_bsp.a(netmain.o)
 .debug_info    0x0000000000086850     0x24f3 ../hit_pat_bsp\libucosii_bsp.a(tk_crnos.o)
 .debug_info    0x0000000000088d43     0x1fcc ../hit_pat_bsp\libucosii_bsp.a(ping.o)
 .debug_info    0x000000000008ad0f     0x1e55 ../hit_pat_bsp\libucosii_bsp.a(pktalloc.o)
 .debug_info    0x000000000008cb64     0x12cb ../hit_pat_bsp\libucosii_bsp.a(q.o)
 .debug_info    0x000000000008de2f       0x26 ../hit_pat_bsp\libucosii_bsp.a(asm_cksum.o)
 .debug_info    0x000000000008de55     0x1355 ../hit_pat_bsp\libucosii_bsp.a(brdutils.o)
 .debug_info    0x000000000008f1aa     0x259b ../hit_pat_bsp\libucosii_bsp.a(osportco.o)
 .debug_info    0x0000000000091745     0x2c0e ../hit_pat_bsp\libucosii_bsp.a(targnios.o)
 .debug_info    0x0000000000094353     0x3247 ../hit_pat_bsp\libucosii_bsp.a(nptcp.o)
 .debug_info    0x000000000009759a     0x22ef ../hit_pat_bsp\libucosii_bsp.a(rawsock.o)
 .debug_info    0x0000000000099889     0x31a8 ../hit_pat_bsp\libucosii_bsp.a(sockcall.o)
 .debug_info    0x000000000009ca31     0x2df5 ../hit_pat_bsp\libucosii_bsp.a(socket.o)
 .debug_info    0x000000000009f826     0x2654 ../hit_pat_bsp\libucosii_bsp.a(socket2.o)
 .debug_info    0x00000000000a1e7a     0x247f ../hit_pat_bsp\libucosii_bsp.a(soselect.o)
 .debug_info    0x00000000000a42f9     0x2d94 ../hit_pat_bsp\libucosii_bsp.a(tcp_in.o)
 .debug_info    0x00000000000a708d     0x2a64 ../hit_pat_bsp\libucosii_bsp.a(tcp_out.o)
 .debug_info    0x00000000000a9af1     0x2b91 ../hit_pat_bsp\libucosii_bsp.a(tcp_subr.o)
 .debug_info    0x00000000000ac682     0x291c ../hit_pat_bsp\libucosii_bsp.a(tcp_timr.o)
 .debug_info    0x00000000000aef9e     0x2994 ../hit_pat_bsp\libucosii_bsp.a(tcp_usr.o)
 .debug_info    0x00000000000b1932     0x20f0 ../hit_pat_bsp\libucosii_bsp.a(tcpport.o)
 .debug_info    0x00000000000b3a22     0x2510 ../hit_pat_bsp\libucosii_bsp.a(udpsock.o)
 .debug_info    0x00000000000b5f32      0x96f ../hit_pat_bsp\libucosii_bsp.a(alt_busy_sleep.o)
 .debug_info    0x00000000000b68a1     0x1382 ../hit_pat_bsp\libucosii_bsp.a(alt_close.o)
 .debug_info    0x00000000000b7c23      0x978 ../hit_pat_bsp\libucosii_bsp.a(alt_dcache_flush.o)
 .debug_info    0x00000000000b859b     0x15c3 ../hit_pat_bsp\libucosii_bsp.a(alt_dev.o)
 .debug_info    0x00000000000b9b5e      0xa6b ../hit_pat_bsp\libucosii_bsp.a(alt_dev_llist_insert.o)
 .debug_info    0x00000000000ba5c9       0x88 ../hit_pat_bsp\libucosii_bsp.a(alt_do_ctors.o)
 .debug_info    0x00000000000ba651       0x88 ../hit_pat_bsp\libucosii_bsp.a(alt_do_dtors.o)
 .debug_info    0x00000000000ba6d9      0x96f ../hit_pat_bsp\libucosii_bsp.a(alt_errno.o)
 .debug_info    0x00000000000bb048     0x1301 ../hit_pat_bsp\libucosii_bsp.a(alt_find_dev.o)
 .debug_info    0x00000000000bc349      0xc18 ../hit_pat_bsp\libucosii_bsp.a(alt_iic.o)
 .debug_info    0x00000000000bcf61      0xabe ../hit_pat_bsp\libucosii_bsp.a(alt_iic_isr_register.o)
 .debug_info    0x00000000000bda1f     0x15c3 ../hit_pat_bsp\libucosii_bsp.a(alt_io_redirect.o)
 .debug_info    0x00000000000befe2       0x22 ../hit_pat_bsp\libucosii_bsp.a(alt_irq_entry.o)
 .debug_info    0x00000000000bf004     0x11ac ../hit_pat_bsp\libucosii_bsp.a(alt_irq_handler.o)
 .debug_info    0x00000000000c01b0       0x8b ../hit_pat_bsp\libucosii_bsp.a(alt_irq_vars.o)
 .debug_info    0x00000000000c023b     0x13b5 ../hit_pat_bsp\libucosii_bsp.a(alt_open.o)
 .debug_info    0x00000000000c15f0      0x125 ../hit_pat_bsp\libucosii_bsp.a(alt_printf.o)
 .debug_info    0x00000000000c1715      0x937 ../hit_pat_bsp\libucosii_bsp.a(alt_putchar.o)
 .debug_info    0x00000000000c204c     0x15d2 ../hit_pat_bsp\libucosii_bsp.a(alt_read.o)
 .debug_info    0x00000000000c361e     0x12cf ../hit_pat_bsp\libucosii_bsp.a(alt_release_fd.o)
 .debug_info    0x00000000000c48ed      0x96b ../hit_pat_bsp\libucosii_bsp.a(alt_remap_cached.o)
 .debug_info    0x00000000000c5258     0x1287 ../hit_pat_bsp\libucosii_bsp.a(alt_tick.o)
 .debug_info    0x00000000000c64df      0x958 ../hit_pat_bsp\libucosii_bsp.a(alt_uncached_free.o)
 .debug_info    0x00000000000c6e37      0x99a ../hit_pat_bsp\libucosii_bsp.a(alt_uncached_malloc.o)
 .debug_info    0x00000000000c77d1     0x115d ../hit_pat_bsp\libucosii_bsp.a(alt_usleep.o)
 .debug_info    0x00000000000c892e     0x15d9 ../hit_pat_bsp\libucosii_bsp.a(alt_write.o)
 .debug_info    0x00000000000c9f07      0x952 ../hit_pat_bsp\libucosii_bsp.a(altera_nios2_gen2_irq.o)
 .debug_info    0x00000000000ca859       0x26 ../hit_pat_bsp\libucosii_bsp.a(os_cpu_a.o)
 .debug_info    0x00000000000ca87f     0x1218 ../hit_pat_bsp\libucosii_bsp.a(os_cpu_c.o)
 .debug_info    0x00000000000cba97     0x249a ../hit_pat_bsp\libucosii_bsp.a(allports.o)
 .debug_info    0x00000000000cdf31     0x1ea6 ../hit_pat_bsp\libucosii_bsp.a(timeouts.o)
 .debug_info    0x00000000000cfdd7     0x2310 ../hit_pat_bsp\libucosii_bsp.a(tk_misc.o)
 .debug_info    0x00000000000d20e7     0x200e ../hit_pat_bsp\libucosii_bsp.a(alt_iniche_fcntl.o)
 .debug_info    0x00000000000d40f5     0x224d ../hit_pat_bsp\libucosii_bsp.a(icmp.o)
 .debug_info    0x00000000000d6342     0x23c3 ../hit_pat_bsp\libucosii_bsp.a(ip.o)
 .debug_info    0x00000000000d8705     0x2173 ../hit_pat_bsp\libucosii_bsp.a(ipdemux.o)
 .debug_info    0x00000000000da878     0x1d47 ../hit_pat_bsp\libucosii_bsp.a(ipmc.o)
 .debug_info    0x00000000000dc5bf     0x1cd7 ../hit_pat_bsp\libucosii_bsp.a(ipport.o)
 .debug_info    0x00000000000de296     0x1ed6 ../hit_pat_bsp\libucosii_bsp.a(ipraw.o)
 .debug_info    0x00000000000e016c     0x1df9 ../hit_pat_bsp\libucosii_bsp.a(iproute.o)
 .debug_info    0x00000000000e1f65     0x2655 ../hit_pat_bsp\libucosii_bsp.a(udp.o)
 .debug_info    0x00000000000e45ba     0x23c7 ../hit_pat_bsp\libucosii_bsp.a(igmp.o)
 .debug_info    0x00000000000e6981     0x2560 ../hit_pat_bsp\libucosii_bsp.a(igmp2.o)
 .debug_info    0x00000000000e8ee1     0x22eb ../hit_pat_bsp\libucosii_bsp.a(ipopt.o)
 .debug_info    0x00000000000eb1cc     0x226f ../hit_pat_bsp\libucosii_bsp.a(u_mctest.o)
 .debug_info    0x00000000000ed43b     0x16c2 ../hit_pat_bsp\libucosii_bsp.a(memdev.o)
 .debug_info    0x00000000000eeafd     0x20c5 ../hit_pat_bsp\libucosii_bsp.a(parseip.o)
 .debug_info    0x00000000000f0bc2     0x2158 ../hit_pat_bsp\libucosii_bsp.a(tcpcksum.o)
 .debug_info    0x00000000000f2d1a     0x1dfd ../hit_pat_bsp\libucosii_bsp.a(udp_open.o)
 .debug_info    0x00000000000f4b17     0x2484 ../hit_pat_bsp\libucosii_bsp.a(in_pcb.o)
 .debug_info    0x00000000000f6f9b     0x1f13 ../hit_pat_bsp\libucosii_bsp.a(vfsfiles.o)
 .debug_info    0x00000000000f8eae     0x145b ../hit_pat_bsp\libucosii_bsp.a(vfsport.o)
 .debug_info    0x00000000000fa309       0x22 ../hit_pat_bsp\libucosii_bsp.a(alt_exception_entry.o)
 .debug_info    0x00000000000fa32b     0x15e5 ../hit_pat_bsp\libucosii_bsp.a(alt_fcntl.o)
 .debug_info    0x00000000000fb910     0x12f2 ../hit_pat_bsp\libucosii_bsp.a(alt_find_file.o)
 .debug_info    0x00000000000fcc02     0x1364 ../hit_pat_bsp\libucosii_bsp.a(alt_get_fd.o)
 .debug_info    0x00000000000fdf66      0x1f1 ../hit_pat_bsp\libucosii_bsp.a(alt_instruction_exception_entry.o)
 .debug_info    0x00000000000fe157      0x99e c:/intelfpga_lite/19.1/nios2eds/bin/gnu/h-x86_64-mingw32/bin/../lib/gcc/nios2-elf/8.3.1/../../../../../H-x86_64-mingw32/nios2-elf/lib\libc.a(lib_a-atexit.o)
 .debug_info    0x00000000000feaf5      0x9e2 c:/intelfpga_lite/19.1/nios2eds/bin/gnu/h-x86_64-mingw32/bin/../lib/gcc/nios2-elf/8.3.1/../../../../../H-x86_64-mingw32/nios2-elf/lib\libc.a(lib_a-atoi.o)
 .debug_info    0x00000000000ff4d7      0x9d9 c:/intelfpga_lite/19.1/nios2eds/bin/gnu/h-x86_64-mingw32/bin/../lib/gcc/nios2-elf/8.3.1/../../../../../H-x86_64-mingw32/nios2-elf/lib\libc.a(lib_a-exit.o)
 .debug_info    0x00000000000ffeb0      0x992 c:/intelfpga_lite/19.1/nios2eds/bin/gnu/h-x86_64-mingw32/bin/../lib/gcc/nios2-elf/8.3.1/../../../../../H-x86_64-mingw32/nios2-elf/lib\libc.a(lib_a-malign.o)
 .debug_info    0x0000000000100842      0xcd3 c:/intelfpga_lite/19.1/nios2eds/bin/gnu/h-x86_64-mingw32/bin/../lib/gcc/nios2-elf/8.3.1/../../../../../H-x86_64-mingw32/nios2-elf/lib\libc.a(lib_a-malignr.o)
 .debug_info    0x0000000000101515      0x9bf c:/intelfpga_lite/19.1/nios2eds/bin/gnu/h-x86_64-mingw32/bin/../lib/gcc/nios2-elf/8.3.1/../../../../../H-x86_64-mingw32/nios2-elf/lib\libc.a(lib_a-malloc.o)
 .debug_info    0x0000000000101ed4      0x9cb c:/intelfpga_lite/19.1/nios2eds/bin/gnu/h-x86_64-mingw32/bin/../lib/gcc/nios2-elf/8.3.1/../../../../../H-x86_64-mingw32/nios2-elf/lib\libc.a(lib_a-memcmp.o)
 .debug_info    0x000000000010289f      0xcc0 c:/intelfpga_lite/19.1/nios2eds/bin/gnu/h-x86_64-mingw32/bin/../lib/gcc/nios2-elf/8.3.1/../../../../../H-x86_64-mingw32/nios2-elf/lib\libc.a(lib_a-sprintf.o)
 .debug_info    0x000000000010355f      0x9c2 c:/intelfpga_lite/19.1/nios2eds/bin/gnu/h-x86_64-mingw32/bin/../lib/gcc/nios2-elf/8.3.1/../../../../../H-x86_64-mingw32/nios2-elf/lib\libc.a(lib_a-strchr.o)
 .debug_info    0x0000000000103f21      0x9b7 c:/intelfpga_lite/19.1/nios2eds/bin/gnu/h-x86_64-mingw32/bin/../lib/gcc/nios2-elf/8.3.1/../../../../../H-x86_64-mingw32/nios2-elf/lib\libc.a(lib_a-strcpy.o)
 .debug_info    0x00000000001048d8      0x99e c:/intelfpga_lite/19.1/nios2eds/bin/gnu/h-x86_64-mingw32/bin/../lib/gcc/nios2-elf/8.3.1/../../../../../H-x86_64-mingw32/nios2-elf/lib\libc.a(lib_a-strncmp.o)
 .debug_info    0x0000000000105276     0x11f7 c:/intelfpga_lite/19.1/nios2eds/bin/gnu/h-x86_64-mingw32/bin/../lib/gcc/nios2-elf/8.3.1/../../../../../H-x86_64-mingw32/nios2-elf/lib\libc.a(lib_a-strtol.o)
 .debug_info    0x000000000010646d     0x1e67 c:/intelfpga_lite/19.1/nios2eds/bin/gnu/h-x86_64-mingw32/bin/../lib/gcc/nios2-elf/8.3.1/../../../../../H-x86_64-mingw32/nios2-elf/lib\libc.a(lib_a-svfprintf.o)
 .debug_info    0x00000000001082d4      0xc19 c:/intelfpga_lite/19.1/nios2eds/bin/gnu/h-x86_64-mingw32/bin/../lib/gcc/nios2-elf/8.3.1/../../../../../H-x86_64-mingw32/nios2-elf/lib\libc.a(lib_a-vprintf.o)
 .debug_info    0x0000000000108eed      0xc7e c:/intelfpga_lite/19.1/nios2eds/bin/gnu/h-x86_64-mingw32/bin/../lib/gcc/nios2-elf/8.3.1/../../../../../H-x86_64-mingw32/nios2-elf/lib\libc.a(lib_a-vsprintf.o)
 .debug_info    0x0000000000109b6b      0x9d8 c:/intelfpga_lite/19.1/nios2eds/bin/gnu/h-x86_64-mingw32/bin/../lib/gcc/nios2-elf/8.3.1/../../../../../H-x86_64-mingw32/nios2-elf/lib\libc.a(lib_a-__atexit.o)
 .debug_info    0x000000000010a543      0xa14 c:/intelfpga_lite/19.1/nios2eds/bin/gnu/h-x86_64-mingw32/bin/../lib/gcc/nios2-elf/8.3.1/../../../../../H-x86_64-mingw32/nios2-elf/lib\libc.a(lib_a-__call_atexit.o)
 .debug_info    0x000000000010af57     0x18ce c:/intelfpga_lite/19.1/nios2eds/bin/gnu/h-x86_64-mingw32/bin/../lib/gcc/nios2-elf/8.3.1/../../../../../H-x86_64-mingw32/nios2-elf/lib\libc.a(lib_a-svfiprintf.o)
 .debug_info    0x000000000010c825      0xbdd c:/intelfpga_lite/19.1/nios2eds/bin/gnu/h-x86_64-mingw32/bin/../lib/gcc/nios2-elf/8.3.1/../../../../../H-x86_64-mingw32/nios2-elf/lib\libc.a(lib_a-vfprintfr_1.o)
 .debug_info    0x000000000010d402     0x111c ../hit_pat_bsp\libucosii_bsp.a(alt_exit.o)

.debug_abbrev   0x0000000000000000    0x21537
 *(.debug_abbrev)
 .debug_abbrev  0x0000000000000000       0x12 d:/hit20v3/software/hit_pat/software/hit_pat_bsp//obj/HAL/src/crt0.o
 .debug_abbrev  0x0000000000000012      0x376 obj/default/src/control.o
 .debug_abbrev  0x0000000000000388      0x285 obj/default/src/main.o
 .debug_abbrev  0x000000000000060d      0x375 obj/default/src/network_utilities.o
 .debug_abbrev  0x0000000000000982      0x270 obj/default/src/sensor.o
 .debug_abbrev  0x0000000000000bf2      0x37c obj/default/src/socket_server.o
 .debug_abbrev  0x0000000000000f6e      0x1ea obj/default/src/tse_my_system.o
 .debug_abbrev  0x0000000000001158      0x295 obj/default/src/udpgen.o
 .debug_abbrev  0x00000000000013ed      0x2d1 obj/default/src/utils.o
 .debug_abbrev  0x00000000000016be      0x1d6 c:/intelfpga_lite/19.1/nios2eds/bin/gnu/h-x86_64-mingw32/bin/../lib/gcc/nios2-elf/8.3.1/../../../../../H-x86_64-mingw32/nios2-elf/lib\libc.a(lib_a-ctype_.o)
 .debug_abbrev  0x0000000000001894      0x28a c:/intelfpga_lite/19.1/nios2eds/bin/gnu/h-x86_64-mingw32/bin/../lib/gcc/nios2-elf/8.3.1/../../../../../H-x86_64-mingw32/nios2-elf/lib\libc.a(lib_a-getchar.o)
 .debug_abbrev  0x0000000000001b1e      0x1c9 c:/intelfpga_lite/19.1/nios2eds/bin/gnu/h-x86_64-mingw32/bin/../lib/gcc/nios2-elf/8.3.1/../../../../../H-x86_64-mingw32/nios2-elf/lib\libc.a(lib_a-impure.o)
 .debug_abbrev  0x0000000000001ce7      0x29d c:/intelfpga_lite/19.1/nios2eds/bin/gnu/h-x86_64-mingw32/bin/../lib/gcc/nios2-elf/8.3.1/../../../../../H-x86_64-mingw32/nios2-elf/lib\libc.a(lib_a-printf.o)
 .debug_abbrev  0x0000000000001f84      0x25e c:/intelfpga_lite/19.1/nios2eds/bin/gnu/h-x86_64-mingw32/bin/../lib/gcc/nios2-elf/8.3.1/../../../../../H-x86_64-mingw32/nios2-elf/lib\libc.a(lib_a-putchar.o)
 .debug_abbrev  0x00000000000021e2      0x2ba c:/intelfpga_lite/19.1/nios2eds/bin/gnu/h-x86_64-mingw32/bin/../lib/gcc/nios2-elf/8.3.1/../../../../../H-x86_64-mingw32/nios2-elf/lib\libc.a(lib_a-puts.o)
 .debug_abbrev  0x000000000000249c      0x1f9 c:/intelfpga_lite/19.1/nios2eds/bin/gnu/h-x86_64-mingw32/bin/../lib/gcc/nios2-elf/8.3.1/../../../../../H-x86_64-mingw32/nios2-elf/lib\libc.a(lib_a-strlen.o)
 .debug_abbrev  0x0000000000002695      0x464 c:/intelfpga_lite/19.1/nios2eds/bin/gnu/h-x86_64-mingw32/bin/../lib/gcc/nios2-elf/8.3.1/../../../../../H-x86_64-mingw32/nios2-elf/lib\libc.a(lib_a-vfprintf.o)
 .debug_abbrev  0x0000000000002af9      0x294 c:/intelfpga_lite/19.1/nios2eds/bin/gnu/h-x86_64-mingw32/bin/../lib/gcc/nios2-elf/8.3.1/../../../../../H-x86_64-mingw32/nios2-elf/lib\libc.a(lib_a-wsetup.o)
 .debug_abbrev  0x0000000000002d8d      0x342 c:/intelfpga_lite/19.1/nios2eds/bin/gnu/h-x86_64-mingw32/bin/../lib/gcc/nios2-elf/8.3.1/../../../../../H-x86_64-mingw32/nios2-elf/lib\libc.a(lib_a-dtoa.o)
 .debug_abbrev  0x00000000000030cf      0x322 c:/intelfpga_lite/19.1/nios2eds/bin/gnu/h-x86_64-mingw32/bin/../lib/gcc/nios2-elf/8.3.1/../../../../../H-x86_64-mingw32/nios2-elf/lib\libc.a(lib_a-fflush.o)
 .debug_abbrev  0x00000000000033f1      0x457 c:/intelfpga_lite/19.1/nios2eds/bin/gnu/h-x86_64-mingw32/bin/../lib/gcc/nios2-elf/8.3.1/../../../../../H-x86_64-mingw32/nios2-elf/lib\libc.a(lib_a-findfp.o)
 .debug_abbrev  0x0000000000003848      0x2c9 c:/intelfpga_lite/19.1/nios2eds/bin/gnu/h-x86_64-mingw32/bin/../lib/gcc/nios2-elf/8.3.1/../../../../../H-x86_64-mingw32/nios2-elf/lib\libc.a(lib_a-freer.o)
 .debug_abbrev  0x0000000000003b11      0x2cd c:/intelfpga_lite/19.1/nios2eds/bin/gnu/h-x86_64-mingw32/bin/../lib/gcc/nios2-elf/8.3.1/../../../../../H-x86_64-mingw32/nios2-elf/lib\libc.a(lib_a-fvwrite.o)
 .debug_abbrev  0x0000000000003dde      0x25f c:/intelfpga_lite/19.1/nios2eds/bin/gnu/h-x86_64-mingw32/bin/../lib/gcc/nios2-elf/8.3.1/../../../../../H-x86_64-mingw32/nios2-elf/lib\libc.a(lib_a-fwalk.o)
 .debug_abbrev  0x000000000000403d      0x2ae c:/intelfpga_lite/19.1/nios2eds/bin/gnu/h-x86_64-mingw32/bin/../lib/gcc/nios2-elf/8.3.1/../../../../../H-x86_64-mingw32/nios2-elf/lib\libc.a(lib_a-getc.o)
 .debug_abbrev  0x00000000000042eb      0x288 c:/intelfpga_lite/19.1/nios2eds/bin/gnu/h-x86_64-mingw32/bin/../lib/gcc/nios2-elf/8.3.1/../../../../../H-x86_64-mingw32/nios2-elf/lib\libc.a(lib_a-localeconv.o)
 .debug_abbrev  0x0000000000004573      0x349 c:/intelfpga_lite/19.1/nios2eds/bin/gnu/h-x86_64-mingw32/bin/../lib/gcc/nios2-elf/8.3.1/../../../../../H-x86_64-mingw32/nios2-elf/lib\libc.a(lib_a-makebuf.o)
 .debug_abbrev  0x00000000000048bc      0x321 c:/intelfpga_lite/19.1/nios2eds/bin/gnu/h-x86_64-mingw32/bin/../lib/gcc/nios2-elf/8.3.1/../../../../../H-x86_64-mingw32/nios2-elf/lib\libc.a(lib_a-mallocr.o)
 .debug_abbrev  0x0000000000004bdd      0x226 c:/intelfpga_lite/19.1/nios2eds/bin/gnu/h-x86_64-mingw32/bin/../lib/gcc/nios2-elf/8.3.1/../../../../../H-x86_64-mingw32/nios2-elf/lib\libc.a(lib_a-memchr.o)
 .debug_abbrev  0x0000000000004e03      0x223 c:/intelfpga_lite/19.1/nios2eds/bin/gnu/h-x86_64-mingw32/bin/../lib/gcc/nios2-elf/8.3.1/../../../../../H-x86_64-mingw32/nios2-elf/lib\libc.a(lib_a-memcpy.o)
 .debug_abbrev  0x0000000000005026      0x21c c:/intelfpga_lite/19.1/nios2eds/bin/gnu/h-x86_64-mingw32/bin/../lib/gcc/nios2-elf/8.3.1/../../../../../H-x86_64-mingw32/nios2-elf/lib\libc.a(lib_a-memmove.o)
 .debug_abbrev  0x0000000000005242      0x228 c:/intelfpga_lite/19.1/nios2eds/bin/gnu/h-x86_64-mingw32/bin/../lib/gcc/nios2-elf/8.3.1/../../../../../H-x86_64-mingw32/nios2-elf/lib\libc.a(lib_a-memset.o)
 .debug_abbrev  0x000000000000546a      0x48a c:/intelfpga_lite/19.1/nios2eds/bin/gnu/h-x86_64-mingw32/bin/../lib/gcc/nios2-elf/8.3.1/../../../../../H-x86_64-mingw32/nios2-elf/lib\libc.a(lib_a-mprec.o)
 .debug_abbrev  0x00000000000058f4      0x29e c:/intelfpga_lite/19.1/nios2eds/bin/gnu/h-x86_64-mingw32/bin/../lib/gcc/nios2-elf/8.3.1/../../../../../H-x86_64-mingw32/nios2-elf/lib\libc.a(lib_a-putc.o)
 .debug_abbrev  0x0000000000005b92      0x28d c:/intelfpga_lite/19.1/nios2eds/bin/gnu/h-x86_64-mingw32/bin/../lib/gcc/nios2-elf/8.3.1/../../../../../H-x86_64-mingw32/nios2-elf/lib\libc.a(lib_a-reallocr.o)
 .debug_abbrev  0x0000000000005e1f      0x2a0 c:/intelfpga_lite/19.1/nios2eds/bin/gnu/h-x86_64-mingw32/bin/../lib/gcc/nios2-elf/8.3.1/../../../../../H-x86_64-mingw32/nios2-elf/lib\libc.a(lib_a-rget.o)
 .debug_abbrev  0x00000000000060bf      0x261 c:/intelfpga_lite/19.1/nios2eds/bin/gnu/h-x86_64-mingw32/bin/../lib/gcc/nios2-elf/8.3.1/../../../../../H-x86_64-mingw32/nios2-elf/lib\libc.a(lib_a-sbrkr.o)
 .debug_abbrev  0x0000000000006320      0x2be c:/intelfpga_lite/19.1/nios2eds/bin/gnu/h-x86_64-mingw32/bin/../lib/gcc/nios2-elf/8.3.1/../../../../../H-x86_64-mingw32/nios2-elf/lib\libc.a(lib_a-stdio.o)
 .debug_abbrev  0x00000000000065de      0x48a c:/intelfpga_lite/19.1/nios2eds/bin/gnu/h-x86_64-mingw32/bin/../lib/gcc/nios2-elf/8.3.1/../../../../../H-x86_64-mingw32/nios2-elf/lib\libc.a(lib_a-vfiprintf.o)
 .debug_abbrev  0x0000000000006a68      0x2d4 c:/intelfpga_lite/19.1/nios2eds/bin/gnu/h-x86_64-mingw32/bin/../lib/gcc/nios2-elf/8.3.1/../../../../../H-x86_64-mingw32/nios2-elf/lib\libc.a(lib_a-wbuf.o)
 .debug_abbrev  0x0000000000006d3c      0x23b c:/intelfpga_lite/19.1/nios2eds/bin/gnu/h-x86_64-mingw32/bin/../lib/gcc/nios2-elf/8.3.1/../../../../../H-x86_64-mingw32/nios2-elf/lib\libc.a(lib_a-writer.o)
 .debug_abbrev  0x0000000000006f77      0x236 c:/intelfpga_lite/19.1/nios2eds/bin/gnu/h-x86_64-mingw32/bin/../lib/gcc/nios2-elf/8.3.1/../../../../../H-x86_64-mingw32/nios2-elf/lib\libc.a(closer.o)
 .debug_abbrev  0x00000000000071ad      0x286 c:/intelfpga_lite/19.1/nios2eds/bin/gnu/h-x86_64-mingw32/bin/../lib/gcc/nios2-elf/8.3.1/../../../../../H-x86_64-mingw32/nios2-elf/lib\libc.a(lib_a-callocr.o)
 .debug_abbrev  0x0000000000007433      0x338 c:/intelfpga_lite/19.1/nios2eds/bin/gnu/h-x86_64-mingw32/bin/../lib/gcc/nios2-elf/8.3.1/../../../../../H-x86_64-mingw32/nios2-elf/lib\libc.a(lib_a-fclose.o)
 .debug_abbrev  0x000000000000776b      0x34a c:/intelfpga_lite/19.1/nios2eds/bin/gnu/h-x86_64-mingw32/bin/../lib/gcc/nios2-elf/8.3.1/../../../../../H-x86_64-mingw32/nios2-elf/lib\libc.a(lib_a-fputwc.o)
 .debug_abbrev  0x0000000000007ab5      0x24a c:/intelfpga_lite/19.1/nios2eds/bin/gnu/h-x86_64-mingw32/bin/../lib/gcc/nios2-elf/8.3.1/../../../../../H-x86_64-mingw32/nios2-elf/lib\libc.a(lib_a-fstatr.o)
 .debug_abbrev  0x0000000000007cff      0x1d5 c:/intelfpga_lite/19.1/nios2eds/bin/gnu/h-x86_64-mingw32/bin/../lib/gcc/nios2-elf/8.3.1/../../../../../H-x86_64-mingw32/nios2-elf/lib\libc.a(lib_a-int_errno.o)
 .debug_abbrev  0x0000000000007ed4      0x236 c:/intelfpga_lite/19.1/nios2eds/bin/gnu/h-x86_64-mingw32/bin/../lib/gcc/nios2-elf/8.3.1/../../../../../H-x86_64-mingw32/nios2-elf/lib\libc.a(lib_a-isattyr.o)
 .debug_abbrev  0x000000000000810a      0x2ec c:/intelfpga_lite/19.1/nios2eds/bin/gnu/h-x86_64-mingw32/bin/../lib/gcc/nios2-elf/8.3.1/../../../../../H-x86_64-mingw32/nios2-elf/lib\libc.a(lib_a-locale.o)
 .debug_abbrev  0x00000000000083f6      0x24a c:/intelfpga_lite/19.1/nios2eds/bin/gnu/h-x86_64-mingw32/bin/../lib/gcc/nios2-elf/8.3.1/../../../../../H-x86_64-mingw32/nios2-elf/lib\libc.a(lib_a-lseekr.o)
 .debug_abbrev  0x0000000000008640      0x292 c:/intelfpga_lite/19.1/nios2eds/bin/gnu/h-x86_64-mingw32/bin/../lib/gcc/nios2-elf/8.3.1/../../../../../H-x86_64-mingw32/nios2-elf/lib\libc.a(lib_a-mbtowc_r.o)
 .debug_abbrev  0x00000000000088d2      0x236 c:/intelfpga_lite/19.1/nios2eds/bin/gnu/h-x86_64-mingw32/bin/../lib/gcc/nios2-elf/8.3.1/../../../../../H-x86_64-mingw32/nios2-elf/lib\libc.a(lib_a-readr.o)
 .debug_abbrev  0x0000000000008b08      0x2d4 c:/intelfpga_lite/19.1/nios2eds/bin/gnu/h-x86_64-mingw32/bin/../lib/gcc/nios2-elf/8.3.1/../../../../../H-x86_64-mingw32/nios2-elf/lib\libc.a(lib_a-refill.o)
 .debug_abbrev  0x0000000000008ddc      0x1f9 c:/intelfpga_lite/19.1/nios2eds/bin/gnu/h-x86_64-mingw32/bin/../lib/gcc/nios2-elf/8.3.1/../../../../../H-x86_64-mingw32/nios2-elf/lib\libc.a(lib_a-strcmp.o)
 .debug_abbrev  0x0000000000008fd5      0x264 c:/intelfpga_lite/19.1/nios2eds/bin/gnu/h-x86_64-mingw32/bin/../lib/gcc/nios2-elf/8.3.1/../../../../../H-x86_64-mingw32/nios2-elf/lib\libc.a(lib_a-wcrtomb.o)
 .debug_abbrev  0x0000000000009239      0x27a c:/intelfpga_lite/19.1/nios2eds/bin/gnu/h-x86_64-mingw32/bin/../lib/gcc/nios2-elf/8.3.1/../../../../../H-x86_64-mingw32/nios2-elf/lib\libc.a(lib_a-wctomb_r.o)
 .debug_abbrev  0x00000000000094b3      0x1cb c:/intelfpga_lite/19.1/nios2eds/bin/gnu/h-x86_64-mingw32/bin/../lib/gcc/nios2-elf/8.3.1\libgcc.a(_udivdi3.o)
 .debug_abbrev  0x000000000000967e      0x1f7 c:/intelfpga_lite/19.1/nios2eds/bin/gnu/h-x86_64-mingw32/bin/../lib/gcc/nios2-elf/8.3.1\libgcc.a(_umoddi3.o)
 .debug_abbrev  0x0000000000009875      0x103 c:/intelfpga_lite/19.1/nios2eds/bin/gnu/h-x86_64-mingw32/bin/../lib/gcc/nios2-elf/8.3.1\libgcc.a(lib2-divmod.o)
 .debug_abbrev  0x0000000000009978      0x1a8 c:/intelfpga_lite/19.1/nios2eds/bin/gnu/h-x86_64-mingw32/bin/../lib/gcc/nios2-elf/8.3.1\libgcc.a(adddf3.o)
 .debug_abbrev  0x0000000000009b20      0x199 c:/intelfpga_lite/19.1/nios2eds/bin/gnu/h-x86_64-mingw32/bin/../lib/gcc/nios2-elf/8.3.1\libgcc.a(divdf3.o)
 .debug_abbrev  0x0000000000009cb9      0x17b c:/intelfpga_lite/19.1/nios2eds/bin/gnu/h-x86_64-mingw32/bin/../lib/gcc/nios2-elf/8.3.1\libgcc.a(eqdf2.o)
 .debug_abbrev  0x0000000000009e34      0x18e c:/intelfpga_lite/19.1/nios2eds/bin/gnu/h-x86_64-mingw32/bin/../lib/gcc/nios2-elf/8.3.1\libgcc.a(gedf2.o)
 .debug_abbrev  0x0000000000009fc2      0x18e c:/intelfpga_lite/19.1/nios2eds/bin/gnu/h-x86_64-mingw32/bin/../lib/gcc/nios2-elf/8.3.1\libgcc.a(ledf2.o)
 .debug_abbrev  0x000000000000a150      0x1a0 c:/intelfpga_lite/19.1/nios2eds/bin/gnu/h-x86_64-mingw32/bin/../lib/gcc/nios2-elf/8.3.1\libgcc.a(muldf3.o)
 .debug_abbrev  0x000000000000a2f0      0x1a8 c:/intelfpga_lite/19.1/nios2eds/bin/gnu/h-x86_64-mingw32/bin/../lib/gcc/nios2-elf/8.3.1\libgcc.a(subdf3.o)
 .debug_abbrev  0x000000000000a498      0x17b c:/intelfpga_lite/19.1/nios2eds/bin/gnu/h-x86_64-mingw32/bin/../lib/gcc/nios2-elf/8.3.1\libgcc.a(unorddf2.o)
 .debug_abbrev  0x000000000000a613      0x17f c:/intelfpga_lite/19.1/nios2eds/bin/gnu/h-x86_64-mingw32/bin/../lib/gcc/nios2-elf/8.3.1\libgcc.a(fixdfsi.o)
 .debug_abbrev  0x000000000000a792      0x18a c:/intelfpga_lite/19.1/nios2eds/bin/gnu/h-x86_64-mingw32/bin/../lib/gcc/nios2-elf/8.3.1\libgcc.a(floatsidf.o)
 .debug_abbrev  0x000000000000a91c      0x18a c:/intelfpga_lite/19.1/nios2eds/bin/gnu/h-x86_64-mingw32/bin/../lib/gcc/nios2-elf/8.3.1\libgcc.a(floatunsidf.o)
 .debug_abbrev  0x000000000000aaa6       0xa8 c:/intelfpga_lite/19.1/nios2eds/bin/gnu/h-x86_64-mingw32/bin/../lib/gcc/nios2-elf/8.3.1\libgcc.a(_clz.o)
 .debug_abbrev  0x000000000000ab4e       0xf7 c:/intelfpga_lite/19.1/nios2eds/bin/gnu/h-x86_64-mingw32/bin/../lib/gcc/nios2-elf/8.3.1\libgcc.a(_clzsi2.o)
 .debug_abbrev  0x000000000000ac45      0x25e ../hit_pat_bsp\libucosii_bsp.a(alt_flash_dev.o)
 .debug_abbrev  0x000000000000aea3      0x24f ../hit_pat_bsp\libucosii_bsp.a(alt_fstat.o)
 .debug_abbrev  0x000000000000b0f2      0x24f ../hit_pat_bsp\libucosii_bsp.a(alt_isatty.o)
 .debug_abbrev  0x000000000000b341      0x24f ../hit_pat_bsp\libucosii_bsp.a(alt_lseek.o)
 .debug_abbrev  0x000000000000b590      0x266 ../hit_pat_bsp\libucosii_bsp.a(alt_main.o)
 .debug_abbrev  0x000000000000b7f6      0x28e ../hit_pat_bsp\libucosii_bsp.a(alt_sbrk.o)
 .debug_abbrev  0x000000000000ba84      0x257 ../hit_pat_bsp\libucosii_bsp.a(alt_env_lock.o)
 .debug_abbrev  0x000000000000bcdb      0x2c0 ../hit_pat_bsp\libucosii_bsp.a(alt_malloc_lock.o)
 .debug_abbrev  0x000000000000bf9b      0x465 ../hit_pat_bsp\libucosii_bsp.a(os_core.o)
 .debug_abbrev  0x000000000000c400      0x3b0 ../hit_pat_bsp\libucosii_bsp.a(os_flag.o)
 .debug_abbrev  0x000000000000c7b0      0x37a ../hit_pat_bsp\libucosii_bsp.a(os_mem.o)
 .debug_abbrev  0x000000000000cb2a      0x3a7 ../hit_pat_bsp\libucosii_bsp.a(os_mutex.o)
 .debug_abbrev  0x000000000000ced1      0x39e ../hit_pat_bsp\libucosii_bsp.a(os_q.o)
 .debug_abbrev  0x000000000000d26f      0x3ba ../hit_pat_bsp\libucosii_bsp.a(os_sem.o)
 .debug_abbrev  0x000000000000d629      0x36f ../hit_pat_bsp\libucosii_bsp.a(os_task.o)
 .debug_abbrev  0x000000000000d998      0x35c ../hit_pat_bsp\libucosii_bsp.a(os_time.o)
 .debug_abbrev  0x000000000000dcf4      0x32d ../hit_pat_bsp\libucosii_bsp.a(alt_sys_init.o)
 .debug_abbrev  0x000000000000e021      0x2d3 ../hit_pat_bsp\libucosii_bsp.a(altera_avalon_timer_sc.o)
 .debug_abbrev  0x000000000000e2f4      0x39a ../hit_pat_bsp\libucosii_bsp.a(altera_avalon_tse.o)
 .debug_abbrev  0x000000000000e68e      0x248 ../hit_pat_bsp\libucosii_bsp.a(altera_avalon_uart_fd.o)
 .debug_abbrev  0x000000000000e8d6      0x332 ../hit_pat_bsp\libucosii_bsp.a(altera_avalon_uart_init.o)
 .debug_abbrev  0x000000000000ec08      0x305 ../hit_pat_bsp\libucosii_bsp.a(altera_avalon_uart_read.o)
 .debug_abbrev  0x000000000000ef0d      0x305 ../hit_pat_bsp\libucosii_bsp.a(altera_avalon_uart_write.o)
 .debug_abbrev  0x000000000000f212      0x2f2 ../hit_pat_bsp\libucosii_bsp.a(altera_generic_quad_spi_controller.o)
 .debug_abbrev  0x000000000000f504      0x49c ../hit_pat_bsp\libucosii_bsp.a(altera_msgdma.o)
 .debug_abbrev  0x000000000000f9a0      0x2f1 ../hit_pat_bsp\libucosii_bsp.a(altera_onchip_flash.o)
 .debug_abbrev  0x000000000000fc91      0x450 ../hit_pat_bsp\libucosii_bsp.a(ins_tse_mac.o)
 .debug_abbrev  0x00000000000100e1      0x24a ../hit_pat_bsp\libucosii_bsp.a(alt_iniche_close.o)
 .debug_abbrev  0x000000000001032b      0x27b ../hit_pat_bsp\libucosii_bsp.a(alt_iniche_dev.o)
 .debug_abbrev  0x00000000000105a6      0x24a ../hit_pat_bsp\libucosii_bsp.a(alt_iniche_read.o)
 .debug_abbrev  0x00000000000107f0      0x24f ../hit_pat_bsp\libucosii_bsp.a(alt_iniche_write.o)
 .debug_abbrev  0x0000000000010a3f      0x35c ../hit_pat_bsp\libucosii_bsp.a(et_arp.o)
 .debug_abbrev  0x0000000000010d9b      0x2e4 ../hit_pat_bsp\libucosii_bsp.a(iface.o)
 .debug_abbrev  0x000000000001107f      0x320 ../hit_pat_bsp\libucosii_bsp.a(ipnet.o)
 .debug_abbrev  0x000000000001139f      0x30e ../hit_pat_bsp\libucosii_bsp.a(ipstart.o)
 .debug_abbrev  0x00000000000116ad      0x355 ../hit_pat_bsp\libucosii_bsp.a(igmp_cmn.o)
 .debug_abbrev  0x0000000000011a02      0x341 ../hit_pat_bsp\libucosii_bsp.a(bsdsock.o)
 .debug_abbrev  0x0000000000011d43      0x25b ../hit_pat_bsp\libucosii_bsp.a(cksum.o)
 .debug_abbrev  0x0000000000011f9e      0x374 ../hit_pat_bsp\libucosii_bsp.a(in_utils.o)
 .debug_abbrev  0x0000000000012312      0x2ae ../hit_pat_bsp\libucosii_bsp.a(netmain.o)
 .debug_abbrev  0x00000000000125c0      0x2c3 ../hit_pat_bsp\libucosii_bsp.a(tk_crnos.o)
 .debug_abbrev  0x0000000000012883      0x277 ../hit_pat_bsp\libucosii_bsp.a(ping.o)
 .debug_abbrev  0x0000000000012afa      0x312 ../hit_pat_bsp\libucosii_bsp.a(pktalloc.o)
 .debug_abbrev  0x0000000000012e0c      0x262 ../hit_pat_bsp\libucosii_bsp.a(q.o)
 .debug_abbrev  0x000000000001306e       0x14 ../hit_pat_bsp\libucosii_bsp.a(asm_cksum.o)
 .debug_abbrev  0x0000000000013082      0x2ee ../hit_pat_bsp\libucosii_bsp.a(brdutils.o)
 .debug_abbrev  0x0000000000013370      0x308 ../hit_pat_bsp\libucosii_bsp.a(osportco.o)
 .debug_abbrev  0x0000000000013678      0x34a ../hit_pat_bsp\libucosii_bsp.a(targnios.o)
 .debug_abbrev  0x00000000000139c2      0x3b3 ../hit_pat_bsp\libucosii_bsp.a(nptcp.o)
 .debug_abbrev  0x0000000000013d75      0x2a4 ../hit_pat_bsp\libucosii_bsp.a(rawsock.o)
 .debug_abbrev  0x0000000000014019      0x34a ../hit_pat_bsp\libucosii_bsp.a(sockcall.o)
 .debug_abbrev  0x0000000000014363      0x398 ../hit_pat_bsp\libucosii_bsp.a(socket.o)
 .debug_abbrev  0x00000000000146fb      0x3a9 ../hit_pat_bsp\libucosii_bsp.a(socket2.o)
 .debug_abbrev  0x0000000000014aa4      0x331 ../hit_pat_bsp\libucosii_bsp.a(soselect.o)
 .debug_abbrev  0x0000000000014dd5      0x38c ../hit_pat_bsp\libucosii_bsp.a(tcp_in.o)
 .debug_abbrev  0x0000000000015161      0x352 ../hit_pat_bsp\libucosii_bsp.a(tcp_out.o)
 .debug_abbrev  0x00000000000154b3      0x376 ../hit_pat_bsp\libucosii_bsp.a(tcp_subr.o)
 .debug_abbrev  0x0000000000015829      0x342 ../hit_pat_bsp\libucosii_bsp.a(tcp_timr.o)
 .debug_abbrev  0x0000000000015b6b      0x2ea ../hit_pat_bsp\libucosii_bsp.a(tcp_usr.o)
 .debug_abbrev  0x0000000000015e55      0x24a ../hit_pat_bsp\libucosii_bsp.a(tcpport.o)
 .debug_abbrev  0x000000000001609f      0x2fa ../hit_pat_bsp\libucosii_bsp.a(udpsock.o)
 .debug_abbrev  0x0000000000016399      0x202 ../hit_pat_bsp\libucosii_bsp.a(alt_busy_sleep.o)
 .debug_abbrev  0x000000000001659b      0x24f ../hit_pat_bsp\libucosii_bsp.a(alt_close.o)
 .debug_abbrev  0x00000000000167ea      0x213 ../hit_pat_bsp\libucosii_bsp.a(alt_dcache_flush.o)
 .debug_abbrev  0x00000000000169fd      0x22f ../hit_pat_bsp\libucosii_bsp.a(alt_dev.o)
 .debug_abbrev  0x0000000000016c2c      0x268 ../hit_pat_bsp\libucosii_bsp.a(alt_dev_llist_insert.o)
 .debug_abbrev  0x0000000000016e94       0x81 ../hit_pat_bsp\libucosii_bsp.a(alt_do_ctors.o)
 .debug_abbrev  0x0000000000016f15       0x81 ../hit_pat_bsp\libucosii_bsp.a(alt_do_dtors.o)
 .debug_abbrev  0x0000000000016f96      0x1df ../hit_pat_bsp\libucosii_bsp.a(alt_errno.o)
 .debug_abbrev  0x0000000000017175      0x22a ../hit_pat_bsp\libucosii_bsp.a(alt_find_dev.o)
 .debug_abbrev  0x000000000001739f      0x2f1 ../hit_pat_bsp\libucosii_bsp.a(alt_iic.o)
 .debug_abbrev  0x0000000000017690      0x2b0 ../hit_pat_bsp\libucosii_bsp.a(alt_iic_isr_register.o)
 .debug_abbrev  0x0000000000017940      0x242 ../hit_pat_bsp\libucosii_bsp.a(alt_io_redirect.o)
 .debug_abbrev  0x0000000000017b82       0x12 ../hit_pat_bsp\libucosii_bsp.a(alt_irq_entry.o)
 .debug_abbrev  0x0000000000017b94      0x284 ../hit_pat_bsp\libucosii_bsp.a(alt_irq_handler.o)
 .debug_abbrev  0x0000000000017e18       0x44 ../hit_pat_bsp\libucosii_bsp.a(alt_irq_vars.o)
 .debug_abbrev  0x0000000000017e5c      0x27c ../hit_pat_bsp\libucosii_bsp.a(alt_open.o)
 .debug_abbrev  0x00000000000180d8       0xba ../hit_pat_bsp\libucosii_bsp.a(alt_printf.o)
 .debug_abbrev  0x0000000000018192      0x1e0 ../hit_pat_bsp\libucosii_bsp.a(alt_putchar.o)
 .debug_abbrev  0x0000000000018372      0x260 ../hit_pat_bsp\libucosii_bsp.a(alt_read.o)
 .debug_abbrev  0x00000000000185d2      0x206 ../hit_pat_bsp\libucosii_bsp.a(alt_release_fd.o)
 .debug_abbrev  0x00000000000187d8      0x1fa ../hit_pat_bsp\libucosii_bsp.a(alt_remap_cached.o)
 .debug_abbrev  0x00000000000189d2      0x2c7 ../hit_pat_bsp\libucosii_bsp.a(alt_tick.o)
 .debug_abbrev  0x0000000000018c99      0x1f8 ../hit_pat_bsp\libucosii_bsp.a(alt_uncached_free.o)
 .debug_abbrev  0x0000000000018e91      0x21c ../hit_pat_bsp\libucosii_bsp.a(alt_uncached_malloc.o)
 .debug_abbrev  0x00000000000190ad      0x23f ../hit_pat_bsp\libucosii_bsp.a(alt_usleep.o)
 .debug_abbrev  0x00000000000192ec      0x265 ../hit_pat_bsp\libucosii_bsp.a(alt_write.o)
 .debug_abbrev  0x0000000000019551      0x1e5 ../hit_pat_bsp\libucosii_bsp.a(altera_nios2_gen2_irq.o)
 .debug_abbrev  0x0000000000019736       0x14 ../hit_pat_bsp\libucosii_bsp.a(os_cpu_a.o)
 .debug_abbrev  0x000000000001974a      0x28d ../hit_pat_bsp\libucosii_bsp.a(os_cpu_c.o)
 .debug_abbrev  0x00000000000199d7      0x339 ../hit_pat_bsp\libucosii_bsp.a(allports.o)
 .debug_abbrev  0x0000000000019d10      0x2b1 ../hit_pat_bsp\libucosii_bsp.a(timeouts.o)
 .debug_abbrev  0x0000000000019fc1      0x272 ../hit_pat_bsp\libucosii_bsp.a(tk_misc.o)
 .debug_abbrev  0x000000000001a233      0x27a ../hit_pat_bsp\libucosii_bsp.a(alt_iniche_fcntl.o)
 .debug_abbrev  0x000000000001a4ad      0x2d3 ../hit_pat_bsp\libucosii_bsp.a(icmp.o)
 .debug_abbrev  0x000000000001a780      0x340 ../hit_pat_bsp\libucosii_bsp.a(ip.o)
 .debug_abbrev  0x000000000001aac0      0x2d9 ../hit_pat_bsp\libucosii_bsp.a(ipdemux.o)
 .debug_abbrev  0x000000000001ad99      0x2a6 ../hit_pat_bsp\libucosii_bsp.a(ipmc.o)
 .debug_abbrev  0x000000000001b03f      0x2a0 ../hit_pat_bsp\libucosii_bsp.a(ipport.o)
 .debug_abbrev  0x000000000001b2df      0x347 ../hit_pat_bsp\libucosii_bsp.a(ipraw.o)
 .debug_abbrev  0x000000000001b626      0x2ea ../hit_pat_bsp\libucosii_bsp.a(iproute.o)
 .debug_abbrev  0x000000000001b910      0x373 ../hit_pat_bsp\libucosii_bsp.a(udp.o)
 .debug_abbrev  0x000000000001bc83      0x26e ../hit_pat_bsp\libucosii_bsp.a(igmp.o)
 .debug_abbrev  0x000000000001bef1      0x2f7 ../hit_pat_bsp\libucosii_bsp.a(igmp2.o)
 .debug_abbrev  0x000000000001c1e8      0x319 ../hit_pat_bsp\libucosii_bsp.a(ipopt.o)
 .debug_abbrev  0x000000000001c501      0x29e ../hit_pat_bsp\libucosii_bsp.a(u_mctest.o)
 .debug_abbrev  0x000000000001c79f      0x2e6 ../hit_pat_bsp\libucosii_bsp.a(memdev.o)
 .debug_abbrev  0x000000000001ca85      0x35d ../hit_pat_bsp\libucosii_bsp.a(parseip.o)
 .debug_abbrev  0x000000000001cde2      0x26e ../hit_pat_bsp\libucosii_bsp.a(tcpcksum.o)
 .debug_abbrev  0x000000000001d050      0x2a3 ../hit_pat_bsp\libucosii_bsp.a(udp_open.o)
 .debug_abbrev  0x000000000001d2f3      0x360 ../hit_pat_bsp\libucosii_bsp.a(in_pcb.o)
 .debug_abbrev  0x000000000001d653      0x350 ../hit_pat_bsp\libucosii_bsp.a(vfsfiles.o)
 .debug_abbrev  0x000000000001d9a3      0x208 ../hit_pat_bsp\libucosii_bsp.a(vfsport.o)
 .debug_abbrev  0x000000000001dbab       0x12 ../hit_pat_bsp\libucosii_bsp.a(alt_exception_entry.o)
 .debug_abbrev  0x000000000001dbbd      0x26e ../hit_pat_bsp\libucosii_bsp.a(alt_fcntl.o)
 .debug_abbrev  0x000000000001de2b      0x22a ../hit_pat_bsp\libucosii_bsp.a(alt_find_file.o)
 .debug_abbrev  0x000000000001e055      0x296 ../hit_pat_bsp\libucosii_bsp.a(alt_get_fd.o)
 .debug_abbrev  0x000000000001e2eb       0xea ../hit_pat_bsp\libucosii_bsp.a(alt_instruction_exception_entry.o)
 .debug_abbrev  0x000000000001e3d5      0x243 c:/intelfpga_lite/19.1/nios2eds/bin/gnu/h-x86_64-mingw32/bin/../lib/gcc/nios2-elf/8.3.1/../../../../../H-x86_64-mingw32/nios2-elf/lib\libc.a(lib_a-atexit.o)
 .debug_abbrev  0x000000000001e618      0x225 c:/intelfpga_lite/19.1/nios2eds/bin/gnu/h-x86_64-mingw32/bin/../lib/gcc/nios2-elf/8.3.1/../../../../../H-x86_64-mingw32/nios2-elf/lib\libc.a(lib_a-atoi.o)
 .debug_abbrev  0x000000000001e83d      0x230 c:/intelfpga_lite/19.1/nios2eds/bin/gnu/h-x86_64-mingw32/bin/../lib/gcc/nios2-elf/8.3.1/../../../../../H-x86_64-mingw32/nios2-elf/lib\libc.a(lib_a-exit.o)
 .debug_abbrev  0x000000000001ea6d      0x225 c:/intelfpga_lite/19.1/nios2eds/bin/gnu/h-x86_64-mingw32/bin/../lib/gcc/nios2-elf/8.3.1/../../../../../H-x86_64-mingw32/nios2-elf/lib\libc.a(lib_a-malign.o)
 .debug_abbrev  0x000000000001ec92      0x275 c:/intelfpga_lite/19.1/nios2eds/bin/gnu/h-x86_64-mingw32/bin/../lib/gcc/nios2-elf/8.3.1/../../../../../H-x86_64-mingw32/nios2-elf/lib\libc.a(lib_a-malignr.o)
 .debug_abbrev  0x000000000001ef07      0x241 c:/intelfpga_lite/19.1/nios2eds/bin/gnu/h-x86_64-mingw32/bin/../lib/gcc/nios2-elf/8.3.1/../../../../../H-x86_64-mingw32/nios2-elf/lib\libc.a(lib_a-malloc.o)
 .debug_abbrev  0x000000000001f148      0x1fe c:/intelfpga_lite/19.1/nios2eds/bin/gnu/h-x86_64-mingw32/bin/../lib/gcc/nios2-elf/8.3.1/../../../../../H-x86_64-mingw32/nios2-elf/lib\libc.a(lib_a-memcmp.o)
 .debug_abbrev  0x000000000001f346      0x296 c:/intelfpga_lite/19.1/nios2eds/bin/gnu/h-x86_64-mingw32/bin/../lib/gcc/nios2-elf/8.3.1/../../../../../H-x86_64-mingw32/nios2-elf/lib\libc.a(lib_a-sprintf.o)
 .debug_abbrev  0x000000000001f5dc      0x20d c:/intelfpga_lite/19.1/nios2eds/bin/gnu/h-x86_64-mingw32/bin/../lib/gcc/nios2-elf/8.3.1/../../../../../H-x86_64-mingw32/nios2-elf/lib\libc.a(lib_a-strchr.o)
 .debug_abbrev  0x000000000001f7e9      0x20d c:/intelfpga_lite/19.1/nios2eds/bin/gnu/h-x86_64-mingw32/bin/../lib/gcc/nios2-elf/8.3.1/../../../../../H-x86_64-mingw32/nios2-elf/lib\libc.a(lib_a-strcpy.o)
 .debug_abbrev  0x000000000001f9f6      0x1f9 c:/intelfpga_lite/19.1/nios2eds/bin/gnu/h-x86_64-mingw32/bin/../lib/gcc/nios2-elf/8.3.1/../../../../../H-x86_64-mingw32/nios2-elf/lib\libc.a(lib_a-strncmp.o)
 .debug_abbrev  0x000000000001fbef      0x2db c:/intelfpga_lite/19.1/nios2eds/bin/gnu/h-x86_64-mingw32/bin/../lib/gcc/nios2-elf/8.3.1/../../../../../H-x86_64-mingw32/nios2-elf/lib\libc.a(lib_a-strtol.o)
 .debug_abbrev  0x000000000001feca      0x413 c:/intelfpga_lite/19.1/nios2eds/bin/gnu/h-x86_64-mingw32/bin/../lib/gcc/nios2-elf/8.3.1/../../../../../H-x86_64-mingw32/nios2-elf/lib\libc.a(lib_a-svfprintf.o)
 .debug_abbrev  0x00000000000202dd      0x28c c:/intelfpga_lite/19.1/nios2eds/bin/gnu/h-x86_64-mingw32/bin/../lib/gcc/nios2-elf/8.3.1/../../../../../H-x86_64-mingw32/nios2-elf/lib\libc.a(lib_a-vprintf.o)
 .debug_abbrev  0x0000000000020569      0x2c2 c:/intelfpga_lite/19.1/nios2eds/bin/gnu/h-x86_64-mingw32/bin/../lib/gcc/nios2-elf/8.3.1/../../../../../H-x86_64-mingw32/nios2-elf/lib\libc.a(lib_a-vsprintf.o)
 .debug_abbrev  0x000000000002082b      0x263 c:/intelfpga_lite/19.1/nios2eds/bin/gnu/h-x86_64-mingw32/bin/../lib/gcc/nios2-elf/8.3.1/../../../../../H-x86_64-mingw32/nios2-elf/lib\libc.a(lib_a-__atexit.o)
 .debug_abbrev  0x0000000000020a8e      0x26c c:/intelfpga_lite/19.1/nios2eds/bin/gnu/h-x86_64-mingw32/bin/../lib/gcc/nios2-elf/8.3.1/../../../../../H-x86_64-mingw32/nios2-elf/lib\libc.a(lib_a-__call_atexit.o)
 .debug_abbrev  0x0000000000020cfa      0x361 c:/intelfpga_lite/19.1/nios2eds/bin/gnu/h-x86_64-mingw32/bin/../lib/gcc/nios2-elf/8.3.1/../../../../../H-x86_64-mingw32/nios2-elf/lib\libc.a(lib_a-svfiprintf.o)
 .debug_abbrev  0x000000000002105b      0x276 c:/intelfpga_lite/19.1/nios2eds/bin/gnu/h-x86_64-mingw32/bin/../lib/gcc/nios2-elf/8.3.1/../../../../../H-x86_64-mingw32/nios2-elf/lib\libc.a(lib_a-vfprintfr_1.o)
 .debug_abbrev  0x00000000000212d1      0x266 ../hit_pat_bsp\libucosii_bsp.a(alt_exit.o)

.debug_line     0x0000000000000000    0x3ca4d
 *(.debug_line)
 .debug_line    0x0000000000000000       0x6f d:/hit20v3/software/hit_pat/software/hit_pat_bsp//obj/HAL/src/crt0.o
 .debug_line    0x000000000000006f      0x747 obj/default/src/control.o
 .debug_line    0x00000000000007b6      0x399 obj/default/src/main.o
 .debug_line    0x0000000000000b4f      0x644 obj/default/src/network_utilities.o
 .debug_line    0x0000000000001193      0x396 obj/default/src/sensor.o
 .debug_line    0x0000000000001529      0x633 obj/default/src/socket_server.o
 .debug_line    0x0000000000001b5c      0x2eb obj/default/src/tse_my_system.o
 .debug_line    0x0000000000001e47      0x3bd obj/default/src/udpgen.o
 .debug_line    0x0000000000002204      0x4ac obj/default/src/utils.o
 .debug_line    0x00000000000026b0      0x248 c:/intelfpga_lite/19.1/nios2eds/bin/gnu/h-x86_64-mingw32/bin/../lib/gcc/nios2-elf/8.3.1/../../../../../H-x86_64-mingw32/nios2-elf/lib\libc.a(lib_a-ctype_.o)
 .debug_line    0x00000000000028f8      0x240 c:/intelfpga_lite/19.1/nios2eds/bin/gnu/h-x86_64-mingw32/bin/../lib/gcc/nios2-elf/8.3.1/../../../../../H-x86_64-mingw32/nios2-elf/lib\libc.a(lib_a-getchar.o)
 .debug_line    0x0000000000002b38      0x161 c:/intelfpga_lite/19.1/nios2eds/bin/gnu/h-x86_64-mingw32/bin/../lib/gcc/nios2-elf/8.3.1/../../../../../H-x86_64-mingw32/nios2-elf/lib\libc.a(lib_a-impure.o)
 .debug_line    0x0000000000002c99      0x265 c:/intelfpga_lite/19.1/nios2eds/bin/gnu/h-x86_64-mingw32/bin/../lib/gcc/nios2-elf/8.3.1/../../../../../H-x86_64-mingw32/nios2-elf/lib\libc.a(lib_a-printf.o)
 .debug_line    0x0000000000002efe      0x240 c:/intelfpga_lite/19.1/nios2eds/bin/gnu/h-x86_64-mingw32/bin/../lib/gcc/nios2-elf/8.3.1/../../../../../H-x86_64-mingw32/nios2-elf/lib\libc.a(lib_a-putchar.o)
 .debug_line    0x000000000000313e      0x2ff c:/intelfpga_lite/19.1/nios2eds/bin/gnu/h-x86_64-mingw32/bin/../lib/gcc/nios2-elf/8.3.1/../../../../../H-x86_64-mingw32/nios2-elf/lib\libc.a(lib_a-puts.o)
 .debug_line    0x000000000000343d      0x244 c:/intelfpga_lite/19.1/nios2eds/bin/gnu/h-x86_64-mingw32/bin/../lib/gcc/nios2-elf/8.3.1/../../../../../H-x86_64-mingw32/nios2-elf/lib\libc.a(lib_a-strlen.o)
 .debug_line    0x0000000000003681     0x1a75 c:/intelfpga_lite/19.1/nios2eds/bin/gnu/h-x86_64-mingw32/bin/../lib/gcc/nios2-elf/8.3.1/../../../../../H-x86_64-mingw32/nios2-elf/lib\libc.a(lib_a-vfprintf.o)
 .debug_line    0x00000000000050f6      0x390 c:/intelfpga_lite/19.1/nios2eds/bin/gnu/h-x86_64-mingw32/bin/../lib/gcc/nios2-elf/8.3.1/../../../../../H-x86_64-mingw32/nios2-elf/lib\libc.a(lib_a-wsetup.o)
 .debug_line    0x0000000000005486     0x14ab c:/intelfpga_lite/19.1/nios2eds/bin/gnu/h-x86_64-mingw32/bin/../lib/gcc/nios2-elf/8.3.1/../../../../../H-x86_64-mingw32/nios2-elf/lib\libc.a(lib_a-dtoa.o)
 .debug_line    0x0000000000006931      0x4f1 c:/intelfpga_lite/19.1/nios2eds/bin/gnu/h-x86_64-mingw32/bin/../lib/gcc/nios2-elf/8.3.1/../../../../../H-x86_64-mingw32/nios2-elf/lib\libc.a(lib_a-fflush.o)
 .debug_line    0x0000000000006e22      0x66e c:/intelfpga_lite/19.1/nios2eds/bin/gnu/h-x86_64-mingw32/bin/../lib/gcc/nios2-elf/8.3.1/../../../../../H-x86_64-mingw32/nios2-elf/lib\libc.a(lib_a-findfp.o)
 .debug_line    0x0000000000007490      0x5c0 c:/intelfpga_lite/19.1/nios2eds/bin/gnu/h-x86_64-mingw32/bin/../lib/gcc/nios2-elf/8.3.1/../../../../../H-x86_64-mingw32/nios2-elf/lib\libc.a(lib_a-freer.o)
 .debug_line    0x0000000000007a50      0x6d7 c:/intelfpga_lite/19.1/nios2eds/bin/gnu/h-x86_64-mingw32/bin/../lib/gcc/nios2-elf/8.3.1/../../../../../H-x86_64-mingw32/nios2-elf/lib\libc.a(lib_a-fvwrite.o)
 .debug_line    0x0000000000008127      0x349 c:/intelfpga_lite/19.1/nios2eds/bin/gnu/h-x86_64-mingw32/bin/../lib/gcc/nios2-elf/8.3.1/../../../../../H-x86_64-mingw32/nios2-elf/lib\libc.a(lib_a-fwalk.o)
 .debug_line    0x0000000000008470      0x358 c:/intelfpga_lite/19.1/nios2eds/bin/gnu/h-x86_64-mingw32/bin/../lib/gcc/nios2-elf/8.3.1/../../../../../H-x86_64-mingw32/nios2-elf/lib\libc.a(lib_a-getc.o)
 .debug_line    0x00000000000087c8      0x292 c:/intelfpga_lite/19.1/nios2eds/bin/gnu/h-x86_64-mingw32/bin/../lib/gcc/nios2-elf/8.3.1/../../../../../H-x86_64-mingw32/nios2-elf/lib\libc.a(lib_a-localeconv.o)
 .debug_line    0x0000000000008a5a      0x466 c:/intelfpga_lite/19.1/nios2eds/bin/gnu/h-x86_64-mingw32/bin/../lib/gcc/nios2-elf/8.3.1/../../../../../H-x86_64-mingw32/nios2-elf/lib\libc.a(lib_a-makebuf.o)
 .debug_line    0x0000000000008ec0      0x936 c:/intelfpga_lite/19.1/nios2eds/bin/gnu/h-x86_64-mingw32/bin/../lib/gcc/nios2-elf/8.3.1/../../../../../H-x86_64-mingw32/nios2-elf/lib\libc.a(lib_a-mallocr.o)
 .debug_line    0x00000000000097f6      0x2ab c:/intelfpga_lite/19.1/nios2eds/bin/gnu/h-x86_64-mingw32/bin/../lib/gcc/nios2-elf/8.3.1/../../../../../H-x86_64-mingw32/nios2-elf/lib\libc.a(lib_a-memchr.o)
 .debug_line    0x0000000000009aa1      0x315 c:/intelfpga_lite/19.1/nios2eds/bin/gnu/h-x86_64-mingw32/bin/../lib/gcc/nios2-elf/8.3.1/../../../../../H-x86_64-mingw32/nios2-elf/lib\libc.a(lib_a-memcpy.o)
 .debug_line    0x0000000000009db6      0x347 c:/intelfpga_lite/19.1/nios2eds/bin/gnu/h-x86_64-mingw32/bin/../lib/gcc/nios2-elf/8.3.1/../../../../../H-x86_64-mingw32/nios2-elf/lib\libc.a(lib_a-memmove.o)
 .debug_line    0x000000000000a0fd      0x33f c:/intelfpga_lite/19.1/nios2eds/bin/gnu/h-x86_64-mingw32/bin/../lib/gcc/nios2-elf/8.3.1/../../../../../H-x86_64-mingw32/nios2-elf/lib\libc.a(lib_a-memset.o)
 .debug_line    0x000000000000a43c     0x14cb c:/intelfpga_lite/19.1/nios2eds/bin/gnu/h-x86_64-mingw32/bin/../lib/gcc/nios2-elf/8.3.1/../../../../../H-x86_64-mingw32/nios2-elf/lib\libc.a(lib_a-mprec.o)
 .debug_line    0x000000000000b907      0x386 c:/intelfpga_lite/19.1/nios2eds/bin/gnu/h-x86_64-mingw32/bin/../lib/gcc/nios2-elf/8.3.1/../../../../../H-x86_64-mingw32/nios2-elf/lib\libc.a(lib_a-putc.o)
 .debug_line    0x000000000000bc8d      0x82f c:/intelfpga_lite/19.1/nios2eds/bin/gnu/h-x86_64-mingw32/bin/../lib/gcc/nios2-elf/8.3.1/../../../../../H-x86_64-mingw32/nios2-elf/lib\libc.a(lib_a-reallocr.o)
 .debug_line    0x000000000000c4bc      0x28a c:/intelfpga_lite/19.1/nios2eds/bin/gnu/h-x86_64-mingw32/bin/../lib/gcc/nios2-elf/8.3.1/../../../../../H-x86_64-mingw32/nios2-elf/lib\libc.a(lib_a-rget.o)
 .debug_line    0x000000000000c746      0x230 c:/intelfpga_lite/19.1/nios2eds/bin/gnu/h-x86_64-mingw32/bin/../lib/gcc/nios2-elf/8.3.1/../../../../../H-x86_64-mingw32/nios2-elf/lib\libc.a(lib_a-sbrkr.o)
 .debug_line    0x000000000000c976      0x354 c:/intelfpga_lite/19.1/nios2eds/bin/gnu/h-x86_64-mingw32/bin/../lib/gcc/nios2-elf/8.3.1/../../../../../H-x86_64-mingw32/nios2-elf/lib\libc.a(lib_a-stdio.o)
 .debug_line    0x000000000000ccca     0x1411 c:/intelfpga_lite/19.1/nios2eds/bin/gnu/h-x86_64-mingw32/bin/../lib/gcc/nios2-elf/8.3.1/../../../../../H-x86_64-mingw32/nios2-elf/lib\libc.a(lib_a-vfiprintf.o)
 .debug_line    0x000000000000e0db      0x353 c:/intelfpga_lite/19.1/nios2eds/bin/gnu/h-x86_64-mingw32/bin/../lib/gcc/nios2-elf/8.3.1/../../../../../H-x86_64-mingw32/nios2-elf/lib\libc.a(lib_a-wbuf.o)
 .debug_line    0x000000000000e42e      0x22f c:/intelfpga_lite/19.1/nios2eds/bin/gnu/h-x86_64-mingw32/bin/../lib/gcc/nios2-elf/8.3.1/../../../../../H-x86_64-mingw32/nios2-elf/lib\libc.a(lib_a-writer.o)
 .debug_line    0x000000000000e65d      0x230 c:/intelfpga_lite/19.1/nios2eds/bin/gnu/h-x86_64-mingw32/bin/../lib/gcc/nios2-elf/8.3.1/../../../../../H-x86_64-mingw32/nios2-elf/lib\libc.a(closer.o)
 .debug_line    0x000000000000e88d      0x279 c:/intelfpga_lite/19.1/nios2eds/bin/gnu/h-x86_64-mingw32/bin/../lib/gcc/nios2-elf/8.3.1/../../../../../H-x86_64-mingw32/nios2-elf/lib\libc.a(lib_a-callocr.o)
 .debug_line    0x000000000000eb06      0x2f9 c:/intelfpga_lite/19.1/nios2eds/bin/gnu/h-x86_64-mingw32/bin/../lib/gcc/nios2-elf/8.3.1/../../../../../H-x86_64-mingw32/nios2-elf/lib\libc.a(lib_a-fclose.o)
 .debug_line    0x000000000000edff      0x3ac c:/intelfpga_lite/19.1/nios2eds/bin/gnu/h-x86_64-mingw32/bin/../lib/gcc/nios2-elf/8.3.1/../../../../../H-x86_64-mingw32/nios2-elf/lib\libc.a(lib_a-fputwc.o)
 .debug_line    0x000000000000f1ab      0x2de c:/intelfpga_lite/19.1/nios2eds/bin/gnu/h-x86_64-mingw32/bin/../lib/gcc/nios2-elf/8.3.1/../../../../../H-x86_64-mingw32/nios2-elf/lib\libc.a(lib_a-fstatr.o)
 .debug_line    0x000000000000f489      0x1d2 c:/intelfpga_lite/19.1/nios2eds/bin/gnu/h-x86_64-mingw32/bin/../lib/gcc/nios2-elf/8.3.1/../../../../../H-x86_64-mingw32/nios2-elf/lib\libc.a(lib_a-int_errno.o)
 .debug_line    0x000000000000f65b      0x231 c:/intelfpga_lite/19.1/nios2eds/bin/gnu/h-x86_64-mingw32/bin/../lib/gcc/nios2-elf/8.3.1/../../../../../H-x86_64-mingw32/nios2-elf/lib\libc.a(lib_a-isattyr.o)
 .debug_line    0x000000000000f88c      0x34e c:/intelfpga_lite/19.1/nios2eds/bin/gnu/h-x86_64-mingw32/bin/../lib/gcc/nios2-elf/8.3.1/../../../../../H-x86_64-mingw32/nios2-elf/lib\libc.a(lib_a-locale.o)
 .debug_line    0x000000000000fbda      0x22f c:/intelfpga_lite/19.1/nios2eds/bin/gnu/h-x86_64-mingw32/bin/../lib/gcc/nios2-elf/8.3.1/../../../../../H-x86_64-mingw32/nios2-elf/lib\libc.a(lib_a-lseekr.o)
 .debug_line    0x000000000000fe09      0x2d7 c:/intelfpga_lite/19.1/nios2eds/bin/gnu/h-x86_64-mingw32/bin/../lib/gcc/nios2-elf/8.3.1/../../../../../H-x86_64-mingw32/nios2-elf/lib\libc.a(lib_a-mbtowc_r.o)
 .debug_line    0x00000000000100e0      0x22e c:/intelfpga_lite/19.1/nios2eds/bin/gnu/h-x86_64-mingw32/bin/../lib/gcc/nios2-elf/8.3.1/../../../../../H-x86_64-mingw32/nios2-elf/lib\libc.a(lib_a-readr.o)
 .debug_line    0x000000000001030e      0x3e6 c:/intelfpga_lite/19.1/nios2eds/bin/gnu/h-x86_64-mingw32/bin/../lib/gcc/nios2-elf/8.3.1/../../../../../H-x86_64-mingw32/nios2-elf/lib\libc.a(lib_a-refill.o)
 .debug_line    0x00000000000106f4      0x267 c:/intelfpga_lite/19.1/nios2eds/bin/gnu/h-x86_64-mingw32/bin/../lib/gcc/nios2-elf/8.3.1/../../../../../H-x86_64-mingw32/nios2-elf/lib\libc.a(lib_a-strcmp.o)
 .debug_line    0x000000000001095b      0x376 c:/intelfpga_lite/19.1/nios2eds/bin/gnu/h-x86_64-mingw32/bin/../lib/gcc/nios2-elf/8.3.1/../../../../../H-x86_64-mingw32/nios2-elf/lib\libc.a(lib_a-wcrtomb.o)
 .debug_line    0x0000000000010cd1      0x2c4 c:/intelfpga_lite/19.1/nios2eds/bin/gnu/h-x86_64-mingw32/bin/../lib/gcc/nios2-elf/8.3.1/../../../../../H-x86_64-mingw32/nios2-elf/lib\libc.a(lib_a-wctomb_r.o)
 .debug_line    0x0000000000010f95      0x39b c:/intelfpga_lite/19.1/nios2eds/bin/gnu/h-x86_64-mingw32/bin/../lib/gcc/nios2-elf/8.3.1\libgcc.a(_udivdi3.o)
 .debug_line    0x0000000000011330      0x3c9 c:/intelfpga_lite/19.1/nios2eds/bin/gnu/h-x86_64-mingw32/bin/../lib/gcc/nios2-elf/8.3.1\libgcc.a(_umoddi3.o)
 .debug_line    0x00000000000116f9      0x304 c:/intelfpga_lite/19.1/nios2eds/bin/gnu/h-x86_64-mingw32/bin/../lib/gcc/nios2-elf/8.3.1\libgcc.a(lib2-divmod.o)
 .debug_line    0x00000000000119fd      0xdc9 c:/intelfpga_lite/19.1/nios2eds/bin/gnu/h-x86_64-mingw32/bin/../lib/gcc/nios2-elf/8.3.1\libgcc.a(adddf3.o)
 .debug_line    0x00000000000127c6      0xa2f c:/intelfpga_lite/19.1/nios2eds/bin/gnu/h-x86_64-mingw32/bin/../lib/gcc/nios2-elf/8.3.1\libgcc.a(divdf3.o)
 .debug_line    0x00000000000131f5      0x134 c:/intelfpga_lite/19.1/nios2eds/bin/gnu/h-x86_64-mingw32/bin/../lib/gcc/nios2-elf/8.3.1\libgcc.a(eqdf2.o)
 .debug_line    0x0000000000013329      0x18e c:/intelfpga_lite/19.1/nios2eds/bin/gnu/h-x86_64-mingw32/bin/../lib/gcc/nios2-elf/8.3.1\libgcc.a(gedf2.o)
 .debug_line    0x00000000000134b7      0x18d c:/intelfpga_lite/19.1/nios2eds/bin/gnu/h-x86_64-mingw32/bin/../lib/gcc/nios2-elf/8.3.1\libgcc.a(ledf2.o)
 .debug_line    0x0000000000013644      0x867 c:/intelfpga_lite/19.1/nios2eds/bin/gnu/h-x86_64-mingw32/bin/../lib/gcc/nios2-elf/8.3.1\libgcc.a(muldf3.o)
 .debug_line    0x0000000000013eab      0xd33 c:/intelfpga_lite/19.1/nios2eds/bin/gnu/h-x86_64-mingw32/bin/../lib/gcc/nios2-elf/8.3.1\libgcc.a(subdf3.o)
 .debug_line    0x0000000000014bde      0x10e c:/intelfpga_lite/19.1/nios2eds/bin/gnu/h-x86_64-mingw32/bin/../lib/gcc/nios2-elf/8.3.1\libgcc.a(unorddf2.o)
 .debug_line    0x0000000000014cec      0x15f c:/intelfpga_lite/19.1/nios2eds/bin/gnu/h-x86_64-mingw32/bin/../lib/gcc/nios2-elf/8.3.1\libgcc.a(fixdfsi.o)
 .debug_line    0x0000000000014e4b      0x1ad c:/intelfpga_lite/19.1/nios2eds/bin/gnu/h-x86_64-mingw32/bin/../lib/gcc/nios2-elf/8.3.1\libgcc.a(floatsidf.o)
 .debug_line    0x0000000000014ff8      0x198 c:/intelfpga_lite/19.1/nios2eds/bin/gnu/h-x86_64-mingw32/bin/../lib/gcc/nios2-elf/8.3.1\libgcc.a(floatunsidf.o)
 .debug_line    0x0000000000015190       0xab c:/intelfpga_lite/19.1/nios2eds/bin/gnu/h-x86_64-mingw32/bin/../lib/gcc/nios2-elf/8.3.1\libgcc.a(_clz.o)
 .debug_line    0x000000000001523b       0xfa c:/intelfpga_lite/19.1/nios2eds/bin/gnu/h-x86_64-mingw32/bin/../lib/gcc/nios2-elf/8.3.1\libgcc.a(_clzsi2.o)
 .debug_line    0x0000000000015335      0x235 ../hit_pat_bsp\libucosii_bsp.a(alt_flash_dev.o)
 .debug_line    0x000000000001556a      0x322 ../hit_pat_bsp\libucosii_bsp.a(alt_fstat.o)
 .debug_line    0x000000000001588c      0x324 ../hit_pat_bsp\libucosii_bsp.a(alt_isatty.o)
 .debug_line    0x0000000000015bb0      0x265 ../hit_pat_bsp\libucosii_bsp.a(alt_lseek.o)
 .debug_line    0x0000000000015e15      0x333 ../hit_pat_bsp\libucosii_bsp.a(alt_main.o)
 .debug_line    0x0000000000016148      0x1a9 ../hit_pat_bsp\libucosii_bsp.a(alt_sbrk.o)
 .debug_line    0x00000000000162f1      0x21b ../hit_pat_bsp\libucosii_bsp.a(alt_env_lock.o)
 .debug_line    0x000000000001650c      0x29b ../hit_pat_bsp\libucosii_bsp.a(alt_malloc_lock.o)
 .debug_line    0x00000000000167a7      0xb32 ../hit_pat_bsp\libucosii_bsp.a(os_core.o)
 .debug_line    0x00000000000172d9      0x941 ../hit_pat_bsp\libucosii_bsp.a(os_flag.o)
 .debug_line    0x0000000000017c1a      0x42d ../hit_pat_bsp\libucosii_bsp.a(os_mem.o)
 .debug_line    0x0000000000018047      0x756 ../hit_pat_bsp\libucosii_bsp.a(os_mutex.o)
 .debug_line    0x000000000001879d      0x7dd ../hit_pat_bsp\libucosii_bsp.a(os_q.o)
 .debug_line    0x0000000000018f7a      0x589 ../hit_pat_bsp\libucosii_bsp.a(os_sem.o)
 .debug_line    0x0000000000019503      0x890 ../hit_pat_bsp\libucosii_bsp.a(os_task.o)
 .debug_line    0x0000000000019d93      0x368 ../hit_pat_bsp\libucosii_bsp.a(os_time.o)
 .debug_line    0x000000000001a0fb      0x4c1 ../hit_pat_bsp\libucosii_bsp.a(alt_sys_init.o)
 .debug_line    0x000000000001a5bc      0x20e ../hit_pat_bsp\libucosii_bsp.a(altera_avalon_timer_sc.o)
 .debug_line    0x000000000001a7ca     0x1c94 ../hit_pat_bsp\libucosii_bsp.a(altera_avalon_tse.o)
 .debug_line    0x000000000001c45e      0x234 ../hit_pat_bsp\libucosii_bsp.a(altera_avalon_uart_fd.o)
 .debug_line    0x000000000001c692      0x45b ../hit_pat_bsp\libucosii_bsp.a(altera_avalon_uart_init.o)
 .debug_line    0x000000000001caed      0x3b3 ../hit_pat_bsp\libucosii_bsp.a(altera_avalon_uart_read.o)
 .debug_line    0x000000000001cea0      0x389 ../hit_pat_bsp\libucosii_bsp.a(altera_avalon_uart_write.o)
 .debug_line    0x000000000001d229      0x5e8 ../hit_pat_bsp\libucosii_bsp.a(altera_generic_quad_spi_controller.o)
 .debug_line    0x000000000001d811      0xc46 ../hit_pat_bsp\libucosii_bsp.a(altera_msgdma.o)
 .debug_line    0x000000000001e457      0x713 ../hit_pat_bsp\libucosii_bsp.a(altera_onchip_flash.o)
 .debug_line    0x000000000001eb6a      0xb01 ../hit_pat_bsp\libucosii_bsp.a(ins_tse_mac.o)
 .debug_line    0x000000000001f66b      0x307 ../hit_pat_bsp\libucosii_bsp.a(alt_iniche_close.o)
 .debug_line    0x000000000001f972      0x35f ../hit_pat_bsp\libucosii_bsp.a(alt_iniche_dev.o)
 .debug_line    0x000000000001fcd1      0x2ff ../hit_pat_bsp\libucosii_bsp.a(alt_iniche_read.o)
 .debug_line    0x000000000001ffd0      0x2f4 ../hit_pat_bsp\libucosii_bsp.a(alt_iniche_write.o)
 .debug_line    0x00000000000202c4      0x88e ../hit_pat_bsp\libucosii_bsp.a(et_arp.o)
 .debug_line    0x0000000000020b52      0x3ee ../hit_pat_bsp\libucosii_bsp.a(iface.o)
 .debug_line    0x0000000000020f40      0x6fd ../hit_pat_bsp\libucosii_bsp.a(ipnet.o)
 .debug_line    0x000000000002163d      0x46a ../hit_pat_bsp\libucosii_bsp.a(ipstart.o)
 .debug_line    0x0000000000021aa7      0x6f9 ../hit_pat_bsp\libucosii_bsp.a(igmp_cmn.o)
 .debug_line    0x00000000000221a0      0x65d ../hit_pat_bsp\libucosii_bsp.a(bsdsock.o)
 .debug_line    0x00000000000227fd      0x2ac ../hit_pat_bsp\libucosii_bsp.a(cksum.o)
 .debug_line    0x0000000000022aa9      0x655 ../hit_pat_bsp\libucosii_bsp.a(in_utils.o)
 .debug_line    0x00000000000230fe      0x3c5 ../hit_pat_bsp\libucosii_bsp.a(netmain.o)
 .debug_line    0x00000000000234c3      0x49e ../hit_pat_bsp\libucosii_bsp.a(tk_crnos.o)
 .debug_line    0x0000000000023961      0x35f ../hit_pat_bsp\libucosii_bsp.a(ping.o)
 .debug_line    0x0000000000023cc0      0x521 ../hit_pat_bsp\libucosii_bsp.a(pktalloc.o)
 .debug_line    0x00000000000241e1      0x327 ../hit_pat_bsp\libucosii_bsp.a(q.o)
 .debug_line    0x0000000000024508       0xaf ../hit_pat_bsp\libucosii_bsp.a(asm_cksum.o)
 .debug_line    0x00000000000245b7      0x338 ../hit_pat_bsp\libucosii_bsp.a(brdutils.o)
 .debug_line    0x00000000000248ef      0x42e ../hit_pat_bsp\libucosii_bsp.a(osportco.o)
 .debug_line    0x0000000000024d1d      0x52d ../hit_pat_bsp\libucosii_bsp.a(targnios.o)
 .debug_line    0x000000000002524a      0xab0 ../hit_pat_bsp\libucosii_bsp.a(nptcp.o)
 .debug_line    0x0000000000025cfa      0x600 ../hit_pat_bsp\libucosii_bsp.a(rawsock.o)
 .debug_line    0x00000000000262fa      0xa4d ../hit_pat_bsp\libucosii_bsp.a(sockcall.o)
 .debug_line    0x0000000000026d47      0xe22 ../hit_pat_bsp\libucosii_bsp.a(socket.o)
 .debug_line    0x0000000000027b69      0x85a ../hit_pat_bsp\libucosii_bsp.a(socket2.o)
 .debug_line    0x00000000000283c3      0x5ea ../hit_pat_bsp\libucosii_bsp.a(soselect.o)
 .debug_line    0x00000000000289ad     0x127c ../hit_pat_bsp\libucosii_bsp.a(tcp_in.o)
 .debug_line    0x0000000000029c29      0x9d9 ../hit_pat_bsp\libucosii_bsp.a(tcp_out.o)
 .debug_line    0x000000000002a602      0x60a ../hit_pat_bsp\libucosii_bsp.a(tcp_subr.o)
 .debug_line    0x000000000002ac0c      0x5c8 ../hit_pat_bsp\libucosii_bsp.a(tcp_timr.o)
 .debug_line    0x000000000002b1d4      0x64f ../hit_pat_bsp\libucosii_bsp.a(tcp_usr.o)
 .debug_line    0x000000000002b823      0x30d ../hit_pat_bsp\libucosii_bsp.a(tcpport.o)
 .debug_line    0x000000000002bb30      0x697 ../hit_pat_bsp\libucosii_bsp.a(udpsock.o)
 .debug_line    0x000000000002c1c7      0x1b6 ../hit_pat_bsp\libucosii_bsp.a(alt_busy_sleep.o)
 .debug_line    0x000000000002c37d      0x280 ../hit_pat_bsp\libucosii_bsp.a(alt_close.o)
 .debug_line    0x000000000002c5fd      0x1c1 ../hit_pat_bsp\libucosii_bsp.a(alt_dcache_flush.o)
 .debug_line    0x000000000002c7be      0x2b9 ../hit_pat_bsp\libucosii_bsp.a(alt_dev.o)
 .debug_line    0x000000000002ca77      0x1e3 ../hit_pat_bsp\libucosii_bsp.a(alt_dev_llist_insert.o)
 .debug_line    0x000000000002cc5a       0x66 ../hit_pat_bsp\libucosii_bsp.a(alt_do_ctors.o)
 .debug_line    0x000000000002ccc0       0x66 ../hit_pat_bsp\libucosii_bsp.a(alt_do_dtors.o)
 .debug_line    0x000000000002cd26      0x131 ../hit_pat_bsp\libucosii_bsp.a(alt_errno.o)
 .debug_line    0x000000000002ce57      0x1f8 ../hit_pat_bsp\libucosii_bsp.a(alt_find_dev.o)
 .debug_line    0x000000000002d04f      0x203 ../hit_pat_bsp\libucosii_bsp.a(alt_iic.o)
 .debug_line    0x000000000002d252      0x1d5 ../hit_pat_bsp\libucosii_bsp.a(alt_iic_isr_register.o)
 .debug_line    0x000000000002d427      0x2ec ../hit_pat_bsp\libucosii_bsp.a(alt_io_redirect.o)
 .debug_line    0x000000000002d713       0x6b ../hit_pat_bsp\libucosii_bsp.a(alt_irq_entry.o)
 .debug_line    0x000000000002d77e      0x234 ../hit_pat_bsp\libucosii_bsp.a(alt_irq_handler.o)
 .debug_line    0x000000000002d9b2       0x50 ../hit_pat_bsp\libucosii_bsp.a(alt_irq_vars.o)
 .debug_line    0x000000000002da02      0x2c3 ../hit_pat_bsp\libucosii_bsp.a(alt_open.o)
 .debug_line    0x000000000002dcc5      0x155 ../hit_pat_bsp\libucosii_bsp.a(alt_printf.o)
 .debug_line    0x000000000002de1a      0x125 ../hit_pat_bsp\libucosii_bsp.a(alt_putchar.o)
 .debug_line    0x000000000002df3f      0x353 ../hit_pat_bsp\libucosii_bsp.a(alt_read.o)
 .debug_line    0x000000000002e292      0x1d9 ../hit_pat_bsp\libucosii_bsp.a(alt_release_fd.o)
 .debug_line    0x000000000002e46b      0x19d ../hit_pat_bsp\libucosii_bsp.a(alt_remap_cached.o)
 .debug_line    0x000000000002e608      0x290 ../hit_pat_bsp\libucosii_bsp.a(alt_tick.o)
 .debug_line    0x000000000002e898      0x1a1 ../hit_pat_bsp\libucosii_bsp.a(alt_uncached_free.o)
 .debug_line    0x000000000002ea39      0x1b3 ../hit_pat_bsp\libucosii_bsp.a(alt_uncached_malloc.o)
 .debug_line    0x000000000002ebec      0x225 ../hit_pat_bsp\libucosii_bsp.a(alt_usleep.o)
 .debug_line    0x000000000002ee11      0x356 ../hit_pat_bsp\libucosii_bsp.a(alt_write.o)
 .debug_line    0x000000000002f167      0x137 ../hit_pat_bsp\libucosii_bsp.a(altera_nios2_gen2_irq.o)
 .debug_line    0x000000000002f29e       0x86 ../hit_pat_bsp\libucosii_bsp.a(os_cpu_a.o)
 .debug_line    0x000000000002f324      0x224 ../hit_pat_bsp\libucosii_bsp.a(os_cpu_c.o)
 .debug_line    0x000000000002f548      0x41b ../hit_pat_bsp\libucosii_bsp.a(allports.o)
 .debug_line    0x000000000002f963      0x40c ../hit_pat_bsp\libucosii_bsp.a(timeouts.o)
 .debug_line    0x000000000002fd6f      0x33f ../hit_pat_bsp\libucosii_bsp.a(tk_misc.o)
 .debug_line    0x00000000000300ae      0x328 ../hit_pat_bsp\libucosii_bsp.a(alt_iniche_fcntl.o)
 .debug_line    0x00000000000303d6      0x790 ../hit_pat_bsp\libucosii_bsp.a(icmp.o)
 .debug_line    0x0000000000030b66      0x9c5 ../hit_pat_bsp\libucosii_bsp.a(ip.o)
 .debug_line    0x000000000003152b      0x73d ../hit_pat_bsp\libucosii_bsp.a(ipdemux.o)
 .debug_line    0x0000000000031c68      0x3cd ../hit_pat_bsp\libucosii_bsp.a(ipmc.o)
 .debug_line    0x0000000000032035      0x2f0 ../hit_pat_bsp\libucosii_bsp.a(ipport.o)
 .debug_line    0x0000000000032325      0x452 ../hit_pat_bsp\libucosii_bsp.a(ipraw.o)
 .debug_line    0x0000000000032777      0x4a7 ../hit_pat_bsp\libucosii_bsp.a(iproute.o)
 .debug_line    0x0000000000032c1e      0x76f ../hit_pat_bsp\libucosii_bsp.a(udp.o)
 .debug_line    0x000000000003338d      0x3c0 ../hit_pat_bsp\libucosii_bsp.a(igmp.o)
 .debug_line    0x000000000003374d      0x4e1 ../hit_pat_bsp\libucosii_bsp.a(igmp2.o)
 .debug_line    0x0000000000033c2e      0x635 ../hit_pat_bsp\libucosii_bsp.a(ipopt.o)
 .debug_line    0x0000000000034263      0x454 ../hit_pat_bsp\libucosii_bsp.a(u_mctest.o)
 .debug_line    0x00000000000346b7      0x394 ../hit_pat_bsp\libucosii_bsp.a(memdev.o)
 .debug_line    0x0000000000034a4b      0x56f ../hit_pat_bsp\libucosii_bsp.a(parseip.o)
 .debug_line    0x0000000000034fba      0x35c ../hit_pat_bsp\libucosii_bsp.a(tcpcksum.o)
 .debug_line    0x0000000000035316      0x3ae ../hit_pat_bsp\libucosii_bsp.a(udp_open.o)
 .debug_line    0x00000000000356c4      0x5bd ../hit_pat_bsp\libucosii_bsp.a(in_pcb.o)
 .debug_line    0x0000000000035c81      0xaab ../hit_pat_bsp\libucosii_bsp.a(vfsfiles.o)
 .debug_line    0x000000000003672c      0x290 ../hit_pat_bsp\libucosii_bsp.a(vfsport.o)
 .debug_line    0x00000000000369bc       0xb3 ../hit_pat_bsp\libucosii_bsp.a(alt_exception_entry.o)
 .debug_line    0x0000000000036a6f      0x359 ../hit_pat_bsp\libucosii_bsp.a(alt_fcntl.o)
 .debug_line    0x0000000000036dc8      0x226 ../hit_pat_bsp\libucosii_bsp.a(alt_find_file.o)
 .debug_line    0x0000000000036fee      0x23c ../hit_pat_bsp\libucosii_bsp.a(alt_get_fd.o)
 .debug_line    0x000000000003722a       0xda ../hit_pat_bsp\libucosii_bsp.a(alt_instruction_exception_entry.o)
 .debug_line    0x0000000000037304      0x1fb c:/intelfpga_lite/19.1/nios2eds/bin/gnu/h-x86_64-mingw32/bin/../lib/gcc/nios2-elf/8.3.1/../../../../../H-x86_64-mingw32/nios2-elf/lib\libc.a(lib_a-atexit.o)
 .debug_line    0x00000000000374ff      0x20c c:/intelfpga_lite/19.1/nios2eds/bin/gnu/h-x86_64-mingw32/bin/../lib/gcc/nios2-elf/8.3.1/../../../../../H-x86_64-mingw32/nios2-elf/lib\libc.a(lib_a-atoi.o)
 .debug_line    0x000000000003770b      0x223 c:/intelfpga_lite/19.1/nios2eds/bin/gnu/h-x86_64-mingw32/bin/../lib/gcc/nios2-elf/8.3.1/../../../../../H-x86_64-mingw32/nios2-elf/lib\libc.a(lib_a-exit.o)
 .debug_line    0x000000000003792e      0x1fc c:/intelfpga_lite/19.1/nios2eds/bin/gnu/h-x86_64-mingw32/bin/../lib/gcc/nios2-elf/8.3.1/../../../../../H-x86_64-mingw32/nios2-elf/lib\libc.a(lib_a-malign.o)
 .debug_line    0x0000000000037b2a      0x2d8 c:/intelfpga_lite/19.1/nios2eds/bin/gnu/h-x86_64-mingw32/bin/../lib/gcc/nios2-elf/8.3.1/../../../../../H-x86_64-mingw32/nios2-elf/lib\libc.a(lib_a-malignr.o)
 .debug_line    0x0000000000037e02      0x219 c:/intelfpga_lite/19.1/nios2eds/bin/gnu/h-x86_64-mingw32/bin/../lib/gcc/nios2-elf/8.3.1/../../../../../H-x86_64-mingw32/nios2-elf/lib\libc.a(lib_a-malloc.o)
 .debug_line    0x000000000003801b      0x25f c:/intelfpga_lite/19.1/nios2eds/bin/gnu/h-x86_64-mingw32/bin/../lib/gcc/nios2-elf/8.3.1/../../../../../H-x86_64-mingw32/nios2-elf/lib\libc.a(lib_a-memcmp.o)
 .debug_line    0x000000000003827a      0x2d6 c:/intelfpga_lite/19.1/nios2eds/bin/gnu/h-x86_64-mingw32/bin/../lib/gcc/nios2-elf/8.3.1/../../../../../H-x86_64-mingw32/nios2-elf/lib\libc.a(lib_a-sprintf.o)
 .debug_line    0x0000000000038550      0x2e2 c:/intelfpga_lite/19.1/nios2eds/bin/gnu/h-x86_64-mingw32/bin/../lib/gcc/nios2-elf/8.3.1/../../../../../H-x86_64-mingw32/nios2-elf/lib\libc.a(lib_a-strchr.o)
 .debug_line    0x0000000000038832      0x252 c:/intelfpga_lite/19.1/nios2eds/bin/gnu/h-x86_64-mingw32/bin/../lib/gcc/nios2-elf/8.3.1/../../../../../H-x86_64-mingw32/nios2-elf/lib\libc.a(lib_a-strcpy.o)
 .debug_line    0x0000000000038a84      0x2c5 c:/intelfpga_lite/19.1/nios2eds/bin/gnu/h-x86_64-mingw32/bin/../lib/gcc/nios2-elf/8.3.1/../../../../../H-x86_64-mingw32/nios2-elf/lib\libc.a(lib_a-strncmp.o)
 .debug_line    0x0000000000038d49      0x47f c:/intelfpga_lite/19.1/nios2eds/bin/gnu/h-x86_64-mingw32/bin/../lib/gcc/nios2-elf/8.3.1/../../../../../H-x86_64-mingw32/nios2-elf/lib\libc.a(lib_a-strtol.o)
 .debug_line    0x00000000000391c8     0x1957 c:/intelfpga_lite/19.1/nios2eds/bin/gnu/h-x86_64-mingw32/bin/../lib/gcc/nios2-elf/8.3.1/../../../../../H-x86_64-mingw32/nios2-elf/lib\libc.a(lib_a-svfprintf.o)
 .debug_line    0x000000000003ab1f      0x253 c:/intelfpga_lite/19.1/nios2eds/bin/gnu/h-x86_64-mingw32/bin/../lib/gcc/nios2-elf/8.3.1/../../../../../H-x86_64-mingw32/nios2-elf/lib\libc.a(lib_a-vprintf.o)
 .debug_line    0x000000000003ad72      0x295 c:/intelfpga_lite/19.1/nios2eds/bin/gnu/h-x86_64-mingw32/bin/../lib/gcc/nios2-elf/8.3.1/../../../../../H-x86_64-mingw32/nios2-elf/lib\libc.a(lib_a-vsprintf.o)
 .debug_line    0x000000000003b007      0x283 c:/intelfpga_lite/19.1/nios2eds/bin/gnu/h-x86_64-mingw32/bin/../lib/gcc/nios2-elf/8.3.1/../../../../../H-x86_64-mingw32/nios2-elf/lib\libc.a(lib_a-__atexit.o)
 .debug_line    0x000000000003b28a      0x2c4 c:/intelfpga_lite/19.1/nios2eds/bin/gnu/h-x86_64-mingw32/bin/../lib/gcc/nios2-elf/8.3.1/../../../../../H-x86_64-mingw32/nios2-elf/lib\libc.a(lib_a-__call_atexit.o)
 .debug_line    0x000000000003b54e     0x10e5 c:/intelfpga_lite/19.1/nios2eds/bin/gnu/h-x86_64-mingw32/bin/../lib/gcc/nios2-elf/8.3.1/../../../../../H-x86_64-mingw32/nios2-elf/lib\libc.a(lib_a-svfiprintf.o)
 .debug_line    0x000000000003c633      0x224 c:/intelfpga_lite/19.1/nios2eds/bin/gnu/h-x86_64-mingw32/bin/../lib/gcc/nios2-elf/8.3.1/../../../../../H-x86_64-mingw32/nios2-elf/lib\libc.a(lib_a-vfprintfr_1.o)
 .debug_line    0x000000000003c857      0x1f6 ../hit_pat_bsp\libucosii_bsp.a(alt_exit.o)

.debug_frame    0x0000000000000000     0x8900
 *(.debug_frame)
 .debug_frame   0x0000000000000000      0x190 obj/default/src/control.o
 .debug_frame   0x0000000000000190       0x48 obj/default/src/main.o
 .debug_frame   0x00000000000001d8      0x128 obj/default/src/network_utilities.o
 .debug_frame   0x0000000000000300       0x5c obj/default/src/sensor.o
 .debug_frame   0x000000000000035c      0x16c obj/default/src/socket_server.o
 .debug_frame   0x00000000000004c8       0x5c obj/default/src/udpgen.o
 .debug_frame   0x0000000000000524      0x1a4 obj/default/src/utils.o
 .debug_frame   0x00000000000006c8       0x30 c:/intelfpga_lite/19.1/nios2eds/bin/gnu/h-x86_64-mingw32/bin/../lib/gcc/nios2-elf/8.3.1/../../../../../H-x86_64-mingw32/nios2-elf/lib\libc.a(lib_a-getchar.o)
 .debug_frame   0x00000000000006f8       0x48 c:/intelfpga_lite/19.1/nios2eds/bin/gnu/h-x86_64-mingw32/bin/../lib/gcc/nios2-elf/8.3.1/../../../../../H-x86_64-mingw32/nios2-elf/lib\libc.a(lib_a-printf.o)
 .debug_frame   0x0000000000000740       0x30 c:/intelfpga_lite/19.1/nios2eds/bin/gnu/h-x86_64-mingw32/bin/../lib/gcc/nios2-elf/8.3.1/../../../../../H-x86_64-mingw32/nios2-elf/lib\libc.a(lib_a-putchar.o)
 .debug_frame   0x0000000000000770       0x48 c:/intelfpga_lite/19.1/nios2eds/bin/gnu/h-x86_64-mingw32/bin/../lib/gcc/nios2-elf/8.3.1/../../../../../H-x86_64-mingw32/nios2-elf/lib\libc.a(lib_a-puts.o)
 .debug_frame   0x00000000000007b8       0x20 c:/intelfpga_lite/19.1/nios2eds/bin/gnu/h-x86_64-mingw32/bin/../lib/gcc/nios2-elf/8.3.1/../../../../../H-x86_64-mingw32/nios2-elf/lib\libc.a(lib_a-strlen.o)
 .debug_frame   0x00000000000007d8       0x98 c:/intelfpga_lite/19.1/nios2eds/bin/gnu/h-x86_64-mingw32/bin/../lib/gcc/nios2-elf/8.3.1/../../../../../H-x86_64-mingw32/nios2-elf/lib\libc.a(lib_a-vfprintf.o)
 .debug_frame   0x0000000000000870       0x38 c:/intelfpga_lite/19.1/nios2eds/bin/gnu/h-x86_64-mingw32/bin/../lib/gcc/nios2-elf/8.3.1/../../../../../H-x86_64-mingw32/nios2-elf/lib\libc.a(lib_a-wsetup.o)
 .debug_frame   0x00000000000008a8       0x9c c:/intelfpga_lite/19.1/nios2eds/bin/gnu/h-x86_64-mingw32/bin/../lib/gcc/nios2-elf/8.3.1/../../../../../H-x86_64-mingw32/nios2-elf/lib\libc.a(lib_a-dtoa.o)
 .debug_frame   0x0000000000000944       0x7c c:/intelfpga_lite/19.1/nios2eds/bin/gnu/h-x86_64-mingw32/bin/../lib/gcc/nios2-elf/8.3.1/../../../../../H-x86_64-mingw32/nios2-elf/lib\libc.a(lib_a-fflush.o)
 .debug_frame   0x00000000000009c0      0x124 c:/intelfpga_lite/19.1/nios2eds/bin/gnu/h-x86_64-mingw32/bin/../lib/gcc/nios2-elf/8.3.1/../../../../../H-x86_64-mingw32/nios2-elf/lib\libc.a(lib_a-findfp.o)
 .debug_frame   0x0000000000000ae4       0x78 c:/intelfpga_lite/19.1/nios2eds/bin/gnu/h-x86_64-mingw32/bin/../lib/gcc/nios2-elf/8.3.1/../../../../../H-x86_64-mingw32/nios2-elf/lib\libc.a(lib_a-freer.o)
 .debug_frame   0x0000000000000b5c       0x7c c:/intelfpga_lite/19.1/nios2eds/bin/gnu/h-x86_64-mingw32/bin/../lib/gcc/nios2-elf/8.3.1/../../../../../H-x86_64-mingw32/nios2-elf/lib\libc.a(lib_a-fvwrite.o)
 .debug_frame   0x0000000000000bd8       0x7c c:/intelfpga_lite/19.1/nios2eds/bin/gnu/h-x86_64-mingw32/bin/../lib/gcc/nios2-elf/8.3.1/../../../../../H-x86_64-mingw32/nios2-elf/lib\libc.a(lib_a-fwalk.o)
 .debug_frame   0x0000000000000c54       0x6c c:/intelfpga_lite/19.1/nios2eds/bin/gnu/h-x86_64-mingw32/bin/../lib/gcc/nios2-elf/8.3.1/../../../../../H-x86_64-mingw32/nios2-elf/lib\libc.a(lib_a-getc.o)
 .debug_frame   0x0000000000000cc0       0x40 c:/intelfpga_lite/19.1/nios2eds/bin/gnu/h-x86_64-mingw32/bin/../lib/gcc/nios2-elf/8.3.1/../../../../../H-x86_64-mingw32/nios2-elf/lib\libc.a(lib_a-localeconv.o)
 .debug_frame   0x0000000000000d00       0x68 c:/intelfpga_lite/19.1/nios2eds/bin/gnu/h-x86_64-mingw32/bin/../lib/gcc/nios2-elf/8.3.1/../../../../../H-x86_64-mingw32/nios2-elf/lib\libc.a(lib_a-makebuf.o)
 .debug_frame   0x0000000000000d68       0x58 c:/intelfpga_lite/19.1/nios2eds/bin/gnu/h-x86_64-mingw32/bin/../lib/gcc/nios2-elf/8.3.1/../../../../../H-x86_64-mingw32/nios2-elf/lib\libc.a(lib_a-mallocr.o)
 .debug_frame   0x0000000000000dc0       0x20 c:/intelfpga_lite/19.1/nios2eds/bin/gnu/h-x86_64-mingw32/bin/../lib/gcc/nios2-elf/8.3.1/../../../../../H-x86_64-mingw32/nios2-elf/lib\libc.a(lib_a-memchr.o)
 .debug_frame   0x0000000000000de0       0x20 c:/intelfpga_lite/19.1/nios2eds/bin/gnu/h-x86_64-mingw32/bin/../lib/gcc/nios2-elf/8.3.1/../../../../../H-x86_64-mingw32/nios2-elf/lib\libc.a(lib_a-memcpy.o)
 .debug_frame   0x0000000000000e00       0x20 c:/intelfpga_lite/19.1/nios2eds/bin/gnu/h-x86_64-mingw32/bin/../lib/gcc/nios2-elf/8.3.1/../../../../../H-x86_64-mingw32/nios2-elf/lib\libc.a(lib_a-memmove.o)
 .debug_frame   0x0000000000000e20       0x20 c:/intelfpga_lite/19.1/nios2eds/bin/gnu/h-x86_64-mingw32/bin/../lib/gcc/nios2-elf/8.3.1/../../../../../H-x86_64-mingw32/nios2-elf/lib\libc.a(lib_a-memset.o)
 .debug_frame   0x0000000000000e40      0x2dc c:/intelfpga_lite/19.1/nios2eds/bin/gnu/h-x86_64-mingw32/bin/../lib/gcc/nios2-elf/8.3.1/../../../../../H-x86_64-mingw32/nios2-elf/lib\libc.a(lib_a-mprec.o)
 .debug_frame   0x000000000000111c       0x78 c:/intelfpga_lite/19.1/nios2eds/bin/gnu/h-x86_64-mingw32/bin/../lib/gcc/nios2-elf/8.3.1/../../../../../H-x86_64-mingw32/nios2-elf/lib\libc.a(lib_a-putc.o)
 .debug_frame   0x0000000000001194       0x70 c:/intelfpga_lite/19.1/nios2eds/bin/gnu/h-x86_64-mingw32/bin/../lib/gcc/nios2-elf/8.3.1/../../../../../H-x86_64-mingw32/nios2-elf/lib\libc.a(lib_a-reallocr.o)
 .debug_frame   0x0000000000001204       0x48 c:/intelfpga_lite/19.1/nios2eds/bin/gnu/h-x86_64-mingw32/bin/../lib/gcc/nios2-elf/8.3.1/../../../../../H-x86_64-mingw32/nios2-elf/lib\libc.a(lib_a-rget.o)
 .debug_frame   0x000000000000124c       0x3c c:/intelfpga_lite/19.1/nios2eds/bin/gnu/h-x86_64-mingw32/bin/../lib/gcc/nios2-elf/8.3.1/../../../../../H-x86_64-mingw32/nios2-elf/lib\libc.a(lib_a-sbrkr.o)
 .debug_frame   0x0000000000001288       0xb8 c:/intelfpga_lite/19.1/nios2eds/bin/gnu/h-x86_64-mingw32/bin/../lib/gcc/nios2-elf/8.3.1/../../../../../H-x86_64-mingw32/nios2-elf/lib\libc.a(lib_a-stdio.o)
 .debug_frame   0x0000000000001340       0xec c:/intelfpga_lite/19.1/nios2eds/bin/gnu/h-x86_64-mingw32/bin/../lib/gcc/nios2-elf/8.3.1/../../../../../H-x86_64-mingw32/nios2-elf/lib\libc.a(lib_a-vfiprintf.o)
 .debug_frame   0x000000000000142c       0x50 c:/intelfpga_lite/19.1/nios2eds/bin/gnu/h-x86_64-mingw32/bin/../lib/gcc/nios2-elf/8.3.1/../../../../../H-x86_64-mingw32/nios2-elf/lib\libc.a(lib_a-wbuf.o)
 .debug_frame   0x000000000000147c       0x3c c:/intelfpga_lite/19.1/nios2eds/bin/gnu/h-x86_64-mingw32/bin/../lib/gcc/nios2-elf/8.3.1/../../../../../H-x86_64-mingw32/nios2-elf/lib\libc.a(lib_a-writer.o)
 .debug_frame   0x00000000000014b8       0x3c c:/intelfpga_lite/19.1/nios2eds/bin/gnu/h-x86_64-mingw32/bin/../lib/gcc/nios2-elf/8.3.1/../../../../../H-x86_64-mingw32/nios2-elf/lib\libc.a(closer.o)
 .debug_frame   0x00000000000014f4       0x38 c:/intelfpga_lite/19.1/nios2eds/bin/gnu/h-x86_64-mingw32/bin/../lib/gcc/nios2-elf/8.3.1/../../../../../H-x86_64-mingw32/nios2-elf/lib\libc.a(lib_a-callocr.o)
 .debug_frame   0x000000000000152c       0x4c c:/intelfpga_lite/19.1/nios2eds/bin/gnu/h-x86_64-mingw32/bin/../lib/gcc/nios2-elf/8.3.1/../../../../../H-x86_64-mingw32/nios2-elf/lib\libc.a(lib_a-fclose.o)
 .debug_frame   0x0000000000001578       0x7c c:/intelfpga_lite/19.1/nios2eds/bin/gnu/h-x86_64-mingw32/bin/../lib/gcc/nios2-elf/8.3.1/../../../../../H-x86_64-mingw32/nios2-elf/lib\libc.a(lib_a-fputwc.o)
 .debug_frame   0x00000000000015f4       0x3c c:/intelfpga_lite/19.1/nios2eds/bin/gnu/h-x86_64-mingw32/bin/../lib/gcc/nios2-elf/8.3.1/../../../../../H-x86_64-mingw32/nios2-elf/lib\libc.a(lib_a-fstatr.o)
 .debug_frame   0x0000000000001630       0x3c c:/intelfpga_lite/19.1/nios2eds/bin/gnu/h-x86_64-mingw32/bin/../lib/gcc/nios2-elf/8.3.1/../../../../../H-x86_64-mingw32/nios2-elf/lib\libc.a(lib_a-isattyr.o)
 .debug_frame   0x000000000000166c       0x58 c:/intelfpga_lite/19.1/nios2eds/bin/gnu/h-x86_64-mingw32/bin/../lib/gcc/nios2-elf/8.3.1/../../../../../H-x86_64-mingw32/nios2-elf/lib\libc.a(lib_a-locale.o)
 .debug_frame   0x00000000000016c4       0x3c c:/intelfpga_lite/19.1/nios2eds/bin/gnu/h-x86_64-mingw32/bin/../lib/gcc/nios2-elf/8.3.1/../../../../../H-x86_64-mingw32/nios2-elf/lib\libc.a(lib_a-lseekr.o)
 .debug_frame   0x0000000000001700       0x40 c:/intelfpga_lite/19.1/nios2eds/bin/gnu/h-x86_64-mingw32/bin/../lib/gcc/nios2-elf/8.3.1/../../../../../H-x86_64-mingw32/nios2-elf/lib\libc.a(lib_a-mbtowc_r.o)
 .debug_frame   0x0000000000001740       0x3c c:/intelfpga_lite/19.1/nios2eds/bin/gnu/h-x86_64-mingw32/bin/../lib/gcc/nios2-elf/8.3.1/../../../../../H-x86_64-mingw32/nios2-elf/lib\libc.a(lib_a-readr.o)
 .debug_frame   0x000000000000177c       0x4c c:/intelfpga_lite/19.1/nios2eds/bin/gnu/h-x86_64-mingw32/bin/../lib/gcc/nios2-elf/8.3.1/../../../../../H-x86_64-mingw32/nios2-elf/lib\libc.a(lib_a-refill.o)
 .debug_frame   0x00000000000017c8       0x20 c:/intelfpga_lite/19.1/nios2eds/bin/gnu/h-x86_64-mingw32/bin/../lib/gcc/nios2-elf/8.3.1/../../../../../H-x86_64-mingw32/nios2-elf/lib\libc.a(lib_a-strcmp.o)
 .debug_frame   0x00000000000017e8       0x60 c:/intelfpga_lite/19.1/nios2eds/bin/gnu/h-x86_64-mingw32/bin/../lib/gcc/nios2-elf/8.3.1/../../../../../H-x86_64-mingw32/nios2-elf/lib\libc.a(lib_a-wcrtomb.o)
 .debug_frame   0x0000000000001848       0x30 c:/intelfpga_lite/19.1/nios2eds/bin/gnu/h-x86_64-mingw32/bin/../lib/gcc/nios2-elf/8.3.1/../../../../../H-x86_64-mingw32/nios2-elf/lib\libc.a(lib_a-wctomb_r.o)
 .debug_frame   0x0000000000001878       0x54 c:/intelfpga_lite/19.1/nios2eds/bin/gnu/h-x86_64-mingw32/bin/../lib/gcc/nios2-elf/8.3.1\libgcc.a(_udivdi3.o)
 .debug_frame   0x00000000000018cc       0x54 c:/intelfpga_lite/19.1/nios2eds/bin/gnu/h-x86_64-mingw32/bin/../lib/gcc/nios2-elf/8.3.1\libgcc.a(_umoddi3.o)
 .debug_frame   0x0000000000001920       0x50 c:/intelfpga_lite/19.1/nios2eds/bin/gnu/h-x86_64-mingw32/bin/../lib/gcc/nios2-elf/8.3.1\libgcc.a(lib2-divmod.o)
 .debug_frame   0x0000000000001970       0x44 c:/intelfpga_lite/19.1/nios2eds/bin/gnu/h-x86_64-mingw32/bin/../lib/gcc/nios2-elf/8.3.1\libgcc.a(adddf3.o)
 .debug_frame   0x00000000000019b4       0x58 c:/intelfpga_lite/19.1/nios2eds/bin/gnu/h-x86_64-mingw32/bin/../lib/gcc/nios2-elf/8.3.1\libgcc.a(divdf3.o)
 .debug_frame   0x0000000000001a0c       0x20 c:/intelfpga_lite/19.1/nios2eds/bin/gnu/h-x86_64-mingw32/bin/../lib/gcc/nios2-elf/8.3.1\libgcc.a(eqdf2.o)
 .debug_frame   0x0000000000001a2c       0x20 c:/intelfpga_lite/19.1/nios2eds/bin/gnu/h-x86_64-mingw32/bin/../lib/gcc/nios2-elf/8.3.1\libgcc.a(gedf2.o)
 .debug_frame   0x0000000000001a4c       0x20 c:/intelfpga_lite/19.1/nios2eds/bin/gnu/h-x86_64-mingw32/bin/../lib/gcc/nios2-elf/8.3.1\libgcc.a(ledf2.o)
 .debug_frame   0x0000000000001a6c       0x54 c:/intelfpga_lite/19.1/nios2eds/bin/gnu/h-x86_64-mingw32/bin/../lib/gcc/nios2-elf/8.3.1\libgcc.a(muldf3.o)
 .debug_frame   0x0000000000001ac0       0x44 c:/intelfpga_lite/19.1/nios2eds/bin/gnu/h-x86_64-mingw32/bin/../lib/gcc/nios2-elf/8.3.1\libgcc.a(subdf3.o)
 .debug_frame   0x0000000000001b04       0x20 c:/intelfpga_lite/19.1/nios2eds/bin/gnu/h-x86_64-mingw32/bin/../lib/gcc/nios2-elf/8.3.1\libgcc.a(unorddf2.o)
 .debug_frame   0x0000000000001b24       0x20 c:/intelfpga_lite/19.1/nios2eds/bin/gnu/h-x86_64-mingw32/bin/../lib/gcc/nios2-elf/8.3.1\libgcc.a(fixdfsi.o)
 .debug_frame   0x0000000000001b44       0x38 c:/intelfpga_lite/19.1/nios2eds/bin/gnu/h-x86_64-mingw32/bin/../lib/gcc/nios2-elf/8.3.1\libgcc.a(floatsidf.o)
 .debug_frame   0x0000000000001b7c       0x34 c:/intelfpga_lite/19.1/nios2eds/bin/gnu/h-x86_64-mingw32/bin/../lib/gcc/nios2-elf/8.3.1\libgcc.a(floatunsidf.o)
 .debug_frame   0x0000000000001bb0       0x20 c:/intelfpga_lite/19.1/nios2eds/bin/gnu/h-x86_64-mingw32/bin/../lib/gcc/nios2-elf/8.3.1\libgcc.a(_clzsi2.o)
 .debug_frame   0x0000000000001bd0       0x60 ../hit_pat_bsp\libucosii_bsp.a(alt_flash_dev.o)
 .debug_frame   0x0000000000001c30       0x60 ../hit_pat_bsp\libucosii_bsp.a(alt_fstat.o)
 .debug_frame   0x0000000000001c90       0x60 ../hit_pat_bsp\libucosii_bsp.a(alt_isatty.o)
 .debug_frame   0x0000000000001cf0       0x60 ../hit_pat_bsp\libucosii_bsp.a(alt_lseek.o)
 .debug_frame   0x0000000000001d50       0x2c ../hit_pat_bsp\libucosii_bsp.a(alt_main.o)
 .debug_frame   0x0000000000001d7c       0x34 ../hit_pat_bsp\libucosii_bsp.a(alt_sbrk.o)
 .debug_frame   0x0000000000001db0       0x60 ../hit_pat_bsp\libucosii_bsp.a(alt_env_lock.o)
 .debug_frame   0x0000000000001e10       0x64 ../hit_pat_bsp\libucosii_bsp.a(alt_malloc_lock.o)
 .debug_frame   0x0000000000001e74      0x49c ../hit_pat_bsp\libucosii_bsp.a(os_core.o)
 .debug_frame   0x0000000000002310      0x200 ../hit_pat_bsp\libucosii_bsp.a(os_flag.o)
 .debug_frame   0x0000000000002510      0x118 ../hit_pat_bsp\libucosii_bsp.a(os_mem.o)
 .debug_frame   0x0000000000002628      0x11c ../hit_pat_bsp\libucosii_bsp.a(os_mutex.o)
 .debug_frame   0x0000000000002744      0x1bc ../hit_pat_bsp\libucosii_bsp.a(os_q.o)
 .debug_frame   0x0000000000002900      0x144 ../hit_pat_bsp\libucosii_bsp.a(os_sem.o)
 .debug_frame   0x0000000000002a44      0x19c ../hit_pat_bsp\libucosii_bsp.a(os_task.o)
 .debug_frame   0x0000000000002be0       0xd4 ../hit_pat_bsp\libucosii_bsp.a(os_time.o)
 .debug_frame   0x0000000000002cb4       0x88 ../hit_pat_bsp\libucosii_bsp.a(alt_sys_init.o)
 .debug_frame   0x0000000000002d3c       0x60 ../hit_pat_bsp\libucosii_bsp.a(altera_avalon_timer_sc.o)
 .debug_frame   0x0000000000002d9c      0x718 ../hit_pat_bsp\libucosii_bsp.a(altera_avalon_tse.o)
 .debug_frame   0x00000000000034b4       0x88 ../hit_pat_bsp\libucosii_bsp.a(altera_avalon_uart_fd.o)
 .debug_frame   0x000000000000353c       0xd4 ../hit_pat_bsp\libucosii_bsp.a(altera_avalon_uart_init.o)
 .debug_frame   0x0000000000003610       0x60 ../hit_pat_bsp\libucosii_bsp.a(altera_avalon_uart_read.o)
 .debug_frame   0x0000000000003670       0x60 ../hit_pat_bsp\libucosii_bsp.a(altera_avalon_uart_write.o)
 .debug_frame   0x00000000000036d0      0x198 ../hit_pat_bsp\libucosii_bsp.a(altera_generic_quad_spi_controller.o)
 .debug_frame   0x0000000000003868      0x59c ../hit_pat_bsp\libucosii_bsp.a(altera_msgdma.o)
 .debug_frame   0x0000000000003e04      0x1a4 ../hit_pat_bsp\libucosii_bsp.a(altera_onchip_flash.o)
 .debug_frame   0x0000000000003fa8      0x214 ../hit_pat_bsp\libucosii_bsp.a(ins_tse_mac.o)
 .debug_frame   0x00000000000041bc       0x38 ../hit_pat_bsp\libucosii_bsp.a(alt_iniche_close.o)
 .debug_frame   0x00000000000041f4       0x38 ../hit_pat_bsp\libucosii_bsp.a(alt_iniche_dev.o)
 .debug_frame   0x000000000000422c       0x38 ../hit_pat_bsp\libucosii_bsp.a(alt_iniche_read.o)
 .debug_frame   0x0000000000004264       0x38 ../hit_pat_bsp\libucosii_bsp.a(alt_iniche_write.o)
 .debug_frame   0x000000000000429c      0x1f0 ../hit_pat_bsp\libucosii_bsp.a(et_arp.o)
 .debug_frame   0x000000000000448c       0xac ../hit_pat_bsp\libucosii_bsp.a(iface.o)
 .debug_frame   0x0000000000004538       0xfc ../hit_pat_bsp\libucosii_bsp.a(ipnet.o)
 .debug_frame   0x0000000000004634       0xb0 ../hit_pat_bsp\libucosii_bsp.a(ipstart.o)
 .debug_frame   0x00000000000046e4      0x150 ../hit_pat_bsp\libucosii_bsp.a(igmp_cmn.o)
 .debug_frame   0x0000000000004834      0x19c ../hit_pat_bsp\libucosii_bsp.a(bsdsock.o)
 .debug_frame   0x00000000000049d0       0x5c ../hit_pat_bsp\libucosii_bsp.a(cksum.o)
 .debug_frame   0x0000000000004a2c      0x1f0 ../hit_pat_bsp\libucosii_bsp.a(in_utils.o)
 .debug_frame   0x0000000000004c1c       0x70 ../hit_pat_bsp\libucosii_bsp.a(netmain.o)
 .debug_frame   0x0000000000004c8c      0x128 ../hit_pat_bsp\libucosii_bsp.a(tk_crnos.o)
 .debug_frame   0x0000000000004db4       0x38 ../hit_pat_bsp\libucosii_bsp.a(ping.o)
 .debug_frame   0x0000000000004dec       0xfc ../hit_pat_bsp\libucosii_bsp.a(pktalloc.o)
 .debug_frame   0x0000000000004ee8       0x88 ../hit_pat_bsp\libucosii_bsp.a(q.o)
 .debug_frame   0x0000000000004f70      0x13c ../hit_pat_bsp\libucosii_bsp.a(brdutils.o)
 .debug_frame   0x00000000000050ac       0xd8 ../hit_pat_bsp\libucosii_bsp.a(osportco.o)
 .debug_frame   0x0000000000005184      0x198 ../hit_pat_bsp\libucosii_bsp.a(targnios.o)
 .debug_frame   0x000000000000531c      0x2cc ../hit_pat_bsp\libucosii_bsp.a(nptcp.o)
 .debug_frame   0x00000000000055e8       0x8c ../hit_pat_bsp\libucosii_bsp.a(rawsock.o)
 .debug_frame   0x0000000000005674      0x308 ../hit_pat_bsp\libucosii_bsp.a(sockcall.o)
 .debug_frame   0x000000000000597c      0x290 ../hit_pat_bsp\libucosii_bsp.a(socket.o)
 .debug_frame   0x0000000000005c0c      0x398 ../hit_pat_bsp\libucosii_bsp.a(socket2.o)
 .debug_frame   0x0000000000005fa4      0x178 ../hit_pat_bsp\libucosii_bsp.a(soselect.o)
 .debug_frame   0x000000000000611c      0x128 ../hit_pat_bsp\libucosii_bsp.a(tcp_in.o)
 .debug_frame   0x0000000000006244       0x88 ../hit_pat_bsp\libucosii_bsp.a(tcp_out.o)
 .debug_frame   0x00000000000062cc      0x168 ../hit_pat_bsp\libucosii_bsp.a(tcp_subr.o)
 .debug_frame   0x0000000000006434       0x84 ../hit_pat_bsp\libucosii_bsp.a(tcp_timr.o)
 .debug_frame   0x00000000000064b8       0xb0 ../hit_pat_bsp\libucosii_bsp.a(tcp_usr.o)
 .debug_frame   0x0000000000006568       0x38 ../hit_pat_bsp\libucosii_bsp.a(tcpport.o)
 .debug_frame   0x00000000000065a0      0x104 ../hit_pat_bsp\libucosii_bsp.a(udpsock.o)
 .debug_frame   0x00000000000066a4       0x38 ../hit_pat_bsp\libucosii_bsp.a(alt_busy_sleep.o)
 .debug_frame   0x00000000000066dc       0x60 ../hit_pat_bsp\libucosii_bsp.a(alt_close.o)
 .debug_frame   0x000000000000673c       0x34 ../hit_pat_bsp\libucosii_bsp.a(alt_dcache_flush.o)
 .debug_frame   0x0000000000006770       0x34 ../hit_pat_bsp\libucosii_bsp.a(alt_dev.o)
 .debug_frame   0x00000000000067a4       0x60 ../hit_pat_bsp\libucosii_bsp.a(alt_dev_llist_insert.o)
 .debug_frame   0x0000000000006804       0x38 ../hit_pat_bsp\libucosii_bsp.a(alt_do_ctors.o)
 .debug_frame   0x000000000000683c       0x38 ../hit_pat_bsp\libucosii_bsp.a(alt_do_dtors.o)
 .debug_frame   0x0000000000006874       0x38 ../hit_pat_bsp\libucosii_bsp.a(alt_find_dev.o)
 .debug_frame   0x00000000000068ac       0xa4 ../hit_pat_bsp\libucosii_bsp.a(alt_iic.o)
 .debug_frame   0x0000000000006950       0x38 ../hit_pat_bsp\libucosii_bsp.a(alt_iic_isr_register.o)
 .debug_frame   0x0000000000006988       0x60 ../hit_pat_bsp\libucosii_bsp.a(alt_io_redirect.o)
 .debug_frame   0x00000000000069e8       0x38 ../hit_pat_bsp\libucosii_bsp.a(alt_irq_handler.o)
 .debug_frame   0x0000000000006a20       0x84 ../hit_pat_bsp\libucosii_bsp.a(alt_open.o)
 .debug_frame   0x0000000000006aa4       0x38 ../hit_pat_bsp\libucosii_bsp.a(alt_printf.o)
 .debug_frame   0x0000000000006adc       0x38 ../hit_pat_bsp\libucosii_bsp.a(alt_putchar.o)
 .debug_frame   0x0000000000006b14       0x60 ../hit_pat_bsp\libucosii_bsp.a(alt_read.o)
 .debug_frame   0x0000000000006b74       0x34 ../hit_pat_bsp\libucosii_bsp.a(alt_release_fd.o)
 .debug_frame   0x0000000000006ba8       0x34 ../hit_pat_bsp\libucosii_bsp.a(alt_remap_cached.o)
 .debug_frame   0x0000000000006bdc       0x5c ../hit_pat_bsp\libucosii_bsp.a(alt_tick.o)
 .debug_frame   0x0000000000006c38       0x38 ../hit_pat_bsp\libucosii_bsp.a(alt_uncached_free.o)
 .debug_frame   0x0000000000006c70       0x38 ../hit_pat_bsp\libucosii_bsp.a(alt_uncached_malloc.o)
 .debug_frame   0x0000000000006ca8       0x3c ../hit_pat_bsp\libucosii_bsp.a(alt_usleep.o)
 .debug_frame   0x0000000000006ce4       0x60 ../hit_pat_bsp\libucosii_bsp.a(alt_write.o)
 .debug_frame   0x0000000000006d44       0x34 ../hit_pat_bsp\libucosii_bsp.a(altera_nios2_gen2_irq.o)
 .debug_frame   0x0000000000006d78      0x180 ../hit_pat_bsp\libucosii_bsp.a(os_cpu_c.o)
 .debug_frame   0x0000000000006ef8      0x134 ../hit_pat_bsp\libucosii_bsp.a(allports.o)
 .debug_frame   0x000000000000702c       0xb0 ../hit_pat_bsp\libucosii_bsp.a(timeouts.o)
 .debug_frame   0x00000000000070dc       0x5c ../hit_pat_bsp\libucosii_bsp.a(tk_misc.o)
 .debug_frame   0x0000000000007138       0x38 ../hit_pat_bsp\libucosii_bsp.a(alt_iniche_fcntl.o)
 .debug_frame   0x0000000000007170       0xbc ../hit_pat_bsp\libucosii_bsp.a(icmp.o)
 .debug_frame   0x000000000000722c      0x1a0 ../hit_pat_bsp\libucosii_bsp.a(ip.o)
 .debug_frame   0x00000000000073cc       0x90 ../hit_pat_bsp\libucosii_bsp.a(ipdemux.o)
 .debug_frame   0x000000000000745c       0x84 ../hit_pat_bsp\libucosii_bsp.a(ipmc.o)
 .debug_frame   0x00000000000074e0       0x78 ../hit_pat_bsp\libucosii_bsp.a(ipport.o)
 .debug_frame   0x0000000000007558       0xfc ../hit_pat_bsp\libucosii_bsp.a(ipraw.o)
 .debug_frame   0x0000000000007654       0x84 ../hit_pat_bsp\libucosii_bsp.a(iproute.o)
 .debug_frame   0x00000000000076d8      0x11c ../hit_pat_bsp\libucosii_bsp.a(udp.o)
 .debug_frame   0x00000000000077f4       0x38 ../hit_pat_bsp\libucosii_bsp.a(igmp.o)
 .debug_frame   0x000000000000782c       0xd4 ../hit_pat_bsp\libucosii_bsp.a(igmp2.o)
 .debug_frame   0x0000000000007900       0xb0 ../hit_pat_bsp\libucosii_bsp.a(ipopt.o)
 .debug_frame   0x00000000000079b0       0x64 ../hit_pat_bsp\libucosii_bsp.a(u_mctest.o)
 .debug_frame   0x0000000000007a14      0x158 ../hit_pat_bsp\libucosii_bsp.a(memdev.o)
 .debug_frame   0x0000000000007b6c      0x16c ../hit_pat_bsp\libucosii_bsp.a(parseip.o)
 .debug_frame   0x0000000000007cd8       0x38 ../hit_pat_bsp\libucosii_bsp.a(tcpcksum.o)
 .debug_frame   0x0000000000007d10       0x60 ../hit_pat_bsp\libucosii_bsp.a(udp_open.o)
 .debug_frame   0x0000000000007d70      0x14c ../hit_pat_bsp\libucosii_bsp.a(in_pcb.o)
 .debug_frame   0x0000000000007ebc      0x460 ../hit_pat_bsp\libucosii_bsp.a(vfsfiles.o)
 .debug_frame   0x000000000000831c       0x34 ../hit_pat_bsp\libucosii_bsp.a(vfsport.o)
 .debug_frame   0x0000000000008350       0x60 ../hit_pat_bsp\libucosii_bsp.a(alt_fcntl.o)
 .debug_frame   0x00000000000083b0       0x38 ../hit_pat_bsp\libucosii_bsp.a(alt_find_file.o)
 .debug_frame   0x00000000000083e8       0x38 ../hit_pat_bsp\libucosii_bsp.a(alt_get_fd.o)
 .debug_frame   0x0000000000008420       0x5c ../hit_pat_bsp\libucosii_bsp.a(alt_instruction_exception_entry.o)
 .debug_frame   0x000000000000847c       0x20 c:/intelfpga_lite/19.1/nios2eds/bin/gnu/h-x86_64-mingw32/bin/../lib/gcc/nios2-elf/8.3.1/../../../../../H-x86_64-mingw32/nios2-elf/lib\libc.a(lib_a-atexit.o)
 .debug_frame   0x000000000000849c       0x30 c:/intelfpga_lite/19.1/nios2eds/bin/gnu/h-x86_64-mingw32/bin/../lib/gcc/nios2-elf/8.3.1/../../../../../H-x86_64-mingw32/nios2-elf/lib\libc.a(lib_a-atoi.o)
 .debug_frame   0x00000000000084cc       0x28 c:/intelfpga_lite/19.1/nios2eds/bin/gnu/h-x86_64-mingw32/bin/../lib/gcc/nios2-elf/8.3.1/../../../../../H-x86_64-mingw32/nios2-elf/lib\libc.a(lib_a-exit.o)
 .debug_frame   0x00000000000084f4       0x20 c:/intelfpga_lite/19.1/nios2eds/bin/gnu/h-x86_64-mingw32/bin/../lib/gcc/nios2-elf/8.3.1/../../../../../H-x86_64-mingw32/nios2-elf/lib\libc.a(lib_a-malign.o)
 .debug_frame   0x0000000000008514       0x54 c:/intelfpga_lite/19.1/nios2eds/bin/gnu/h-x86_64-mingw32/bin/../lib/gcc/nios2-elf/8.3.1/../../../../../H-x86_64-mingw32/nios2-elf/lib\libc.a(lib_a-malignr.o)
 .debug_frame   0x0000000000008568       0x30 c:/intelfpga_lite/19.1/nios2eds/bin/gnu/h-x86_64-mingw32/bin/../lib/gcc/nios2-elf/8.3.1/../../../../../H-x86_64-mingw32/nios2-elf/lib\libc.a(lib_a-malloc.o)
 .debug_frame   0x0000000000008598       0x20 c:/intelfpga_lite/19.1/nios2eds/bin/gnu/h-x86_64-mingw32/bin/../lib/gcc/nios2-elf/8.3.1/../../../../../H-x86_64-mingw32/nios2-elf/lib\libc.a(lib_a-memcmp.o)
 .debug_frame   0x00000000000085b8       0x48 c:/intelfpga_lite/19.1/nios2eds/bin/gnu/h-x86_64-mingw32/bin/../lib/gcc/nios2-elf/8.3.1/../../../../../H-x86_64-mingw32/nios2-elf/lib\libc.a(lib_a-sprintf.o)
 .debug_frame   0x0000000000008600       0x20 c:/intelfpga_lite/19.1/nios2eds/bin/gnu/h-x86_64-mingw32/bin/../lib/gcc/nios2-elf/8.3.1/../../../../../H-x86_64-mingw32/nios2-elf/lib\libc.a(lib_a-strchr.o)
 .debug_frame   0x0000000000008620       0x20 c:/intelfpga_lite/19.1/nios2eds/bin/gnu/h-x86_64-mingw32/bin/../lib/gcc/nios2-elf/8.3.1/../../../../../H-x86_64-mingw32/nios2-elf/lib\libc.a(lib_a-strcpy.o)
 .debug_frame   0x0000000000008640       0x20 c:/intelfpga_lite/19.1/nios2eds/bin/gnu/h-x86_64-mingw32/bin/../lib/gcc/nios2-elf/8.3.1/../../../../../H-x86_64-mingw32/nios2-elf/lib\libc.a(lib_a-strncmp.o)
 .debug_frame   0x0000000000008660       0x84 c:/intelfpga_lite/19.1/nios2eds/bin/gnu/h-x86_64-mingw32/bin/../lib/gcc/nios2-elf/8.3.1/../../../../../H-x86_64-mingw32/nios2-elf/lib\libc.a(lib_a-strtol.o)
 .debug_frame   0x00000000000086e4       0x58 c:/intelfpga_lite/19.1/nios2eds/bin/gnu/h-x86_64-mingw32/bin/../lib/gcc/nios2-elf/8.3.1/../../../../../H-x86_64-mingw32/nios2-elf/lib\libc.a(lib_a-svfprintf.o)
 .debug_frame   0x000000000000873c       0x30 c:/intelfpga_lite/19.1/nios2eds/bin/gnu/h-x86_64-mingw32/bin/../lib/gcc/nios2-elf/8.3.1/../../../../../H-x86_64-mingw32/nios2-elf/lib\libc.a(lib_a-vprintf.o)
 .debug_frame   0x000000000000876c       0x3c c:/intelfpga_lite/19.1/nios2eds/bin/gnu/h-x86_64-mingw32/bin/../lib/gcc/nios2-elf/8.3.1/../../../../../H-x86_64-mingw32/nios2-elf/lib\libc.a(lib_a-vsprintf.o)
 .debug_frame   0x00000000000087a8       0x20 c:/intelfpga_lite/19.1/nios2eds/bin/gnu/h-x86_64-mingw32/bin/../lib/gcc/nios2-elf/8.3.1/../../../../../H-x86_64-mingw32/nios2-elf/lib\libc.a(lib_a-__atexit.o)
 .debug_frame   0x00000000000087c8       0x50 c:/intelfpga_lite/19.1/nios2eds/bin/gnu/h-x86_64-mingw32/bin/../lib/gcc/nios2-elf/8.3.1/../../../../../H-x86_64-mingw32/nios2-elf/lib\libc.a(lib_a-__call_atexit.o)
 .debug_frame   0x0000000000008818       0x9c c:/intelfpga_lite/19.1/nios2eds/bin/gnu/h-x86_64-mingw32/bin/../lib/gcc/nios2-elf/8.3.1/../../../../../H-x86_64-mingw32/nios2-elf/lib\libc.a(lib_a-svfiprintf.o)
 .debug_frame   0x00000000000088b4       0x20 c:/intelfpga_lite/19.1/nios2eds/bin/gnu/h-x86_64-mingw32/bin/../lib/gcc/nios2-elf/8.3.1/../../../../../H-x86_64-mingw32/nios2-elf/lib\libc.a(lib_a-vfprintfr_1.o)
 .debug_frame   0x00000000000088d4       0x2c ../hit_pat_bsp\libucosii_bsp.a(alt_exit.o)

.debug_str      0x0000000000000000     0xc2e6
 *(.debug_str)
 .debug_str     0x0000000000000000       0x4f d:/hit20v3/software/hit_pat/software/hit_pat_bsp//obj/HAL/src/crt0.o
 .debug_str     0x000000000000004f     0x17e8 obj/default/src/control.o
                                       0x19d4 (size before relaxing)
 .debug_str     0x0000000000001837       0x31 obj/default/src/main.o
                                       0x1670 (size before relaxing)
 .debug_str     0x0000000000001868      0x2fb obj/default/src/network_utilities.o
                                       0x1799 (size before relaxing)
 .debug_str     0x0000000000001b63       0x3c obj/default/src/sensor.o
                                       0x166f (size before relaxing)
 .debug_str     0x0000000000001b9f      0x1ca obj/default/src/socket_server.o
                                       0x1ab5 (size before relaxing)
 .debug_str     0x0000000000001d69      0x6f6 obj/default/src/tse_my_system.o
                                       0x125b (size before relaxing)
 .debug_str     0x000000000000245f       0x39 obj/default/src/udpgen.o
                                       0x167a (size before relaxing)
 .debug_str     0x0000000000002498       0xc5 obj/default/src/utils.o
                                       0x1708 (size before relaxing)
 .debug_str     0x000000000000255d      0x375 c:/intelfpga_lite/19.1/nios2eds/bin/gnu/h-x86_64-mingw32/bin/../lib/gcc/nios2-elf/8.3.1/../../../../../H-x86_64-mingw32/nios2-elf/lib\libc.a(lib_a-ctype_.o)
                                        0x8bb (size before relaxing)
 .debug_str     0x00000000000028d2      0x1d4 c:/intelfpga_lite/19.1/nios2eds/bin/gnu/h-x86_64-mingw32/bin/../lib/gcc/nios2-elf/8.3.1/../../../../../H-x86_64-mingw32/nios2-elf/lib\libc.a(lib_a-getchar.o)
                                        0x6eb (size before relaxing)
 .debug_str     0x0000000000002aa6       0xca c:/intelfpga_lite/19.1/nios2eds/bin/gnu/h-x86_64-mingw32/bin/../lib/gcc/nios2-elf/8.3.1/../../../../../H-x86_64-mingw32/nios2-elf/lib\libc.a(lib_a-impure.o)
                                        0x59a (size before relaxing)
 .debug_str     0x0000000000002b70       0x91 c:/intelfpga_lite/19.1/nios2eds/bin/gnu/h-x86_64-mingw32/bin/../lib/gcc/nios2-elf/8.3.1/../../../../../H-x86_64-mingw32/nios2-elf/lib\libc.a(lib_a-printf.o)
                                        0x72e (size before relaxing)
 .debug_str     0x0000000000002c01       0x4f c:/intelfpga_lite/19.1/nios2eds/bin/gnu/h-x86_64-mingw32/bin/../lib/gcc/nios2-elf/8.3.1/../../../../../H-x86_64-mingw32/nios2-elf/lib\libc.a(lib_a-putchar.o)
                                        0x6eb (size before relaxing)
 .debug_str     0x0000000000002c50       0xae c:/intelfpga_lite/19.1/nios2eds/bin/gnu/h-x86_64-mingw32/bin/../lib/gcc/nios2-elf/8.3.1/../../../../../H-x86_64-mingw32/nios2-elf/lib\libc.a(lib_a-puts.o)
                                        0x74f (size before relaxing)
 .debug_str     0x0000000000002cfe       0xcd c:/intelfpga_lite/19.1/nios2eds/bin/gnu/h-x86_64-mingw32/bin/../lib/gcc/nios2-elf/8.3.1/../../../../../H-x86_64-mingw32/nios2-elf/lib\libc.a(lib_a-strlen.o)
                                        0x5b1 (size before relaxing)
 .debug_str     0x0000000000002dcb      0x1dd c:/intelfpga_lite/19.1/nios2eds/bin/gnu/h-x86_64-mingw32/bin/../lib/gcc/nios2-elf/8.3.1/../../../../../H-x86_64-mingw32/nios2-elf/lib\libc.a(lib_a-vfprintf.o)
                                        0xcc5 (size before relaxing)
 .debug_str     0x0000000000002fa8       0x50 c:/intelfpga_lite/19.1/nios2eds/bin/gnu/h-x86_64-mingw32/bin/../lib/gcc/nios2-elf/8.3.1/../../../../../H-x86_64-mingw32/nios2-elf/lib\libc.a(lib_a-wsetup.o)
                                        0x71e (size before relaxing)
 .debug_str     0x0000000000002ff8      0x207 c:/intelfpga_lite/19.1/nios2eds/bin/gnu/h-x86_64-mingw32/bin/../lib/gcc/nios2-elf/8.3.1/../../../../../H-x86_64-mingw32/nios2-elf/lib\libc.a(lib_a-dtoa.o)
                                        0xa94 (size before relaxing)
 .debug_str     0x00000000000031ff       0x64 c:/intelfpga_lite/19.1/nios2eds/bin/gnu/h-x86_64-mingw32/bin/../lib/gcc/nios2-elf/8.3.1/../../../../../H-x86_64-mingw32/nios2-elf/lib\libc.a(lib_a-fflush.o)
                                        0x74c (size before relaxing)
 .debug_str     0x0000000000003263      0x16c c:/intelfpga_lite/19.1/nios2eds/bin/gnu/h-x86_64-mingw32/bin/../lib/gcc/nios2-elf/8.3.1/../../../../../H-x86_64-mingw32/nios2-elf/lib\libc.a(lib_a-findfp.o)
                                        0x86d (size before relaxing)
 .debug_str     0x00000000000033cf      0x1a9 c:/intelfpga_lite/19.1/nios2eds/bin/gnu/h-x86_64-mingw32/bin/../lib/gcc/nios2-elf/8.3.1/../../../../../H-x86_64-mingw32/nios2-elf/lib\libc.a(lib_a-freer.o)
                                        0x77b (size before relaxing)
 .debug_str     0x0000000000003578       0x6d c:/intelfpga_lite/19.1/nios2eds/bin/gnu/h-x86_64-mingw32/bin/../lib/gcc/nios2-elf/8.3.1/../../../../../H-x86_64-mingw32/nios2-elf/lib\libc.a(lib_a-fvwrite.o)
                                        0x7ae (size before relaxing)
 .debug_str     0x00000000000035e5       0x49 c:/intelfpga_lite/19.1/nios2eds/bin/gnu/h-x86_64-mingw32/bin/../lib/gcc/nios2-elf/8.3.1/../../../../../H-x86_64-mingw32/nios2-elf/lib\libc.a(lib_a-fwalk.o)
                                        0x710 (size before relaxing)
 .debug_str     0x000000000000362e       0x43 c:/intelfpga_lite/19.1/nios2eds/bin/gnu/h-x86_64-mingw32/bin/../lib/gcc/nios2-elf/8.3.1/../../../../../H-x86_64-mingw32/nios2-elf/lib\libc.a(lib_a-getc.o)
                                        0x708 (size before relaxing)
 .debug_str     0x0000000000003671      0x126 c:/intelfpga_lite/19.1/nios2eds/bin/gnu/h-x86_64-mingw32/bin/../lib/gcc/nios2-elf/8.3.1/../../../../../H-x86_64-mingw32/nios2-elf/lib\libc.a(lib_a-localeconv.o)
                                        0x92c (size before relaxing)
 .debug_str     0x0000000000003797      0x153 c:/intelfpga_lite/19.1/nios2eds/bin/gnu/h-x86_64-mingw32/bin/../lib/gcc/nios2-elf/8.3.1/../../../../../H-x86_64-mingw32/nios2-elf/lib\libc.a(lib_a-makebuf.o)
                                        0x89a (size before relaxing)
 .debug_str     0x00000000000038ea       0xaa c:/intelfpga_lite/19.1/nios2eds/bin/gnu/h-x86_64-mingw32/bin/../lib/gcc/nios2-elf/8.3.1/../../../../../H-x86_64-mingw32/nios2-elf/lib\libc.a(lib_a-mallocr.o)
                                        0x802 (size before relaxing)
 .debug_str     0x0000000000003994       0x4a c:/intelfpga_lite/19.1/nios2eds/bin/gnu/h-x86_64-mingw32/bin/../lib/gcc/nios2-elf/8.3.1/../../../../../H-x86_64-mingw32/nios2-elf/lib\libc.a(lib_a-memchr.o)
                                        0x5b8 (size before relaxing)
 .debug_str     0x00000000000039de       0x63 c:/intelfpga_lite/19.1/nios2eds/bin/gnu/h-x86_64-mingw32/bin/../lib/gcc/nios2-elf/8.3.1/../../../../../H-x86_64-mingw32/nios2-elf/lib\libc.a(lib_a-memcpy.o)
                                        0x8da (size before relaxing)
 .debug_str     0x0000000000003a41       0x46 c:/intelfpga_lite/19.1/nios2eds/bin/gnu/h-x86_64-mingw32/bin/../lib/gcc/nios2-elf/8.3.1/../../../../../H-x86_64-mingw32/nios2-elf/lib\libc.a(lib_a-memmove.o)
                                        0x8e6 (size before relaxing)
 .debug_str     0x0000000000003a87       0x3c c:/intelfpga_lite/19.1/nios2eds/bin/gnu/h-x86_64-mingw32/bin/../lib/gcc/nios2-elf/8.3.1/../../../../../H-x86_64-mingw32/nios2-elf/lib\libc.a(lib_a-memset.o)
                                        0x8c7 (size before relaxing)
 .debug_str     0x0000000000003ac3       0x95 c:/intelfpga_lite/19.1/nios2eds/bin/gnu/h-x86_64-mingw32/bin/../lib/gcc/nios2-elf/8.3.1/../../../../../H-x86_64-mingw32/nios2-elf/lib\libc.a(lib_a-mprec.o)
                                        0xa3d (size before relaxing)
 .debug_str     0x0000000000003b58       0x48 c:/intelfpga_lite/19.1/nios2eds/bin/gnu/h-x86_64-mingw32/bin/../lib/gcc/nios2-elf/8.3.1/../../../../../H-x86_64-mingw32/nios2-elf/lib\libc.a(lib_a-putc.o)
                                        0x708 (size before relaxing)
 .debug_str     0x0000000000003ba0       0x49 c:/intelfpga_lite/19.1/nios2eds/bin/gnu/h-x86_64-mingw32/bin/../lib/gcc/nios2-elf/8.3.1/../../../../../H-x86_64-mingw32/nios2-elf/lib\libc.a(lib_a-reallocr.o)
                                        0x7b9 (size before relaxing)
 .debug_str     0x0000000000003be9       0x4d c:/intelfpga_lite/19.1/nios2eds/bin/gnu/h-x86_64-mingw32/bin/../lib/gcc/nios2-elf/8.3.1/../../../../../H-x86_64-mingw32/nios2-elf/lib\libc.a(lib_a-rget.o)
                                        0x719 (size before relaxing)
 .debug_str     0x0000000000003c36       0x4e c:/intelfpga_lite/19.1/nios2eds/bin/gnu/h-x86_64-mingw32/bin/../lib/gcc/nios2-elf/8.3.1/../../../../../H-x86_64-mingw32/nios2-elf/lib\libc.a(lib_a-sbrkr.o)
                                        0x5dc (size before relaxing)
 .debug_str     0x0000000000003c84       0x9a c:/intelfpga_lite/19.1/nios2eds/bin/gnu/h-x86_64-mingw32/bin/../lib/gcc/nios2-elf/8.3.1/../../../../../H-x86_64-mingw32/nios2-elf/lib\libc.a(lib_a-stdio.o)
                                        0x764 (size before relaxing)
 .debug_str     0x0000000000003d1e       0x37 c:/intelfpga_lite/19.1/nios2eds/bin/gnu/h-x86_64-mingw32/bin/../lib/gcc/nios2-elf/8.3.1/../../../../../H-x86_64-mingw32/nios2-elf/lib\libc.a(lib_a-vfiprintf.o)
                                        0xc2d (size before relaxing)
 .debug_str     0x0000000000003d55       0x41 c:/intelfpga_lite/19.1/nios2eds/bin/gnu/h-x86_64-mingw32/bin/../lib/gcc/nios2-elf/8.3.1/../../../../../H-x86_64-mingw32/nios2-elf/lib\libc.a(lib_a-wbuf.o)
                                        0x723 (size before relaxing)
 .debug_str     0x0000000000003d96       0x3b c:/intelfpga_lite/19.1/nios2eds/bin/gnu/h-x86_64-mingw32/bin/../lib/gcc/nios2-elf/8.3.1/../../../../../H-x86_64-mingw32/nios2-elf/lib\libc.a(lib_a-writer.o)
                                        0x5e0 (size before relaxing)
 .debug_str     0x0000000000003dd1       0x3b c:/intelfpga_lite/19.1/nios2eds/bin/gnu/h-x86_64-mingw32/bin/../lib/gcc/nios2-elf/8.3.1/../../../../../H-x86_64-mingw32/nios2-elf/lib\libc.a(closer.o)
                                        0x5d0 (size before relaxing)
 .debug_str     0x0000000000003e0c        0xf c:/intelfpga_lite/19.1/nios2eds/bin/gnu/h-x86_64-mingw32/bin/../lib/gcc/nios2-elf/8.3.1/../../../../../H-x86_64-mingw32/nios2-elf/lib\libc.a(lib_a-callocr.o)
                                        0x737 (size before relaxing)
 .debug_str     0x0000000000003e1b       0x45 c:/intelfpga_lite/19.1/nios2eds/bin/gnu/h-x86_64-mingw32/bin/../lib/gcc/nios2-elf/8.3.1/../../../../../H-x86_64-mingw32/nios2-elf/lib\libc.a(lib_a-fclose.o)
                                        0x735 (size before relaxing)
 .debug_str     0x0000000000003e60       0x63 c:/intelfpga_lite/19.1/nios2eds/bin/gnu/h-x86_64-mingw32/bin/../lib/gcc/nios2-elf/8.3.1/../../../../../H-x86_64-mingw32/nios2-elf/lib\libc.a(lib_a-fputwc.o)
                                        0x755 (size before relaxing)
 .debug_str     0x0000000000003ec3       0x41 c:/intelfpga_lite/19.1/nios2eds/bin/gnu/h-x86_64-mingw32/bin/../lib/gcc/nios2-elf/8.3.1/../../../../../H-x86_64-mingw32/nios2-elf/lib\libc.a(lib_a-fstatr.o)
                                        0x740 (size before relaxing)
 .debug_str     0x0000000000003f04       0x3e c:/intelfpga_lite/19.1/nios2eds/bin/gnu/h-x86_64-mingw32/bin/../lib/gcc/nios2-elf/8.3.1/../../../../../H-x86_64-mingw32/nios2-elf/lib\libc.a(lib_a-int_errno.o)
                                        0x5a1 (size before relaxing)
 .debug_str     0x0000000000003f42       0x43 c:/intelfpga_lite/19.1/nios2eds/bin/gnu/h-x86_64-mingw32/bin/../lib/gcc/nios2-elf/8.3.1/../../../../../H-x86_64-mingw32/nios2-elf/lib\libc.a(lib_a-isattyr.o)
                                        0x5d3 (size before relaxing)
 .debug_str     0x0000000000003f85       0x6f c:/intelfpga_lite/19.1/nios2eds/bin/gnu/h-x86_64-mingw32/bin/../lib/gcc/nios2-elf/8.3.1/../../../../../H-x86_64-mingw32/nios2-elf/lib\libc.a(lib_a-locale.o)
                                        0x975 (size before relaxing)
 .debug_str     0x0000000000003ff4       0x41 c:/intelfpga_lite/19.1/nios2eds/bin/gnu/h-x86_64-mingw32/bin/../lib/gcc/nios2-elf/8.3.1/../../../../../H-x86_64-mingw32/nios2-elf/lib\libc.a(lib_a-lseekr.o)
                                        0x5d7 (size before relaxing)
 .debug_str     0x0000000000004035       0x5d c:/intelfpga_lite/19.1/nios2eds/bin/gnu/h-x86_64-mingw32/bin/../lib/gcc/nios2-elf/8.3.1/../../../../../H-x86_64-mingw32/nios2-elf/lib\libc.a(lib_a-mbtowc_r.o)
                                        0x93d (size before relaxing)
 .debug_str     0x0000000000004092       0x3a c:/intelfpga_lite/19.1/nios2eds/bin/gnu/h-x86_64-mingw32/bin/../lib/gcc/nios2-elf/8.3.1/../../../../../H-x86_64-mingw32/nios2-elf/lib\libc.a(lib_a-readr.o)
                                        0x5dd (size before relaxing)
 .debug_str     0x00000000000040cc       0x4d c:/intelfpga_lite/19.1/nios2eds/bin/gnu/h-x86_64-mingw32/bin/../lib/gcc/nios2-elf/8.3.1/../../../../../H-x86_64-mingw32/nios2-elf/lib\libc.a(lib_a-refill.o)
                                        0x753 (size before relaxing)
 .debug_str     0x0000000000004119       0x3c c:/intelfpga_lite/19.1/nios2eds/bin/gnu/h-x86_64-mingw32/bin/../lib/gcc/nios2-elf/8.3.1/../../../../../H-x86_64-mingw32/nios2-elf/lib\libc.a(lib_a-strcmp.o)
                                        0x597 (size before relaxing)
 .debug_str     0x0000000000004155       0x4c c:/intelfpga_lite/19.1/nios2eds/bin/gnu/h-x86_64-mingw32/bin/../lib/gcc/nios2-elf/8.3.1/../../../../../H-x86_64-mingw32/nios2-elf/lib\libc.a(lib_a-wcrtomb.o)
                                        0x937 (size before relaxing)
 .debug_str     0x00000000000041a1       0x5e c:/intelfpga_lite/19.1/nios2eds/bin/gnu/h-x86_64-mingw32/bin/../lib/gcc/nios2-elf/8.3.1/../../../../../H-x86_64-mingw32/nios2-elf/lib\libc.a(lib_a-wctomb_r.o)
                                        0x944 (size before relaxing)
 .debug_str     0x00000000000041ff      0x25b c:/intelfpga_lite/19.1/nios2eds/bin/gnu/h-x86_64-mingw32/bin/../lib/gcc/nios2-elf/8.3.1\libgcc.a(_udivdi3.o)
                                        0x2f5 (size before relaxing)
 .debug_str     0x000000000000445a        0xa c:/intelfpga_lite/19.1/nios2eds/bin/gnu/h-x86_64-mingw32/bin/../lib/gcc/nios2-elf/8.3.1\libgcc.a(_umoddi3.o)
                                        0x2f5 (size before relaxing)
 .debug_str     0x0000000000004464       0xfb c:/intelfpga_lite/19.1/nios2eds/bin/gnu/h-x86_64-mingw32/bin/../lib/gcc/nios2-elf/8.3.1\libgcc.a(lib2-divmod.o)
                                        0x1c3 (size before relaxing)
 .debug_str     0x000000000000455f      0x183 c:/intelfpga_lite/19.1/nios2eds/bin/gnu/h-x86_64-mingw32/bin/../lib/gcc/nios2-elf/8.3.1\libgcc.a(adddf3.o)
                                        0x317 (size before relaxing)
 .debug_str     0x00000000000046e2      0x19a c:/intelfpga_lite/19.1/nios2eds/bin/gnu/h-x86_64-mingw32/bin/../lib/gcc/nios2-elf/8.3.1\libgcc.a(divdf3.o)
                                        0x3d9 (size before relaxing)
 .debug_str     0x000000000000487c       0x47 c:/intelfpga_lite/19.1/nios2eds/bin/gnu/h-x86_64-mingw32/bin/../lib/gcc/nios2-elf/8.3.1\libgcc.a(eqdf2.o)
                                        0x223 (size before relaxing)
 .debug_str     0x00000000000048c3       0x5a c:/intelfpga_lite/19.1/nios2eds/bin/gnu/h-x86_64-mingw32/bin/../lib/gcc/nios2-elf/8.3.1\libgcc.a(gedf2.o)
                                        0x247 (size before relaxing)
 .debug_str     0x000000000000491d       0x36 c:/intelfpga_lite/19.1/nios2eds/bin/gnu/h-x86_64-mingw32/bin/../lib/gcc/nios2-elf/8.3.1\libgcc.a(ledf2.o)
                                        0x247 (size before relaxing)
 .debug_str     0x0000000000004953      0x15d c:/intelfpga_lite/19.1/nios2eds/bin/gnu/h-x86_64-mingw32/bin/../lib/gcc/nios2-elf/8.3.1\libgcc.a(muldf3.o)
                                        0x431 (size before relaxing)
 .debug_str     0x0000000000004ab0       0x38 c:/intelfpga_lite/19.1/nios2eds/bin/gnu/h-x86_64-mingw32/bin/../lib/gcc/nios2-elf/8.3.1\libgcc.a(subdf3.o)
                                        0x317 (size before relaxing)
 .debug_str     0x0000000000004ae8       0x3c c:/intelfpga_lite/19.1/nios2eds/bin/gnu/h-x86_64-mingw32/bin/../lib/gcc/nios2-elf/8.3.1\libgcc.a(unorddf2.o)
                                        0x229 (size before relaxing)
 .debug_str     0x0000000000004b24       0x4d c:/intelfpga_lite/19.1/nios2eds/bin/gnu/h-x86_64-mingw32/bin/../lib/gcc/nios2-elf/8.3.1\libgcc.a(fixdfsi.o)
                                        0x22e (size before relaxing)
 .debug_str     0x0000000000004b71       0x6b c:/intelfpga_lite/19.1/nios2eds/bin/gnu/h-x86_64-mingw32/bin/../lib/gcc/nios2-elf/8.3.1\libgcc.a(floatsidf.o)
                                        0x2c9 (size before relaxing)
 .debug_str     0x0000000000004bdc       0x42 c:/intelfpga_lite/19.1/nios2eds/bin/gnu/h-x86_64-mingw32/bin/../lib/gcc/nios2-elf/8.3.1\libgcc.a(floatunsidf.o)
                                        0x2c6 (size before relaxing)
 .debug_str     0x0000000000004c1e      0x23c c:/intelfpga_lite/19.1/nios2eds/bin/gnu/h-x86_64-mingw32/bin/../lib/gcc/nios2-elf/8.3.1\libgcc.a(_clz.o)
 .debug_str     0x0000000000004c1e        0x9 c:/intelfpga_lite/19.1/nios2eds/bin/gnu/h-x86_64-mingw32/bin/../lib/gcc/nios2-elf/8.3.1\libgcc.a(_clzsi2.o)
                                        0x259 (size before relaxing)
 .debug_str     0x0000000000004c27      0x112 ../hit_pat_bsp\libucosii_bsp.a(alt_flash_dev.o)
                                        0xc4c (size before relaxing)
 .debug_str     0x0000000000004d39       0x2c ../hit_pat_bsp\libucosii_bsp.a(alt_fstat.o)
                                        0xc58 (size before relaxing)
 .debug_str     0x0000000000004d65       0x15 ../hit_pat_bsp\libucosii_bsp.a(alt_isatty.o)
                                        0xc60 (size before relaxing)
 .debug_str     0x0000000000004d7a       0x14 ../hit_pat_bsp\libucosii_bsp.a(alt_lseek.o)
                                        0xb2e (size before relaxing)
 .debug_str     0x0000000000004d8e       0x5d ../hit_pat_bsp\libucosii_bsp.a(alt_main.o)
                                        0xcc2 (size before relaxing)
 .debug_str     0x0000000000004deb       0x98 ../hit_pat_bsp\libucosii_bsp.a(alt_sbrk.o)
                                        0x5be (size before relaxing)
 .debug_str     0x0000000000004e83       0x5f ../hit_pat_bsp\libucosii_bsp.a(alt_env_lock.o)
                                        0xa75 (size before relaxing)
 .debug_str     0x0000000000004ee2       0x24 ../hit_pat_bsp\libucosii_bsp.a(alt_malloc_lock.o)
                                        0xac5 (size before relaxing)
 .debug_str     0x0000000000004f06      0x29b ../hit_pat_bsp\libucosii_bsp.a(os_core.o)
                                        0xcb9 (size before relaxing)
 .debug_str     0x00000000000051a1      0x136 ../hit_pat_bsp\libucosii_bsp.a(os_flag.o)
                                        0xb6b (size before relaxing)
 .debug_str     0x00000000000052d7       0xcf ../hit_pat_bsp\libucosii_bsp.a(os_mem.o)
                                        0xae8 (size before relaxing)
 .debug_str     0x00000000000053a6       0xd0 ../hit_pat_bsp\libucosii_bsp.a(os_mutex.o)
                                        0xb10 (size before relaxing)
 .debug_str     0x0000000000005476       0xb2 ../hit_pat_bsp\libucosii_bsp.a(os_q.o)
                                        0xafe (size before relaxing)
 .debug_str     0x0000000000005528       0x77 ../hit_pat_bsp\libucosii_bsp.a(os_sem.o)
                                        0xadb (size before relaxing)
 .debug_str     0x000000000000559f       0xc9 ../hit_pat_bsp\libucosii_bsp.a(os_task.o)
                                        0xb47 (size before relaxing)
 .debug_str     0x0000000000005668       0x5d ../hit_pat_bsp\libucosii_bsp.a(os_time.o)
                                        0xa7e (size before relaxing)
 .debug_str     0x00000000000056c5      0x53c ../hit_pat_bsp\libucosii_bsp.a(alt_sys_init.o)
                                       0x1bd2 (size before relaxing)
 .debug_str     0x0000000000005c01       0x78 ../hit_pat_bsp\libucosii_bsp.a(altera_avalon_timer_sc.o)
                                        0x66f (size before relaxing)
 .debug_str     0x0000000000005c79     0x130c ../hit_pat_bsp\libucosii_bsp.a(altera_avalon_tse.o)
                                       0x278b (size before relaxing)
 .debug_str     0x0000000000006f85       0x77 ../hit_pat_bsp\libucosii_bsp.a(altera_avalon_uart_fd.o)
                                        0xbbc (size before relaxing)
 .debug_str     0x0000000000006ffc       0xc5 ../hit_pat_bsp\libucosii_bsp.a(altera_avalon_uart_init.o)
                                        0xbcd (size before relaxing)
 .debug_str     0x00000000000070c1       0x6a ../hit_pat_bsp\libucosii_bsp.a(altera_avalon_uart_read.o)
                                        0xba1 (size before relaxing)
 .debug_str     0x000000000000712b       0x49 ../hit_pat_bsp\libucosii_bsp.a(altera_avalon_uart_write.o)
                                        0xb95 (size before relaxing)
 .debug_str     0x0000000000007174      0x255 ../hit_pat_bsp\libucosii_bsp.a(altera_generic_quad_spi_controller.o)
                                        0x9ef (size before relaxing)
 .debug_str     0x00000000000073c9      0x8a0 ../hit_pat_bsp\libucosii_bsp.a(altera_msgdma.o)
                                       0x1605 (size before relaxing)
 .debug_str     0x0000000000007c69      0x256 ../hit_pat_bsp\libucosii_bsp.a(altera_onchip_flash.o)
                                        0xadf (size before relaxing)
 .debug_str     0x0000000000007ebf      0x71d ../hit_pat_bsp\libucosii_bsp.a(ins_tse_mac.o)
                                       0x2994 (size before relaxing)
 .debug_str     0x00000000000085dc       0x1e ../hit_pat_bsp\libucosii_bsp.a(alt_iniche_close.o)
                                       0x1413 (size before relaxing)
 .debug_str     0x00000000000085fa       0x48 ../hit_pat_bsp\libucosii_bsp.a(alt_iniche_dev.o)
                                       0x14da (size before relaxing)
 .debug_str     0x0000000000008642       0x1d ../hit_pat_bsp\libucosii_bsp.a(alt_iniche_read.o)
                                       0x1418 (size before relaxing)
 .debug_str     0x000000000000865f       0x1e ../hit_pat_bsp\libucosii_bsp.a(alt_iniche_write.o)
                                       0x141a (size before relaxing)
 .debug_str     0x000000000000867d      0x1a7 ../hit_pat_bsp\libucosii_bsp.a(et_arp.o)
                                       0x13eb (size before relaxing)
 .debug_str     0x0000000000008824       0xae ../hit_pat_bsp\libucosii_bsp.a(iface.o)
                                       0x152a (size before relaxing)
 .debug_str     0x00000000000088d2       0x5b ../hit_pat_bsp\libucosii_bsp.a(ipnet.o)
                                       0x1295 (size before relaxing)
 .debug_str     0x000000000000892d       0x83 ../hit_pat_bsp\libucosii_bsp.a(ipstart.o)
                                       0x158b (size before relaxing)
 .debug_str     0x00000000000089b0      0x450 ../hit_pat_bsp\libucosii_bsp.a(igmp_cmn.o)
                                       0x1940 (size before relaxing)
 .debug_str     0x0000000000008e00      0x106 ../hit_pat_bsp\libucosii_bsp.a(bsdsock.o)
                                       0x15e6 (size before relaxing)
 .debug_str     0x0000000000008f06       0x35 ../hit_pat_bsp\libucosii_bsp.a(cksum.o)
                                        0xaf9 (size before relaxing)
 .debug_str     0x0000000000008f3b      0x11b ../hit_pat_bsp\libucosii_bsp.a(in_utils.o)
                                       0x1620 (size before relaxing)
 .debug_str     0x0000000000009056       0x5a ../hit_pat_bsp\libucosii_bsp.a(netmain.o)
                                       0x167d (size before relaxing)
 .debug_str     0x00000000000090b0      0x11e ../hit_pat_bsp\libucosii_bsp.a(tk_crnos.o)
                                       0x174e (size before relaxing)
 .debug_str     0x00000000000091ce       0x53 ../hit_pat_bsp\libucosii_bsp.a(ping.o)
                                       0x1453 (size before relaxing)
 .debug_str     0x0000000000009221       0xa0 ../hit_pat_bsp\libucosii_bsp.a(pktalloc.o)
                                       0x1249 (size before relaxing)
 .debug_str     0x00000000000092c1       0x32 ../hit_pat_bsp\libucosii_bsp.a(q.o)
                                        0xb19 (size before relaxing)
 .debug_str     0x00000000000092f3       0x1d ../hit_pat_bsp\libucosii_bsp.a(asm_cksum.o)
                                         0x5d (size before relaxing)
 .debug_str     0x0000000000009310       0xb2 ../hit_pat_bsp\libucosii_bsp.a(brdutils.o)
                                        0xbb8 (size before relaxing)
 .debug_str     0x00000000000093c2       0xd0 ../hit_pat_bsp\libucosii_bsp.a(osportco.o)
                                       0x17a4 (size before relaxing)
 .debug_str     0x0000000000009492      0x1c7 ../hit_pat_bsp\libucosii_bsp.a(targnios.o)
                                       0x1b0d (size before relaxing)
 .debug_str     0x0000000000009659      0x6d1 ../hit_pat_bsp\libucosii_bsp.a(nptcp.o)
                                       0x1ed8 (size before relaxing)
 .debug_str     0x0000000000009d2a       0x48 ../hit_pat_bsp\libucosii_bsp.a(rawsock.o)
                                       0x1535 (size before relaxing)
 .debug_str     0x0000000000009d72      0x10c ../hit_pat_bsp\libucosii_bsp.a(sockcall.o)
                                       0x1bcd (size before relaxing)
 .debug_str     0x0000000000009e7e      0x11d ../hit_pat_bsp\libucosii_bsp.a(socket.o)
                                       0x1b29 (size before relaxing)
 .debug_str     0x0000000000009f9b      0x147 ../hit_pat_bsp\libucosii_bsp.a(socket2.o)
                                       0x15c1 (size before relaxing)
 .debug_str     0x000000000000a0e2       0x9c ../hit_pat_bsp\libucosii_bsp.a(soselect.o)
                                       0x1584 (size before relaxing)
 .debug_str     0x000000000000a17e      0x122 ../hit_pat_bsp\libucosii_bsp.a(tcp_in.o)
                                       0x1be1 (size before relaxing)
 .debug_str     0x000000000000a2a0       0x8d ../hit_pat_bsp\libucosii_bsp.a(tcp_out.o)
                                       0x1af0 (size before relaxing)
 .debug_str     0x000000000000a32d       0x8a ../hit_pat_bsp\libucosii_bsp.a(tcp_subr.o)
                                       0x1b37 (size before relaxing)
 .debug_str     0x000000000000a3b7       0x64 ../hit_pat_bsp\libucosii_bsp.a(tcp_timr.o)
                                       0x1aac (size before relaxing)
 .debug_str     0x000000000000a41b       0x5b ../hit_pat_bsp\libucosii_bsp.a(tcp_usr.o)
                                       0x1ad5 (size before relaxing)
 .debug_str     0x000000000000a476       0x21 ../hit_pat_bsp\libucosii_bsp.a(tcpport.o)
                                       0x14ea (size before relaxing)
 .debug_str     0x000000000000a497       0x99 ../hit_pat_bsp\libucosii_bsp.a(udpsock.o)
                                       0x15e9 (size before relaxing)
 .debug_str     0x000000000000a530       0x42 ../hit_pat_bsp\libucosii_bsp.a(alt_busy_sleep.o)
                                        0x53e (size before relaxing)
 .debug_str     0x000000000000a572       0x25 ../hit_pat_bsp\libucosii_bsp.a(alt_close.o)
                                        0xb31 (size before relaxing)
 .debug_str     0x000000000000a597       0x2c ../hit_pat_bsp\libucosii_bsp.a(alt_dcache_flush.o)
                                        0x538 (size before relaxing)
 .debug_str     0x000000000000a5c3       0x32 ../hit_pat_bsp\libucosii_bsp.a(alt_dev.o)
                                        0xc80 (size before relaxing)
 .debug_str     0x000000000000a5f5       0x34 ../hit_pat_bsp\libucosii_bsp.a(alt_dev_llist_insert.o)
                                        0x5b6 (size before relaxing)
 .debug_str     0x000000000000a629       0x48 ../hit_pat_bsp\libucosii_bsp.a(alt_do_ctors.o)
                                         0xcd (size before relaxing)
 .debug_str     0x000000000000a671       0x4c ../hit_pat_bsp\libucosii_bsp.a(alt_do_dtors.o)
                                         0xcc (size before relaxing)
 .debug_str     0x000000000000a6bd       0x14 ../hit_pat_bsp\libucosii_bsp.a(alt_errno.o)
                                        0x52f (size before relaxing)
 .debug_str     0x000000000000a6d1       0x24 ../hit_pat_bsp\libucosii_bsp.a(alt_find_dev.o)
                                        0xae0 (size before relaxing)
 .debug_str     0x000000000000a6f5       0xa5 ../hit_pat_bsp\libucosii_bsp.a(alt_iic.o)
                                        0x616 (size before relaxing)
 .debug_str     0x000000000000a79a       0x4c ../hit_pat_bsp\libucosii_bsp.a(alt_iic_isr_register.o)
                                        0x5d2 (size before relaxing)
 .debug_str     0x000000000000a7e6       0x56 ../hit_pat_bsp\libucosii_bsp.a(alt_io_redirect.o)
                                        0xcaf (size before relaxing)
 .debug_str     0x000000000000a83c       0x18 ../hit_pat_bsp\libucosii_bsp.a(alt_irq_entry.o)
                                         0x58 (size before relaxing)
 .debug_str     0x000000000000a854       0x3a ../hit_pat_bsp\libucosii_bsp.a(alt_irq_handler.o)
                                        0xa8a (size before relaxing)
 .debug_str     0x000000000000a88e       0x29 ../hit_pat_bsp\libucosii_bsp.a(alt_irq_vars.o)
                                        0x137 (size before relaxing)
 .debug_str     0x000000000000a8b7       0x29 ../hit_pat_bsp\libucosii_bsp.a(alt_open.o)
                                        0xb20 (size before relaxing)
 .debug_str     0x000000000000a8e0       0x2c ../hit_pat_bsp\libucosii_bsp.a(alt_printf.o)
                                         0xf7 (size before relaxing)
 .debug_str     0x000000000000a90c       0x22 ../hit_pat_bsp\libucosii_bsp.a(alt_putchar.o)
                                        0x516 (size before relaxing)
 .debug_str     0x000000000000a92e       0x1c ../hit_pat_bsp\libucosii_bsp.a(alt_read.o)
                                        0xc99 (size before relaxing)
 .debug_str     0x000000000000a94a       0x28 ../hit_pat_bsp\libucosii_bsp.a(alt_release_fd.o)
                                        0xae4 (size before relaxing)
 .debug_str     0x000000000000a972       0x2c ../hit_pat_bsp\libucosii_bsp.a(alt_remap_cached.o)
                                        0x532 (size before relaxing)
 .debug_str     0x000000000000a99e       0x69 ../hit_pat_bsp\libucosii_bsp.a(alt_tick.o)
                                        0xaf7 (size before relaxing)
 .debug_str     0x000000000000aa07       0x2e ../hit_pat_bsp\libucosii_bsp.a(alt_uncached_free.o)
                                        0x534 (size before relaxing)
 .debug_str     0x000000000000aa35       0x49 ../hit_pat_bsp\libucosii_bsp.a(alt_uncached_malloc.o)
                                        0x55b (size before relaxing)
 .debug_str     0x000000000000aa7e       0x3e ../hit_pat_bsp\libucosii_bsp.a(alt_usleep.o)
                                        0xa8b (size before relaxing)
 .debug_str     0x000000000000aabc       0x1e ../hit_pat_bsp\libucosii_bsp.a(alt_write.o)
                                        0xc9b (size before relaxing)
 .debug_str     0x000000000000aada       0x3b ../hit_pat_bsp\libucosii_bsp.a(altera_nios2_gen2_irq.o)
                                        0x546 (size before relaxing)
 .debug_str     0x000000000000ab15       0x13 ../hit_pat_bsp\libucosii_bsp.a(os_cpu_a.o)
                                         0x53 (size before relaxing)
 .debug_str     0x000000000000ab28       0xd5 ../hit_pat_bsp\libucosii_bsp.a(os_cpu_c.o)
                                        0xaea (size before relaxing)
 .debug_str     0x000000000000abfd       0xa3 ../hit_pat_bsp\libucosii_bsp.a(allports.o)
                                       0x16d9 (size before relaxing)
 .debug_str     0x000000000000aca0       0x81 ../hit_pat_bsp\libucosii_bsp.a(timeouts.o)
                                       0x12dd (size before relaxing)
 .debug_str     0x000000000000ad21       0x39 ../hit_pat_bsp\libucosii_bsp.a(tk_misc.o)
                                       0x166b (size before relaxing)
 .debug_str     0x000000000000ad5a       0x1e ../hit_pat_bsp\libucosii_bsp.a(alt_iniche_fcntl.o)
                                       0x1446 (size before relaxing)
 .debug_str     0x000000000000ad78       0xa4 ../hit_pat_bsp\libucosii_bsp.a(icmp.o)
                                       0x14d7 (size before relaxing)
 .debug_str     0x000000000000ae1c       0xd6 ../hit_pat_bsp\libucosii_bsp.a(ip.o)
                                       0x1557 (size before relaxing)
 .debug_str     0x000000000000aef2       0x65 ../hit_pat_bsp\libucosii_bsp.a(ipdemux.o)
                                       0x151a (size before relaxing)
 .debug_str     0x000000000000af57       0x43 ../hit_pat_bsp\libucosii_bsp.a(ipmc.o)
                                       0x1216 (size before relaxing)
 .debug_str     0x000000000000af9a       0x38 ../hit_pat_bsp\libucosii_bsp.a(ipport.o)
                                       0x1201 (size before relaxing)
 .debug_str     0x000000000000afd2       0xa1 ../hit_pat_bsp\libucosii_bsp.a(ipraw.o)
                                       0x12af (size before relaxing)
 .debug_str     0x000000000000b073       0xa4 ../hit_pat_bsp\libucosii_bsp.a(iproute.o)
                                       0x1267 (size before relaxing)
 .debug_str     0x000000000000b117       0x9b ../hit_pat_bsp\libucosii_bsp.a(udp.o)
                                       0x17be (size before relaxing)
 .debug_str     0x000000000000b1b2       0x24 ../hit_pat_bsp\libucosii_bsp.a(igmp.o)
                                       0x1881 (size before relaxing)
 .debug_str     0x000000000000b1d6       0xbc ../hit_pat_bsp\libucosii_bsp.a(igmp2.o)
                                       0x1939 (size before relaxing)
 .debug_str     0x000000000000b292       0x79 ../hit_pat_bsp\libucosii_bsp.a(ipopt.o)
                                       0x154c (size before relaxing)
 .debug_str     0x000000000000b30b       0x87 ../hit_pat_bsp\libucosii_bsp.a(u_mctest.o)
                                       0x1538 (size before relaxing)
 .debug_str     0x000000000000b392       0xa6 ../hit_pat_bsp\libucosii_bsp.a(memdev.o)
                                        0xcac (size before relaxing)
 .debug_str     0x000000000000b438       0xba ../hit_pat_bsp\libucosii_bsp.a(parseip.o)
                                       0x1316 (size before relaxing)
 .debug_str     0x000000000000b4f2       0x4d ../hit_pat_bsp\libucosii_bsp.a(tcpcksum.o)
                                       0x14e6 (size before relaxing)
 .debug_str     0x000000000000b53f       0x48 ../hit_pat_bsp\libucosii_bsp.a(udp_open.o)
                                       0x129a (size before relaxing)
 .debug_str     0x000000000000b587       0xdb ../hit_pat_bsp\libucosii_bsp.a(in_pcb.o)
                                       0x15e6 (size before relaxing)
 .debug_str     0x000000000000b662      0x1d2 ../hit_pat_bsp\libucosii_bsp.a(vfsfiles.o)
                                        0xe73 (size before relaxing)
 .debug_str     0x000000000000b834       0x22 ../hit_pat_bsp\libucosii_bsp.a(vfsport.o)
                                        0xc05 (size before relaxing)
 .debug_str     0x000000000000b856       0x1e ../hit_pat_bsp\libucosii_bsp.a(alt_exception_entry.o)
                                         0x5e (size before relaxing)
 .debug_str     0x000000000000b874       0x1e ../hit_pat_bsp\libucosii_bsp.a(alt_fcntl.o)
                                        0xcc3 (size before relaxing)
 .debug_str     0x000000000000b892       0x26 ../hit_pat_bsp\libucosii_bsp.a(alt_find_file.o)
                                        0xae2 (size before relaxing)
 .debug_str     0x000000000000b8b8       0x30 ../hit_pat_bsp\libucosii_bsp.a(alt_get_fd.o)
                                        0xb01 (size before relaxing)
 .debug_str     0x000000000000b8e8      0x48b ../hit_pat_bsp\libucosii_bsp.a(alt_instruction_exception_entry.o)
                                        0x59d (size before relaxing)
 .debug_str     0x000000000000bd73       0x80 c:/intelfpga_lite/19.1/nios2eds/bin/gnu/h-x86_64-mingw32/bin/../lib/gcc/nios2-elf/8.3.1/../../../../../H-x86_64-mingw32/nios2-elf/lib\libc.a(lib_a-atexit.o)
                                        0x5e5 (size before relaxing)
 .debug_str     0x000000000000bdf3       0x58 c:/intelfpga_lite/19.1/nios2eds/bin/gnu/h-x86_64-mingw32/bin/../lib/gcc/nios2-elf/8.3.1/../../../../../H-x86_64-mingw32/nios2-elf/lib\libc.a(lib_a-atoi.o)
                                        0x5b6 (size before relaxing)
 .debug_str     0x000000000000be4b       0x4b c:/intelfpga_lite/19.1/nios2eds/bin/gnu/h-x86_64-mingw32/bin/../lib/gcc/nios2-elf/8.3.1/../../../../../H-x86_64-mingw32/nios2-elf/lib\libc.a(lib_a-exit.o)
                                        0x5e6 (size before relaxing)
 .debug_str     0x000000000000be96       0x58 c:/intelfpga_lite/19.1/nios2eds/bin/gnu/h-x86_64-mingw32/bin/../lib/gcc/nios2-elf/8.3.1/../../../../../H-x86_64-mingw32/nios2-elf/lib\libc.a(lib_a-malign.o)
                                        0x5c3 (size before relaxing)
 .debug_str     0x000000000000beee       0x13 c:/intelfpga_lite/19.1/nios2eds/bin/gnu/h-x86_64-mingw32/bin/../lib/gcc/nios2-elf/8.3.1/../../../../../H-x86_64-mingw32/nios2-elf/lib\libc.a(lib_a-malignr.o)
                                        0x777 (size before relaxing)
 .debug_str     0x000000000000bf01       0x41 c:/intelfpga_lite/19.1/nios2eds/bin/gnu/h-x86_64-mingw32/bin/../lib/gcc/nios2-elf/8.3.1/../../../../../H-x86_64-mingw32/nios2-elf/lib\libc.a(lib_a-malloc.o)
                                        0x5cb (size before relaxing)
 .debug_str     0x000000000000bf42       0x43 c:/intelfpga_lite/19.1/nios2eds/bin/gnu/h-x86_64-mingw32/bin/../lib/gcc/nios2-elf/8.3.1/../../../../../H-x86_64-mingw32/nios2-elf/lib\libc.a(lib_a-memcmp.o)
                                        0x59e (size before relaxing)
 .debug_str     0x000000000000bf85       0x5f c:/intelfpga_lite/19.1/nios2eds/bin/gnu/h-x86_64-mingw32/bin/../lib/gcc/nios2-elf/8.3.1/../../../../../H-x86_64-mingw32/nios2-elf/lib\libc.a(lib_a-sprintf.o)
                                        0x723 (size before relaxing)
 .debug_str     0x000000000000bfe4       0x43 c:/intelfpga_lite/19.1/nios2eds/bin/gnu/h-x86_64-mingw32/bin/../lib/gcc/nios2-elf/8.3.1/../../../../../H-x86_64-mingw32/nios2-elf/lib\libc.a(lib_a-strchr.o)
                                        0x5a9 (size before relaxing)
 .debug_str     0x000000000000c027       0x43 c:/intelfpga_lite/19.1/nios2eds/bin/gnu/h-x86_64-mingw32/bin/../lib/gcc/nios2-elf/8.3.1/../../../../../H-x86_64-mingw32/nios2-elf/lib\libc.a(lib_a-strcpy.o)
                                        0x5b9 (size before relaxing)
 .debug_str     0x000000000000c06a       0x45 c:/intelfpga_lite/19.1/nios2eds/bin/gnu/h-x86_64-mingw32/bin/../lib/gcc/nios2-elf/8.3.1/../../../../../H-x86_64-mingw32/nios2-elf/lib\libc.a(lib_a-strncmp.o)
                                        0x5a0 (size before relaxing)
 .debug_str     0x000000000000c0af       0x5b c:/intelfpga_lite/19.1/nios2eds/bin/gnu/h-x86_64-mingw32/bin/../lib/gcc/nios2-elf/8.3.1/../../../../../H-x86_64-mingw32/nios2-elf/lib\libc.a(lib_a-strtol.o)
                                        0x955 (size before relaxing)
 .debug_str     0x000000000000c10a        0xc c:/intelfpga_lite/19.1/nios2eds/bin/gnu/h-x86_64-mingw32/bin/../lib/gcc/nios2-elf/8.3.1/../../../../../H-x86_64-mingw32/nios2-elf/lib\libc.a(lib_a-svfprintf.o)
                                        0xc73 (size before relaxing)
 .debug_str     0x000000000000c116       0x5b c:/intelfpga_lite/19.1/nios2eds/bin/gnu/h-x86_64-mingw32/bin/../lib/gcc/nios2-elf/8.3.1/../../../../../H-x86_64-mingw32/nios2-elf/lib\libc.a(lib_a-vprintf.o)
                                        0x718 (size before relaxing)
 .debug_str     0x000000000000c171       0x52 c:/intelfpga_lite/19.1/nios2eds/bin/gnu/h-x86_64-mingw32/bin/../lib/gcc/nios2-elf/8.3.1/../../../../../H-x86_64-mingw32/nios2-elf/lib\libc.a(lib_a-vsprintf.o)
                                        0x726 (size before relaxing)
 .debug_str     0x000000000000c1c3       0x57 c:/intelfpga_lite/19.1/nios2eds/bin/gnu/h-x86_64-mingw32/bin/../lib/gcc/nios2-elf/8.3.1/../../../../../H-x86_64-mingw32/nios2-elf/lib\libc.a(lib_a-__atexit.o)
                                        0x603 (size before relaxing)
 .debug_str     0x000000000000c21a       0x49 c:/intelfpga_lite/19.1/nios2eds/bin/gnu/h-x86_64-mingw32/bin/../lib/gcc/nios2-elf/8.3.1/../../../../../H-x86_64-mingw32/nios2-elf/lib\libc.a(lib_a-__call_atexit.o)
                                        0x5e3 (size before relaxing)
 .debug_str     0x000000000000c263       0x19 c:/intelfpga_lite/19.1/nios2eds/bin/gnu/h-x86_64-mingw32/bin/../lib/gcc/nios2-elf/8.3.1/../../../../../H-x86_64-mingw32/nios2-elf/lib\libc.a(lib_a-svfiprintf.o)
                                        0xc05 (size before relaxing)
 .debug_str     0x000000000000c27c       0x40 c:/intelfpga_lite/19.1/nios2eds/bin/gnu/h-x86_64-mingw32/bin/../lib/gcc/nios2-elf/8.3.1/../../../../../H-x86_64-mingw32/nios2-elf/lib\libc.a(lib_a-vfprintfr_1.o)
                                        0x724 (size before relaxing)
 .debug_str     0x000000000000c2bc       0x2a ../hit_pat_bsp\libucosii_bsp.a(alt_exit.o)
                                        0xa4c (size before relaxing)

.debug_loc      0x0000000000000000    0x22905
 *(.debug_loc)
 .debug_loc     0x0000000000000000       0x3a c:/intelfpga_lite/19.1/nios2eds/bin/gnu/h-x86_64-mingw32/bin/../lib/gcc/nios2-elf/8.3.1/../../../../../H-x86_64-mingw32/nios2-elf/lib\libc.a(lib_a-getchar.o)
 .debug_loc     0x000000000000003a      0x119 c:/intelfpga_lite/19.1/nios2eds/bin/gnu/h-x86_64-mingw32/bin/../lib/gcc/nios2-elf/8.3.1/../../../../../H-x86_64-mingw32/nios2-elf/lib\libc.a(lib_a-printf.o)
 .debug_loc     0x0000000000000153       0x91 c:/intelfpga_lite/19.1/nios2eds/bin/gnu/h-x86_64-mingw32/bin/../lib/gcc/nios2-elf/8.3.1/../../../../../H-x86_64-mingw32/nios2-elf/lib\libc.a(lib_a-putchar.o)
 .debug_loc     0x00000000000001e4      0x143 c:/intelfpga_lite/19.1/nios2eds/bin/gnu/h-x86_64-mingw32/bin/../lib/gcc/nios2-elf/8.3.1/../../../../../H-x86_64-mingw32/nios2-elf/lib\libc.a(lib_a-puts.o)
 .debug_loc     0x0000000000000327       0x66 c:/intelfpga_lite/19.1/nios2eds/bin/gnu/h-x86_64-mingw32/bin/../lib/gcc/nios2-elf/8.3.1/../../../../../H-x86_64-mingw32/nios2-elf/lib\libc.a(lib_a-strlen.o)
 .debug_loc     0x000000000000038d     0x3749 c:/intelfpga_lite/19.1/nios2eds/bin/gnu/h-x86_64-mingw32/bin/../lib/gcc/nios2-elf/8.3.1/../../../../../H-x86_64-mingw32/nios2-elf/lib\libc.a(lib_a-vfprintf.o)
 .debug_loc     0x0000000000003ad6       0xd4 c:/intelfpga_lite/19.1/nios2eds/bin/gnu/h-x86_64-mingw32/bin/../lib/gcc/nios2-elf/8.3.1/../../../../../H-x86_64-mingw32/nios2-elf/lib\libc.a(lib_a-wsetup.o)
 .debug_loc     0x0000000000003baa     0x2ed8 c:/intelfpga_lite/19.1/nios2eds/bin/gnu/h-x86_64-mingw32/bin/../lib/gcc/nios2-elf/8.3.1/../../../../../H-x86_64-mingw32/nios2-elf/lib\libc.a(lib_a-dtoa.o)
 .debug_loc     0x0000000000006a82      0x38e c:/intelfpga_lite/19.1/nios2eds/bin/gnu/h-x86_64-mingw32/bin/../lib/gcc/nios2-elf/8.3.1/../../../../../H-x86_64-mingw32/nios2-elf/lib\libc.a(lib_a-fflush.o)
 .debug_loc     0x0000000000006e10      0x2ea c:/intelfpga_lite/19.1/nios2eds/bin/gnu/h-x86_64-mingw32/bin/../lib/gcc/nios2-elf/8.3.1/../../../../../H-x86_64-mingw32/nios2-elf/lib\libc.a(lib_a-findfp.o)
 .debug_loc     0x00000000000070fa      0x612 c:/intelfpga_lite/19.1/nios2eds/bin/gnu/h-x86_64-mingw32/bin/../lib/gcc/nios2-elf/8.3.1/../../../../../H-x86_64-mingw32/nios2-elf/lib\libc.a(lib_a-freer.o)
 .debug_loc     0x000000000000770c      0x728 c:/intelfpga_lite/19.1/nios2eds/bin/gnu/h-x86_64-mingw32/bin/../lib/gcc/nios2-elf/8.3.1/../../../../../H-x86_64-mingw32/nios2-elf/lib\libc.a(lib_a-fvwrite.o)
 .debug_loc     0x0000000000007e34      0x23b c:/intelfpga_lite/19.1/nios2eds/bin/gnu/h-x86_64-mingw32/bin/../lib/gcc/nios2-elf/8.3.1/../../../../../H-x86_64-mingw32/nios2-elf/lib\libc.a(lib_a-fwalk.o)
 .debug_loc     0x000000000000806f      0x21b c:/intelfpga_lite/19.1/nios2eds/bin/gnu/h-x86_64-mingw32/bin/../lib/gcc/nios2-elf/8.3.1/../../../../../H-x86_64-mingw32/nios2-elf/lib\libc.a(lib_a-getc.o)
 .debug_loc     0x000000000000828a       0x25 c:/intelfpga_lite/19.1/nios2eds/bin/gnu/h-x86_64-mingw32/bin/../lib/gcc/nios2-elf/8.3.1/../../../../../H-x86_64-mingw32/nios2-elf/lib\libc.a(lib_a-localeconv.o)
 .debug_loc     0x00000000000082af      0x224 c:/intelfpga_lite/19.1/nios2eds/bin/gnu/h-x86_64-mingw32/bin/../lib/gcc/nios2-elf/8.3.1/../../../../../H-x86_64-mingw32/nios2-elf/lib\libc.a(lib_a-makebuf.o)
 .debug_loc     0x00000000000084d3      0xd58 c:/intelfpga_lite/19.1/nios2eds/bin/gnu/h-x86_64-mingw32/bin/../lib/gcc/nios2-elf/8.3.1/../../../../../H-x86_64-mingw32/nios2-elf/lib\libc.a(lib_a-mallocr.o)
 .debug_loc     0x000000000000922b      0x179 c:/intelfpga_lite/19.1/nios2eds/bin/gnu/h-x86_64-mingw32/bin/../lib/gcc/nios2-elf/8.3.1/../../../../../H-x86_64-mingw32/nios2-elf/lib\libc.a(lib_a-memchr.o)
 .debug_loc     0x00000000000093a4      0x31e c:/intelfpga_lite/19.1/nios2eds/bin/gnu/h-x86_64-mingw32/bin/../lib/gcc/nios2-elf/8.3.1/../../../../../H-x86_64-mingw32/nios2-elf/lib\libc.a(lib_a-memcpy.o)
 .debug_loc     0x00000000000096c2      0x3c7 c:/intelfpga_lite/19.1/nios2eds/bin/gnu/h-x86_64-mingw32/bin/../lib/gcc/nios2-elf/8.3.1/../../../../../H-x86_64-mingw32/nios2-elf/lib\libc.a(lib_a-memmove.o)
 .debug_loc     0x0000000000009a89      0x1b5 c:/intelfpga_lite/19.1/nios2eds/bin/gnu/h-x86_64-mingw32/bin/../lib/gcc/nios2-elf/8.3.1/../../../../../H-x86_64-mingw32/nios2-elf/lib\libc.a(lib_a-memset.o)
 .debug_loc     0x0000000000009c3e     0x1f2a c:/intelfpga_lite/19.1/nios2eds/bin/gnu/h-x86_64-mingw32/bin/../lib/gcc/nios2-elf/8.3.1/../../../../../H-x86_64-mingw32/nios2-elf/lib\libc.a(lib_a-mprec.o)
 .debug_loc     0x000000000000bb68      0x307 c:/intelfpga_lite/19.1/nios2eds/bin/gnu/h-x86_64-mingw32/bin/../lib/gcc/nios2-elf/8.3.1/../../../../../H-x86_64-mingw32/nios2-elf/lib\libc.a(lib_a-putc.o)
 .debug_loc     0x000000000000be6f     0x1747 c:/intelfpga_lite/19.1/nios2eds/bin/gnu/h-x86_64-mingw32/bin/../lib/gcc/nios2-elf/8.3.1/../../../../../H-x86_64-mingw32/nios2-elf/lib\libc.a(lib_a-reallocr.o)
 .debug_loc     0x000000000000d5b6      0x116 c:/intelfpga_lite/19.1/nios2eds/bin/gnu/h-x86_64-mingw32/bin/../lib/gcc/nios2-elf/8.3.1/../../../../../H-x86_64-mingw32/nios2-elf/lib\libc.a(lib_a-rget.o)
 .debug_loc     0x000000000000d6cc       0x89 c:/intelfpga_lite/19.1/nios2eds/bin/gnu/h-x86_64-mingw32/bin/../lib/gcc/nios2-elf/8.3.1/../../../../../H-x86_64-mingw32/nios2-elf/lib\libc.a(lib_a-sbrkr.o)
 .debug_loc     0x000000000000d755      0x43c c:/intelfpga_lite/19.1/nios2eds/bin/gnu/h-x86_64-mingw32/bin/../lib/gcc/nios2-elf/8.3.1/../../../../../H-x86_64-mingw32/nios2-elf/lib\libc.a(lib_a-stdio.o)
 .debug_loc     0x000000000000db91     0x2a50 c:/intelfpga_lite/19.1/nios2eds/bin/gnu/h-x86_64-mingw32/bin/../lib/gcc/nios2-elf/8.3.1/../../../../../H-x86_64-mingw32/nios2-elf/lib\libc.a(lib_a-vfiprintf.o)
 .debug_loc     0x00000000000105e1      0x201 c:/intelfpga_lite/19.1/nios2eds/bin/gnu/h-x86_64-mingw32/bin/../lib/gcc/nios2-elf/8.3.1/../../../../../H-x86_64-mingw32/nios2-elf/lib\libc.a(lib_a-wbuf.o)
 .debug_loc     0x00000000000107e2       0xfa c:/intelfpga_lite/19.1/nios2eds/bin/gnu/h-x86_64-mingw32/bin/../lib/gcc/nios2-elf/8.3.1/../../../../../H-x86_64-mingw32/nios2-elf/lib\libc.a(lib_a-writer.o)
 .debug_loc     0x00000000000108dc       0x89 c:/intelfpga_lite/19.1/nios2eds/bin/gnu/h-x86_64-mingw32/bin/../lib/gcc/nios2-elf/8.3.1/../../../../../H-x86_64-mingw32/nios2-elf/lib\libc.a(closer.o)
 .debug_loc     0x0000000000010965      0x317 c:/intelfpga_lite/19.1/nios2eds/bin/gnu/h-x86_64-mingw32/bin/../lib/gcc/nios2-elf/8.3.1/../../../../../H-x86_64-mingw32/nios2-elf/lib\libc.a(lib_a-callocr.o)
 .debug_loc     0x0000000000010c7c      0x179 c:/intelfpga_lite/19.1/nios2eds/bin/gnu/h-x86_64-mingw32/bin/../lib/gcc/nios2-elf/8.3.1/../../../../../H-x86_64-mingw32/nios2-elf/lib\libc.a(lib_a-fclose.o)
 .debug_loc     0x0000000000010df5      0x307 c:/intelfpga_lite/19.1/nios2eds/bin/gnu/h-x86_64-mingw32/bin/../lib/gcc/nios2-elf/8.3.1/../../../../../H-x86_64-mingw32/nios2-elf/lib\libc.a(lib_a-fputwc.o)
 .debug_loc     0x00000000000110fc       0xc8 c:/intelfpga_lite/19.1/nios2eds/bin/gnu/h-x86_64-mingw32/bin/../lib/gcc/nios2-elf/8.3.1/../../../../../H-x86_64-mingw32/nios2-elf/lib\libc.a(lib_a-fstatr.o)
 .debug_loc     0x00000000000111c4       0x89 c:/intelfpga_lite/19.1/nios2eds/bin/gnu/h-x86_64-mingw32/bin/../lib/gcc/nios2-elf/8.3.1/../../../../../H-x86_64-mingw32/nios2-elf/lib\libc.a(lib_a-isattyr.o)
 .debug_loc     0x000000000001124d      0x159 c:/intelfpga_lite/19.1/nios2eds/bin/gnu/h-x86_64-mingw32/bin/../lib/gcc/nios2-elf/8.3.1/../../../../../H-x86_64-mingw32/nios2-elf/lib\libc.a(lib_a-locale.o)
 .debug_loc     0x00000000000113a6       0xfa c:/intelfpga_lite/19.1/nios2eds/bin/gnu/h-x86_64-mingw32/bin/../lib/gcc/nios2-elf/8.3.1/../../../../../H-x86_64-mingw32/nios2-elf/lib\libc.a(lib_a-lseekr.o)
 .debug_loc     0x00000000000114a0      0x119 c:/intelfpga_lite/19.1/nios2eds/bin/gnu/h-x86_64-mingw32/bin/../lib/gcc/nios2-elf/8.3.1/../../../../../H-x86_64-mingw32/nios2-elf/lib\libc.a(lib_a-mbtowc_r.o)
 .debug_loc     0x00000000000115b9       0xfa c:/intelfpga_lite/19.1/nios2eds/bin/gnu/h-x86_64-mingw32/bin/../lib/gcc/nios2-elf/8.3.1/../../../../../H-x86_64-mingw32/nios2-elf/lib\libc.a(lib_a-readr.o)
 .debug_loc     0x00000000000116b3      0x145 c:/intelfpga_lite/19.1/nios2eds/bin/gnu/h-x86_64-mingw32/bin/../lib/gcc/nios2-elf/8.3.1/../../../../../H-x86_64-mingw32/nios2-elf/lib\libc.a(lib_a-refill.o)
 .debug_loc     0x00000000000117f8       0xc8 c:/intelfpga_lite/19.1/nios2eds/bin/gnu/h-x86_64-mingw32/bin/../lib/gcc/nios2-elf/8.3.1/../../../../../H-x86_64-mingw32/nios2-elf/lib\libc.a(lib_a-strcmp.o)
 .debug_loc     0x00000000000118c0      0x2be c:/intelfpga_lite/19.1/nios2eds/bin/gnu/h-x86_64-mingw32/bin/../lib/gcc/nios2-elf/8.3.1/../../../../../H-x86_64-mingw32/nios2-elf/lib\libc.a(lib_a-wcrtomb.o)
 .debug_loc     0x0000000000011b7e       0xa9 c:/intelfpga_lite/19.1/nios2eds/bin/gnu/h-x86_64-mingw32/bin/../lib/gcc/nios2-elf/8.3.1/../../../../../H-x86_64-mingw32/nios2-elf/lib\libc.a(lib_a-wctomb_r.o)
 .debug_loc     0x0000000000011c27     0x1577 c:/intelfpga_lite/19.1/nios2eds/bin/gnu/h-x86_64-mingw32/bin/../lib/gcc/nios2-elf/8.3.1\libgcc.a(_udivdi3.o)
 .debug_loc     0x000000000001319e     0x1186 c:/intelfpga_lite/19.1/nios2eds/bin/gnu/h-x86_64-mingw32/bin/../lib/gcc/nios2-elf/8.3.1\libgcc.a(_umoddi3.o)
 .debug_loc     0x0000000000014324      0x5f7 c:/intelfpga_lite/19.1/nios2eds/bin/gnu/h-x86_64-mingw32/bin/../lib/gcc/nios2-elf/8.3.1\libgcc.a(lib2-divmod.o)
 .debug_loc     0x000000000001491b     0x1cba c:/intelfpga_lite/19.1/nios2eds/bin/gnu/h-x86_64-mingw32/bin/../lib/gcc/nios2-elf/8.3.1\libgcc.a(adddf3.o)
 .debug_loc     0x00000000000165d5     0x22bc c:/intelfpga_lite/19.1/nios2eds/bin/gnu/h-x86_64-mingw32/bin/../lib/gcc/nios2-elf/8.3.1\libgcc.a(divdf3.o)
 .debug_loc     0x0000000000018891       0xe2 c:/intelfpga_lite/19.1/nios2eds/bin/gnu/h-x86_64-mingw32/bin/../lib/gcc/nios2-elf/8.3.1\libgcc.a(eqdf2.o)
 .debug_loc     0x0000000000018973      0x174 c:/intelfpga_lite/19.1/nios2eds/bin/gnu/h-x86_64-mingw32/bin/../lib/gcc/nios2-elf/8.3.1\libgcc.a(gedf2.o)
 .debug_loc     0x0000000000018ae7      0x166 c:/intelfpga_lite/19.1/nios2eds/bin/gnu/h-x86_64-mingw32/bin/../lib/gcc/nios2-elf/8.3.1\libgcc.a(ledf2.o)
 .debug_loc     0x0000000000018c4d     0x12ec c:/intelfpga_lite/19.1/nios2eds/bin/gnu/h-x86_64-mingw32/bin/../lib/gcc/nios2-elf/8.3.1\libgcc.a(muldf3.o)
 .debug_loc     0x0000000000019f39     0x1e4b c:/intelfpga_lite/19.1/nios2eds/bin/gnu/h-x86_64-mingw32/bin/../lib/gcc/nios2-elf/8.3.1\libgcc.a(subdf3.o)
 .debug_loc     0x000000000001bd84       0x7a c:/intelfpga_lite/19.1/nios2eds/bin/gnu/h-x86_64-mingw32/bin/../lib/gcc/nios2-elf/8.3.1\libgcc.a(unorddf2.o)
 .debug_loc     0x000000000001bdfe      0x139 c:/intelfpga_lite/19.1/nios2eds/bin/gnu/h-x86_64-mingw32/bin/../lib/gcc/nios2-elf/8.3.1\libgcc.a(fixdfsi.o)
 .debug_loc     0x000000000001bf37      0x255 c:/intelfpga_lite/19.1/nios2eds/bin/gnu/h-x86_64-mingw32/bin/../lib/gcc/nios2-elf/8.3.1\libgcc.a(floatsidf.o)
 .debug_loc     0x000000000001c18c      0x278 c:/intelfpga_lite/19.1/nios2eds/bin/gnu/h-x86_64-mingw32/bin/../lib/gcc/nios2-elf/8.3.1\libgcc.a(floatunsidf.o)
 .debug_loc     0x000000000001c404       0xbe c:/intelfpga_lite/19.1/nios2eds/bin/gnu/h-x86_64-mingw32/bin/../lib/gcc/nios2-elf/8.3.1\libgcc.a(_clzsi2.o)
 .debug_loc     0x000000000001c4c2       0x32 c:/intelfpga_lite/19.1/nios2eds/bin/gnu/h-x86_64-mingw32/bin/../lib/gcc/nios2-elf/8.3.1/../../../../../H-x86_64-mingw32/nios2-elf/lib\libc.a(lib_a-atexit.o)
 .debug_loc     0x000000000001c4f4       0x6f c:/intelfpga_lite/19.1/nios2eds/bin/gnu/h-x86_64-mingw32/bin/../lib/gcc/nios2-elf/8.3.1/../../../../../H-x86_64-mingw32/nios2-elf/lib\libc.a(lib_a-atoi.o)
 .debug_loc     0x000000000001c563       0x22 c:/intelfpga_lite/19.1/nios2eds/bin/gnu/h-x86_64-mingw32/bin/../lib/gcc/nios2-elf/8.3.1/../../../../../H-x86_64-mingw32/nios2-elf/lib\libc.a(lib_a-exit.o)
 .debug_loc     0x000000000001c585       0x64 c:/intelfpga_lite/19.1/nios2eds/bin/gnu/h-x86_64-mingw32/bin/../lib/gcc/nios2-elf/8.3.1/../../../../../H-x86_64-mingw32/nios2-elf/lib\libc.a(lib_a-malign.o)
 .debug_loc     0x000000000001c5e9      0x33e c:/intelfpga_lite/19.1/nios2eds/bin/gnu/h-x86_64-mingw32/bin/../lib/gcc/nios2-elf/8.3.1/../../../../../H-x86_64-mingw32/nios2-elf/lib\libc.a(lib_a-malignr.o)
 .debug_loc     0x000000000001c927       0x64 c:/intelfpga_lite/19.1/nios2eds/bin/gnu/h-x86_64-mingw32/bin/../lib/gcc/nios2-elf/8.3.1/../../../../../H-x86_64-mingw32/nios2-elf/lib\libc.a(lib_a-malloc.o)
 .debug_loc     0x000000000001c98b      0x192 c:/intelfpga_lite/19.1/nios2eds/bin/gnu/h-x86_64-mingw32/bin/../lib/gcc/nios2-elf/8.3.1/../../../../../H-x86_64-mingw32/nios2-elf/lib\libc.a(lib_a-memcmp.o)
 .debug_loc     0x000000000001cb1d      0x152 c:/intelfpga_lite/19.1/nios2eds/bin/gnu/h-x86_64-mingw32/bin/../lib/gcc/nios2-elf/8.3.1/../../../../../H-x86_64-mingw32/nios2-elf/lib\libc.a(lib_a-sprintf.o)
 .debug_loc     0x000000000001cc6f      0x180 c:/intelfpga_lite/19.1/nios2eds/bin/gnu/h-x86_64-mingw32/bin/../lib/gcc/nios2-elf/8.3.1/../../../../../H-x86_64-mingw32/nios2-elf/lib\libc.a(lib_a-strchr.o)
 .debug_loc     0x000000000001cdef      0x122 c:/intelfpga_lite/19.1/nios2eds/bin/gnu/h-x86_64-mingw32/bin/../lib/gcc/nios2-elf/8.3.1/../../../../../H-x86_64-mingw32/nios2-elf/lib\libc.a(lib_a-strcpy.o)
 .debug_loc     0x000000000001cf11      0x16c c:/intelfpga_lite/19.1/nios2eds/bin/gnu/h-x86_64-mingw32/bin/../lib/gcc/nios2-elf/8.3.1/../../../../../H-x86_64-mingw32/nios2-elf/lib\libc.a(lib_a-strncmp.o)
 .debug_loc     0x000000000001d07d      0x651 c:/intelfpga_lite/19.1/nios2eds/bin/gnu/h-x86_64-mingw32/bin/../lib/gcc/nios2-elf/8.3.1/../../../../../H-x86_64-mingw32/nios2-elf/lib\libc.a(lib_a-strtol.o)
 .debug_loc     0x000000000001d6ce     0x346f c:/intelfpga_lite/19.1/nios2eds/bin/gnu/h-x86_64-mingw32/bin/../lib/gcc/nios2-elf/8.3.1/../../../../../H-x86_64-mingw32/nios2-elf/lib\libc.a(lib_a-svfprintf.o)
 .debug_loc     0x0000000000020b3d      0x102 c:/intelfpga_lite/19.1/nios2eds/bin/gnu/h-x86_64-mingw32/bin/../lib/gcc/nios2-elf/8.3.1/../../../../../H-x86_64-mingw32/nios2-elf/lib\libc.a(lib_a-vprintf.o)
 .debug_loc     0x0000000000020c3f      0x14c c:/intelfpga_lite/19.1/nios2eds/bin/gnu/h-x86_64-mingw32/bin/../lib/gcc/nios2-elf/8.3.1/../../../../../H-x86_64-mingw32/nios2-elf/lib\libc.a(lib_a-vsprintf.o)
 .debug_loc     0x0000000000020d8b       0xf7 c:/intelfpga_lite/19.1/nios2eds/bin/gnu/h-x86_64-mingw32/bin/../lib/gcc/nios2-elf/8.3.1/../../../../../H-x86_64-mingw32/nios2-elf/lib\libc.a(lib_a-__atexit.o)
 .debug_loc     0x0000000000020e82      0x19e c:/intelfpga_lite/19.1/nios2eds/bin/gnu/h-x86_64-mingw32/bin/../lib/gcc/nios2-elf/8.3.1/../../../../../H-x86_64-mingw32/nios2-elf/lib\libc.a(lib_a-__call_atexit.o)
 .debug_loc     0x0000000000021020     0x1851 c:/intelfpga_lite/19.1/nios2eds/bin/gnu/h-x86_64-mingw32/bin/../lib/gcc/nios2-elf/8.3.1/../../../../../H-x86_64-mingw32/nios2-elf/lib\libc.a(lib_a-svfiprintf.o)
 .debug_loc     0x0000000000022871       0x94 c:/intelfpga_lite/19.1/nios2eds/bin/gnu/h-x86_64-mingw32/bin/../lib/gcc/nios2-elf/8.3.1/../../../../../H-x86_64-mingw32/nios2-elf/lib\libc.a(lib_a-vfprintfr_1.o)

.debug_macinfo
 *(.debug_macinfo)

.debug_weaknames
 *(.debug_weaknames)

.debug_funcnames
 *(.debug_funcnames)

.debug_typenames
 *(.debug_typenames)

.debug_varnames
 *(.debug_varnames)

.debug_alt_sim_info
                0x0000000000000000       0x60
 *(.debug_alt_sim_info)
 .debug_alt_sim_info
                0x0000000000000000       0x30 d:/hit20v3/software/hit_pat/software/hit_pat_bsp//obj/HAL/src/crt0.o
 .debug_alt_sim_info
                0x0000000000000030       0x30 ../hit_pat_bsp\libucosii_bsp.a(alt_busy_sleep.o)
                0x0000000010000000                __alt_data_end = 0x10000000
                0x0000000010000000                PROVIDE (__alt_stack_pointer = __alt_data_end)
                [!provide]                        PROVIDE (__alt_stack_limit = __alt_stack_base)
                0x000000000805e59c                PROVIDE (__alt_heap_start = end)
                0x0000000010000000                PROVIDE (__alt_heap_limit = 0x10000000)
OUTPUT(hit_pat.elf elf32-littlenios2)

.debug_ranges   0x0000000000000000     0x21b8
 .debug_ranges  0x0000000000000000       0x20 d:/hit20v3/software/hit_pat/software/hit_pat_bsp//obj/HAL/src/crt0.o
 .debug_ranges  0x0000000000000020       0x18 c:/intelfpga_lite/19.1/nios2eds/bin/gnu/h-x86_64-mingw32/bin/../lib/gcc/nios2-elf/8.3.1/../../../../../H-x86_64-mingw32/nios2-elf/lib\libc.a(lib_a-getchar.o)
 .debug_ranges  0x0000000000000038       0x18 c:/intelfpga_lite/19.1/nios2eds/bin/gnu/h-x86_64-mingw32/bin/../lib/gcc/nios2-elf/8.3.1/../../../../../H-x86_64-mingw32/nios2-elf/lib\libc.a(lib_a-printf.o)
 .debug_ranges  0x0000000000000050       0x18 c:/intelfpga_lite/19.1/nios2eds/bin/gnu/h-x86_64-mingw32/bin/../lib/gcc/nios2-elf/8.3.1/../../../../../H-x86_64-mingw32/nios2-elf/lib\libc.a(lib_a-putchar.o)
 .debug_ranges  0x0000000000000068       0x30 c:/intelfpga_lite/19.1/nios2eds/bin/gnu/h-x86_64-mingw32/bin/../lib/gcc/nios2-elf/8.3.1/../../../../../H-x86_64-mingw32/nios2-elf/lib\libc.a(lib_a-puts.o)
 .debug_ranges  0x0000000000000098       0x10 c:/intelfpga_lite/19.1/nios2eds/bin/gnu/h-x86_64-mingw32/bin/../lib/gcc/nios2-elf/8.3.1/../../../../../H-x86_64-mingw32/nios2-elf/lib\libc.a(lib_a-strlen.o)
 .debug_ranges  0x00000000000000a8      0x1c8 c:/intelfpga_lite/19.1/nios2eds/bin/gnu/h-x86_64-mingw32/bin/../lib/gcc/nios2-elf/8.3.1/../../../../../H-x86_64-mingw32/nios2-elf/lib\libc.a(lib_a-vfprintf.o)
 .debug_ranges  0x0000000000000270       0x30 c:/intelfpga_lite/19.1/nios2eds/bin/gnu/h-x86_64-mingw32/bin/../lib/gcc/nios2-elf/8.3.1/../../../../../H-x86_64-mingw32/nios2-elf/lib\libc.a(lib_a-wsetup.o)
 .debug_ranges  0x00000000000002a0       0x18 c:/intelfpga_lite/19.1/nios2eds/bin/gnu/h-x86_64-mingw32/bin/../lib/gcc/nios2-elf/8.3.1/../../../../../H-x86_64-mingw32/nios2-elf/lib\libc.a(lib_a-dtoa.o)
 .debug_ranges  0x00000000000002b8       0x78 c:/intelfpga_lite/19.1/nios2eds/bin/gnu/h-x86_64-mingw32/bin/../lib/gcc/nios2-elf/8.3.1/../../../../../H-x86_64-mingw32/nios2-elf/lib\libc.a(lib_a-fflush.o)
 .debug_ranges  0x0000000000000330      0x130 c:/intelfpga_lite/19.1/nios2eds/bin/gnu/h-x86_64-mingw32/bin/../lib/gcc/nios2-elf/8.3.1/../../../../../H-x86_64-mingw32/nios2-elf/lib\libc.a(lib_a-findfp.o)
 .debug_ranges  0x0000000000000460       0x18 c:/intelfpga_lite/19.1/nios2eds/bin/gnu/h-x86_64-mingw32/bin/../lib/gcc/nios2-elf/8.3.1/../../../../../H-x86_64-mingw32/nios2-elf/lib\libc.a(lib_a-freer.o)
 .debug_ranges  0x0000000000000478       0x28 c:/intelfpga_lite/19.1/nios2eds/bin/gnu/h-x86_64-mingw32/bin/../lib/gcc/nios2-elf/8.3.1/../../../../../H-x86_64-mingw32/nios2-elf/lib\libc.a(lib_a-fvwrite.o)
 .debug_ranges  0x00000000000004a0       0x18 c:/intelfpga_lite/19.1/nios2eds/bin/gnu/h-x86_64-mingw32/bin/../lib/gcc/nios2-elf/8.3.1/../../../../../H-x86_64-mingw32/nios2-elf/lib\libc.a(lib_a-fwalk.o)
 .debug_ranges  0x00000000000004b8       0x58 c:/intelfpga_lite/19.1/nios2eds/bin/gnu/h-x86_64-mingw32/bin/../lib/gcc/nios2-elf/8.3.1/../../../../../H-x86_64-mingw32/nios2-elf/lib\libc.a(lib_a-getc.o)
 .debug_ranges  0x0000000000000510       0x20 c:/intelfpga_lite/19.1/nios2eds/bin/gnu/h-x86_64-mingw32/bin/../lib/gcc/nios2-elf/8.3.1/../../../../../H-x86_64-mingw32/nios2-elf/lib\libc.a(lib_a-localeconv.o)
 .debug_ranges  0x0000000000000530       0x18 c:/intelfpga_lite/19.1/nios2eds/bin/gnu/h-x86_64-mingw32/bin/../lib/gcc/nios2-elf/8.3.1/../../../../../H-x86_64-mingw32/nios2-elf/lib\libc.a(lib_a-makebuf.o)
 .debug_ranges  0x0000000000000548       0x48 c:/intelfpga_lite/19.1/nios2eds/bin/gnu/h-x86_64-mingw32/bin/../lib/gcc/nios2-elf/8.3.1/../../../../../H-x86_64-mingw32/nios2-elf/lib\libc.a(lib_a-mallocr.o)
 .debug_ranges  0x0000000000000590       0x10 c:/intelfpga_lite/19.1/nios2eds/bin/gnu/h-x86_64-mingw32/bin/../lib/gcc/nios2-elf/8.3.1/../../../../../H-x86_64-mingw32/nios2-elf/lib\libc.a(lib_a-memchr.o)
 .debug_ranges  0x00000000000005a0       0x10 c:/intelfpga_lite/19.1/nios2eds/bin/gnu/h-x86_64-mingw32/bin/../lib/gcc/nios2-elf/8.3.1/../../../../../H-x86_64-mingw32/nios2-elf/lib\libc.a(lib_a-memcpy.o)
 .debug_ranges  0x00000000000005b0       0x10 c:/intelfpga_lite/19.1/nios2eds/bin/gnu/h-x86_64-mingw32/bin/../lib/gcc/nios2-elf/8.3.1/../../../../../H-x86_64-mingw32/nios2-elf/lib\libc.a(lib_a-memmove.o)
 .debug_ranges  0x00000000000005c0       0x10 c:/intelfpga_lite/19.1/nios2eds/bin/gnu/h-x86_64-mingw32/bin/../lib/gcc/nios2-elf/8.3.1/../../../../../H-x86_64-mingw32/nios2-elf/lib\libc.a(lib_a-memset.o)
 .debug_ranges  0x00000000000005d0       0xe8 c:/intelfpga_lite/19.1/nios2eds/bin/gnu/h-x86_64-mingw32/bin/../lib/gcc/nios2-elf/8.3.1/../../../../../H-x86_64-mingw32/nios2-elf/lib\libc.a(lib_a-mprec.o)
 .debug_ranges  0x00000000000006b8       0x58 c:/intelfpga_lite/19.1/nios2eds/bin/gnu/h-x86_64-mingw32/bin/../lib/gcc/nios2-elf/8.3.1/../../../../../H-x86_64-mingw32/nios2-elf/lib\libc.a(lib_a-putc.o)
 .debug_ranges  0x0000000000000710      0x1a8 c:/intelfpga_lite/19.1/nios2eds/bin/gnu/h-x86_64-mingw32/bin/../lib/gcc/nios2-elf/8.3.1/../../../../../H-x86_64-mingw32/nios2-elf/lib\libc.a(lib_a-reallocr.o)
 .debug_ranges  0x00000000000008b8       0x40 c:/intelfpga_lite/19.1/nios2eds/bin/gnu/h-x86_64-mingw32/bin/../lib/gcc/nios2-elf/8.3.1/../../../../../H-x86_64-mingw32/nios2-elf/lib\libc.a(lib_a-rget.o)
 .debug_ranges  0x00000000000008f8       0x10 c:/intelfpga_lite/19.1/nios2eds/bin/gnu/h-x86_64-mingw32/bin/../lib/gcc/nios2-elf/8.3.1/../../../../../H-x86_64-mingw32/nios2-elf/lib\libc.a(lib_a-sbrkr.o)
 .debug_ranges  0x0000000000000908       0x30 c:/intelfpga_lite/19.1/nios2eds/bin/gnu/h-x86_64-mingw32/bin/../lib/gcc/nios2-elf/8.3.1/../../../../../H-x86_64-mingw32/nios2-elf/lib\libc.a(lib_a-stdio.o)
 .debug_ranges  0x0000000000000938      0x1b0 c:/intelfpga_lite/19.1/nios2eds/bin/gnu/h-x86_64-mingw32/bin/../lib/gcc/nios2-elf/8.3.1/../../../../../H-x86_64-mingw32/nios2-elf/lib\libc.a(lib_a-vfiprintf.o)
 .debug_ranges  0x0000000000000ae8       0x40 c:/intelfpga_lite/19.1/nios2eds/bin/gnu/h-x86_64-mingw32/bin/../lib/gcc/nios2-elf/8.3.1/../../../../../H-x86_64-mingw32/nios2-elf/lib\libc.a(lib_a-wbuf.o)
 .debug_ranges  0x0000000000000b28       0x10 c:/intelfpga_lite/19.1/nios2eds/bin/gnu/h-x86_64-mingw32/bin/../lib/gcc/nios2-elf/8.3.1/../../../../../H-x86_64-mingw32/nios2-elf/lib\libc.a(lib_a-writer.o)
 .debug_ranges  0x0000000000000b38       0x10 c:/intelfpga_lite/19.1/nios2eds/bin/gnu/h-x86_64-mingw32/bin/../lib/gcc/nios2-elf/8.3.1/../../../../../H-x86_64-mingw32/nios2-elf/lib\libc.a(closer.o)
 .debug_ranges  0x0000000000000b48       0x58 c:/intelfpga_lite/19.1/nios2eds/bin/gnu/h-x86_64-mingw32/bin/../lib/gcc/nios2-elf/8.3.1/../../../../../H-x86_64-mingw32/nios2-elf/lib\libc.a(lib_a-callocr.o)
 .debug_ranges  0x0000000000000ba0       0x48 c:/intelfpga_lite/19.1/nios2eds/bin/gnu/h-x86_64-mingw32/bin/../lib/gcc/nios2-elf/8.3.1/../../../../../H-x86_64-mingw32/nios2-elf/lib\libc.a(lib_a-fclose.o)
 .debug_ranges  0x0000000000000be8       0x58 c:/intelfpga_lite/19.1/nios2eds/bin/gnu/h-x86_64-mingw32/bin/../lib/gcc/nios2-elf/8.3.1/../../../../../H-x86_64-mingw32/nios2-elf/lib\libc.a(lib_a-fputwc.o)
 .debug_ranges  0x0000000000000c40       0x10 c:/intelfpga_lite/19.1/nios2eds/bin/gnu/h-x86_64-mingw32/bin/../lib/gcc/nios2-elf/8.3.1/../../../../../H-x86_64-mingw32/nios2-elf/lib\libc.a(lib_a-fstatr.o)
 .debug_ranges  0x0000000000000c50       0x10 c:/intelfpga_lite/19.1/nios2eds/bin/gnu/h-x86_64-mingw32/bin/../lib/gcc/nios2-elf/8.3.1/../../../../../H-x86_64-mingw32/nios2-elf/lib\libc.a(lib_a-isattyr.o)
 .debug_ranges  0x0000000000000c60       0x20 c:/intelfpga_lite/19.1/nios2eds/bin/gnu/h-x86_64-mingw32/bin/../lib/gcc/nios2-elf/8.3.1/../../../../../H-x86_64-mingw32/nios2-elf/lib\libc.a(lib_a-locale.o)
 .debug_ranges  0x0000000000000c80       0x10 c:/intelfpga_lite/19.1/nios2eds/bin/gnu/h-x86_64-mingw32/bin/../lib/gcc/nios2-elf/8.3.1/../../../../../H-x86_64-mingw32/nios2-elf/lib\libc.a(lib_a-lseekr.o)
 .debug_ranges  0x0000000000000c90       0x18 c:/intelfpga_lite/19.1/nios2eds/bin/gnu/h-x86_64-mingw32/bin/../lib/gcc/nios2-elf/8.3.1/../../../../../H-x86_64-mingw32/nios2-elf/lib\libc.a(lib_a-mbtowc_r.o)
 .debug_ranges  0x0000000000000ca8       0x10 c:/intelfpga_lite/19.1/nios2eds/bin/gnu/h-x86_64-mingw32/bin/../lib/gcc/nios2-elf/8.3.1/../../../../../H-x86_64-mingw32/nios2-elf/lib\libc.a(lib_a-readr.o)
 .debug_ranges  0x0000000000000cb8       0x40 c:/intelfpga_lite/19.1/nios2eds/bin/gnu/h-x86_64-mingw32/bin/../lib/gcc/nios2-elf/8.3.1/../../../../../H-x86_64-mingw32/nios2-elf/lib\libc.a(lib_a-refill.o)
 .debug_ranges  0x0000000000000cf8       0x10 c:/intelfpga_lite/19.1/nios2eds/bin/gnu/h-x86_64-mingw32/bin/../lib/gcc/nios2-elf/8.3.1/../../../../../H-x86_64-mingw32/nios2-elf/lib\libc.a(lib_a-strcmp.o)
 .debug_ranges  0x0000000000000d08       0x18 c:/intelfpga_lite/19.1/nios2eds/bin/gnu/h-x86_64-mingw32/bin/../lib/gcc/nios2-elf/8.3.1/../../../../../H-x86_64-mingw32/nios2-elf/lib\libc.a(lib_a-wcrtomb.o)
 .debug_ranges  0x0000000000000d20       0x18 c:/intelfpga_lite/19.1/nios2eds/bin/gnu/h-x86_64-mingw32/bin/../lib/gcc/nios2-elf/8.3.1/../../../../../H-x86_64-mingw32/nios2-elf/lib\libc.a(lib_a-wctomb_r.o)
 .debug_ranges  0x0000000000000d38      0x1b8 c:/intelfpga_lite/19.1/nios2eds/bin/gnu/h-x86_64-mingw32/bin/../lib/gcc/nios2-elf/8.3.1\libgcc.a(_udivdi3.o)
 .debug_ranges  0x0000000000000ef0      0x180 c:/intelfpga_lite/19.1/nios2eds/bin/gnu/h-x86_64-mingw32/bin/../lib/gcc/nios2-elf/8.3.1\libgcc.a(_umoddi3.o)
 .debug_ranges  0x0000000000001070       0x70 c:/intelfpga_lite/19.1/nios2eds/bin/gnu/h-x86_64-mingw32/bin/../lib/gcc/nios2-elf/8.3.1\libgcc.a(lib2-divmod.o)
 .debug_ranges  0x00000000000010e0      0x2a8 c:/intelfpga_lite/19.1/nios2eds/bin/gnu/h-x86_64-mingw32/bin/../lib/gcc/nios2-elf/8.3.1\libgcc.a(adddf3.o)
 .debug_ranges  0x0000000000001388      0x1c8 c:/intelfpga_lite/19.1/nios2eds/bin/gnu/h-x86_64-mingw32/bin/../lib/gcc/nios2-elf/8.3.1\libgcc.a(divdf3.o)
 .debug_ranges  0x0000000000001550       0x48 c:/intelfpga_lite/19.1/nios2eds/bin/gnu/h-x86_64-mingw32/bin/../lib/gcc/nios2-elf/8.3.1\libgcc.a(eqdf2.o)
 .debug_ranges  0x0000000000001598       0x70 c:/intelfpga_lite/19.1/nios2eds/bin/gnu/h-x86_64-mingw32/bin/../lib/gcc/nios2-elf/8.3.1\libgcc.a(gedf2.o)
 .debug_ranges  0x0000000000001608       0x70 c:/intelfpga_lite/19.1/nios2eds/bin/gnu/h-x86_64-mingw32/bin/../lib/gcc/nios2-elf/8.3.1\libgcc.a(ledf2.o)
 .debug_ranges  0x0000000000001678      0x240 c:/intelfpga_lite/19.1/nios2eds/bin/gnu/h-x86_64-mingw32/bin/../lib/gcc/nios2-elf/8.3.1\libgcc.a(muldf3.o)
 .debug_ranges  0x00000000000018b8      0x288 c:/intelfpga_lite/19.1/nios2eds/bin/gnu/h-x86_64-mingw32/bin/../lib/gcc/nios2-elf/8.3.1\libgcc.a(subdf3.o)
 .debug_ranges  0x0000000000001b40       0x48 c:/intelfpga_lite/19.1/nios2eds/bin/gnu/h-x86_64-mingw32/bin/../lib/gcc/nios2-elf/8.3.1\libgcc.a(unorddf2.o)
 .debug_ranges  0x0000000000001b88       0x18 c:/intelfpga_lite/19.1/nios2eds/bin/gnu/h-x86_64-mingw32/bin/../lib/gcc/nios2-elf/8.3.1\libgcc.a(fixdfsi.o)
 .debug_ranges  0x0000000000001ba0       0x50 c:/intelfpga_lite/19.1/nios2eds/bin/gnu/h-x86_64-mingw32/bin/../lib/gcc/nios2-elf/8.3.1\libgcc.a(floatsidf.o)
 .debug_ranges  0x0000000000001bf0       0x50 c:/intelfpga_lite/19.1/nios2eds/bin/gnu/h-x86_64-mingw32/bin/../lib/gcc/nios2-elf/8.3.1\libgcc.a(floatunsidf.o)
 .debug_ranges  0x0000000000001c40       0x20 c:/intelfpga_lite/19.1/nios2eds/bin/gnu/h-x86_64-mingw32/bin/../lib/gcc/nios2-elf/8.3.1\libgcc.a(_clzsi2.o)
 .debug_ranges  0x0000000000001c60       0x18 ../hit_pat_bsp\libucosii_bsp.a(altera_generic_quad_spi_controller.o)
 .debug_ranges  0x0000000000001c78       0x30 ../hit_pat_bsp\libucosii_bsp.a(pktalloc.o)
 .debug_ranges  0x0000000000001ca8       0x18 ../hit_pat_bsp\libucosii_bsp.a(nptcp.o)
 .debug_ranges  0x0000000000001cc0       0x60 ../hit_pat_bsp\libucosii_bsp.a(tcp_in.o)
 .debug_ranges  0x0000000000001d20       0x48 ../hit_pat_bsp\libucosii_bsp.a(tcp_out.o)
 .debug_ranges  0x0000000000001d68       0x28 ../hit_pat_bsp\libucosii_bsp.a(alt_irq_entry.o)
 .debug_ranges  0x0000000000001d90       0x10 ../hit_pat_bsp\libucosii_bsp.a(alt_irq_handler.o)
 .debug_ranges  0x0000000000001da0       0x30 ../hit_pat_bsp\libucosii_bsp.a(ipdemux.o)
 .debug_ranges  0x0000000000001dd0       0x30 ../hit_pat_bsp\libucosii_bsp.a(udp.o)
 .debug_ranges  0x0000000000001e00       0x30 ../hit_pat_bsp\libucosii_bsp.a(alt_exception_entry.o)
 .debug_ranges  0x0000000000001e30       0x18 ../hit_pat_bsp\libucosii_bsp.a(alt_instruction_exception_entry.o)
 .debug_ranges  0x0000000000001e48       0x10 c:/intelfpga_lite/19.1/nios2eds/bin/gnu/h-x86_64-mingw32/bin/../lib/gcc/nios2-elf/8.3.1/../../../../../H-x86_64-mingw32/nios2-elf/lib\libc.a(lib_a-atexit.o)
 .debug_ranges  0x0000000000001e58       0x18 c:/intelfpga_lite/19.1/nios2eds/bin/gnu/h-x86_64-mingw32/bin/../lib/gcc/nios2-elf/8.3.1/../../../../../H-x86_64-mingw32/nios2-elf/lib\libc.a(lib_a-atoi.o)
 .debug_ranges  0x0000000000001e70       0x10 c:/intelfpga_lite/19.1/nios2eds/bin/gnu/h-x86_64-mingw32/bin/../lib/gcc/nios2-elf/8.3.1/../../../../../H-x86_64-mingw32/nios2-elf/lib\libc.a(lib_a-exit.o)
 .debug_ranges  0x0000000000001e80       0x10 c:/intelfpga_lite/19.1/nios2eds/bin/gnu/h-x86_64-mingw32/bin/../lib/gcc/nios2-elf/8.3.1/../../../../../H-x86_64-mingw32/nios2-elf/lib\libc.a(lib_a-malign.o)
 .debug_ranges  0x0000000000001e90       0x10 c:/intelfpga_lite/19.1/nios2eds/bin/gnu/h-x86_64-mingw32/bin/../lib/gcc/nios2-elf/8.3.1/../../../../../H-x86_64-mingw32/nios2-elf/lib\libc.a(lib_a-malignr.o)
 .debug_ranges  0x0000000000001ea0       0x18 c:/intelfpga_lite/19.1/nios2eds/bin/gnu/h-x86_64-mingw32/bin/../lib/gcc/nios2-elf/8.3.1/../../../../../H-x86_64-mingw32/nios2-elf/lib\libc.a(lib_a-malloc.o)
 .debug_ranges  0x0000000000001eb8       0x10 c:/intelfpga_lite/19.1/nios2eds/bin/gnu/h-x86_64-mingw32/bin/../lib/gcc/nios2-elf/8.3.1/../../../../../H-x86_64-mingw32/nios2-elf/lib\libc.a(lib_a-memcmp.o)
 .debug_ranges  0x0000000000001ec8       0x18 c:/intelfpga_lite/19.1/nios2eds/bin/gnu/h-x86_64-mingw32/bin/../lib/gcc/nios2-elf/8.3.1/../../../../../H-x86_64-mingw32/nios2-elf/lib\libc.a(lib_a-sprintf.o)
 .debug_ranges  0x0000000000001ee0       0x10 c:/intelfpga_lite/19.1/nios2eds/bin/gnu/h-x86_64-mingw32/bin/../lib/gcc/nios2-elf/8.3.1/../../../../../H-x86_64-mingw32/nios2-elf/lib\libc.a(lib_a-strchr.o)
 .debug_ranges  0x0000000000001ef0       0x10 c:/intelfpga_lite/19.1/nios2eds/bin/gnu/h-x86_64-mingw32/bin/../lib/gcc/nios2-elf/8.3.1/../../../../../H-x86_64-mingw32/nios2-elf/lib\libc.a(lib_a-strcpy.o)
 .debug_ranges  0x0000000000001f00       0x10 c:/intelfpga_lite/19.1/nios2eds/bin/gnu/h-x86_64-mingw32/bin/../lib/gcc/nios2-elf/8.3.1/../../../../../H-x86_64-mingw32/nios2-elf/lib\libc.a(lib_a-strncmp.o)
 .debug_ranges  0x0000000000001f10       0x28 c:/intelfpga_lite/19.1/nios2eds/bin/gnu/h-x86_64-mingw32/bin/../lib/gcc/nios2-elf/8.3.1/../../../../../H-x86_64-mingw32/nios2-elf/lib\libc.a(lib_a-strtol.o)
 .debug_ranges  0x0000000000001f38      0x198 c:/intelfpga_lite/19.1/nios2eds/bin/gnu/h-x86_64-mingw32/bin/../lib/gcc/nios2-elf/8.3.1/../../../../../H-x86_64-mingw32/nios2-elf/lib\libc.a(lib_a-svfprintf.o)
 .debug_ranges  0x00000000000020d0       0x18 c:/intelfpga_lite/19.1/nios2eds/bin/gnu/h-x86_64-mingw32/bin/../lib/gcc/nios2-elf/8.3.1/../../../../../H-x86_64-mingw32/nios2-elf/lib\libc.a(lib_a-vprintf.o)
 .debug_ranges  0x00000000000020e8       0x18 c:/intelfpga_lite/19.1/nios2eds/bin/gnu/h-x86_64-mingw32/bin/../lib/gcc/nios2-elf/8.3.1/../../../../../H-x86_64-mingw32/nios2-elf/lib\libc.a(lib_a-vsprintf.o)
 .debug_ranges  0x0000000000002100       0x10 c:/intelfpga_lite/19.1/nios2eds/bin/gnu/h-x86_64-mingw32/bin/../lib/gcc/nios2-elf/8.3.1/../../../../../H-x86_64-mingw32/nios2-elf/lib\libc.a(lib_a-__atexit.o)
 .debug_ranges  0x0000000000002110       0x30 c:/intelfpga_lite/19.1/nios2eds/bin/gnu/h-x86_64-mingw32/bin/../lib/gcc/nios2-elf/8.3.1/../../../../../H-x86_64-mingw32/nios2-elf/lib\libc.a(lib_a-__call_atexit.o)
 .debug_ranges  0x0000000000002140       0x68 c:/intelfpga_lite/19.1/nios2eds/bin/gnu/h-x86_64-mingw32/bin/../lib/gcc/nios2-elf/8.3.1/../../../../../H-x86_64-mingw32/nios2-elf/lib\libc.a(lib_a-svfiprintf.o)
 .debug_ranges  0x00000000000021a8       0x10 c:/intelfpga_lite/19.1/nios2eds/bin/gnu/h-x86_64-mingw32/bin/../lib/gcc/nios2-elf/8.3.1/../../../../../H-x86_64-mingw32/nios2-elf/lib\libc.a(lib_a-vfprintfr_1.o)
